
main.o:     formato del fichero elf64-x86-64


Desensamblado de la sección .group:

0000000000000000 <.group>:
   0:	01 00                	add    DWORD PTR [rax],eax
   2:	00 00                	add    BYTE PTR [rax],al
   4:	1e                   	(bad)  
   5:	00 00                	add    BYTE PTR [rax],al
	...

Desensamblado de la sección .group:

0000000000000000 <.group>:
   0:	01 00                	add    DWORD PTR [rax],eax
   2:	00 00                	add    BYTE PTR [rax],al
   4:	20 00                	and    BYTE PTR [rax],al
	...

Desensamblado de la sección .group:

0000000000000000 <.group>:
   0:	01 00                	add    DWORD PTR [rax],eax
   2:	00 00                	add    BYTE PTR [rax],al
   4:	22 00                	and    al,BYTE PTR [rax]
	...

Desensamblado de la sección .group:

0000000000000000 <.group>:
   0:	01 00                	add    DWORD PTR [rax],eax
   2:	00 00                	add    BYTE PTR [rax],al
   4:	24 00                	and    al,0x0
	...

Desensamblado de la sección .group:

0000000000000000 <.group>:
   0:	01 00                	add    DWORD PTR [rax],eax
   2:	00 00                	add    BYTE PTR [rax],al
   4:	26 00 00             	add    BYTE PTR es:[rax],al
	...

Desensamblado de la sección .group:

0000000000000000 <.group>:
   0:	01 00                	add    DWORD PTR [rax],eax
   2:	00 00                	add    BYTE PTR [rax],al
   4:	28 00                	sub    BYTE PTR [rax],al
	...

Desensamblado de la sección .group:

0000000000000000 <.group>:
   0:	01 00                	add    DWORD PTR [rax],eax
   2:	00 00                	add    BYTE PTR [rax],al
   4:	2a 00                	sub    al,BYTE PTR [rax]
	...

Desensamblado de la sección .group:

0000000000000000 <_ZN9simulatorD5Ev>:
   0:	01 00                	add    DWORD PTR [rax],eax
   2:	00 00                	add    BYTE PTR [rax],al
   4:	2c 00                	sub    al,0x0
	...

Desensamblado de la sección .group:

0000000000000000 <.group>:
   0:	01 00                	add    DWORD PTR [rax],eax
   2:	00 00                	add    BYTE PTR [rax],al
   4:	2e 00 00             	add    BYTE PTR cs:[rax],al
	...

Desensamblado de la sección .group:

0000000000000000 <_ZNSt7__cxx1112basic_stringIcSt11char_traitsIcESaIcEE12_Alloc_hiderD5Ev>:
   0:	01 00                	add    DWORD PTR [rax],eax
   2:	00 00                	add    BYTE PTR [rax],al
   4:	30 00                	xor    BYTE PTR [rax],al
	...

Desensamblado de la sección .group:

0000000000000000 <.group>:
   0:	01 00                	add    DWORD PTR [rax],eax
   2:	00 00                	add    BYTE PTR [rax],al
   4:	32 00                	xor    al,BYTE PTR [rax]
	...

Desensamblado de la sección .group:

0000000000000000 <.group>:
   0:	01 00                	add    DWORD PTR [rax],eax
   2:	00 00                	add    BYTE PTR [rax],al
   4:	33 00                	xor    eax,DWORD PTR [rax]
	...

Desensamblado de la sección .group:

0000000000000000 <.group>:
   0:	01 00                	add    DWORD PTR [rax],eax
   2:	00 00                	add    BYTE PTR [rax],al
   4:	35                   	.byte 0x35
   5:	00 00                	add    BYTE PTR [rax],al
	...

Desensamblado de la sección .group:

0000000000000000 <.group>:
   0:	01 00                	add    DWORD PTR [rax],eax
   2:	00 00                	add    BYTE PTR [rax],al
   4:	37                   	(bad)  
   5:	00 00                	add    BYTE PTR [rax],al
	...

Desensamblado de la sección .group:

0000000000000000 <.group>:
   0:	01 00                	add    DWORD PTR [rax],eax
   2:	00 00                	add    BYTE PTR [rax],al
   4:	39 00                	cmp    DWORD PTR [rax],eax
	...

Desensamblado de la sección .group:

0000000000000000 <.group>:
   0:	01 00                	add    DWORD PTR [rax],eax
   2:	00 00                	add    BYTE PTR [rax],al
   4:	3b 00                	cmp    eax,DWORD PTR [rax]
	...

Desensamblado de la sección .group:

0000000000000000 <_ZNSt7__cxx1112basic_stringIcSt11char_traitsIcESaIcEEC5IPcvEET_S7_RKS3_>:
   0:	01 00                	add    DWORD PTR [rax],eax
   2:	00 00                	add    BYTE PTR [rax],al
   4:	3c 00                	cmp    al,0x0
	...

Desensamblado de la sección .group:

0000000000000000 <.group>:
   0:	01 00                	add    DWORD PTR [rax],eax
   2:	00 00                	add    BYTE PTR [rax],al
   4:	3e 00 00             	add    BYTE PTR ds:[rax],al
	...

Desensamblado de la sección .group:

0000000000000000 <.group>:
   0:	01 00                	add    DWORD PTR [rax],eax
   2:	00 00                	add    BYTE PTR [rax],al
   4:	40 00 00             	add    BYTE PTR [rax],al
	...

Desensamblado de la sección .group:

0000000000000000 <.group>:
   0:	01 00                	add    DWORD PTR [rax],eax
   2:	00 00                	add    BYTE PTR [rax],al
   4:	42 00 00             	rex.X add BYTE PTR [rax],al
	...

Desensamblado de la sección .group:

0000000000000000 <.group>:
   0:	01 00                	add    DWORD PTR [rax],eax
   2:	00 00                	add    BYTE PTR [rax],al
   4:	44 00 00             	add    BYTE PTR [rax],r8b
	...

Desensamblado de la sección .group:

0000000000000000 <.group>:
   0:	01 00                	add    DWORD PTR [rax],eax
   2:	00 00                	add    BYTE PTR [rax],al
   4:	45 00 00             	add    BYTE PTR [r8],r8b
	...

Desensamblado de la sección .group:

0000000000000000 <.group>:
   0:	01 00                	add    DWORD PTR [rax],eax
   2:	00 00                	add    BYTE PTR [rax],al
   4:	47 00 00             	rex.RXB add BYTE PTR [r8],r8b
	...

Desensamblado de la sección .group:

0000000000000000 <.group>:
   0:	01 00                	add    DWORD PTR [rax],eax
   2:	00 00                	add    BYTE PTR [rax],al
   4:	48 00 00             	rex.W add BYTE PTR [rax],al
	...

Desensamblado de la sección .text:

0000000000000000 <_ZN4mat2C1Ev>:
       0:	55                   	push   rbp
       1:	48 89 e5             	mov    rbp,rsp
       4:	48 89 7d f8          	mov    QWORD PTR [rbp-0x8],rdi
       8:	48 8b 45 f8          	mov    rax,QWORD PTR [rbp-0x8]
       c:	c7 40 08 00 00 00 00 	mov    DWORD PTR [rax+0x8],0x0
      13:	48 8b 45 f8          	mov    rax,QWORD PTR [rbp-0x8]
      17:	c7 40 0c 00 00 00 00 	mov    DWORD PTR [rax+0xc],0x0
      1e:	48 8b 45 f8          	mov    rax,QWORD PTR [rbp-0x8]
      22:	48 c7 00 00 00 00 00 	mov    QWORD PTR [rax],0x0
      29:	90                   	nop
      2a:	5d                   	pop    rbp
      2b:	c3                   	ret    

000000000000002c <_ZN4mat2C1Eii>:
      2c:	55                   	push   rbp
      2d:	48 89 e5             	mov    rbp,rsp
      30:	48 83 ec 10          	sub    rsp,0x10
      34:	48 89 7d f8          	mov    QWORD PTR [rbp-0x8],rdi
      38:	89 75 f4             	mov    DWORD PTR [rbp-0xc],esi
      3b:	89 55 f0             	mov    DWORD PTR [rbp-0x10],edx
      3e:	48 8b 45 f8          	mov    rax,QWORD PTR [rbp-0x8]
      42:	8b 55 f4             	mov    edx,DWORD PTR [rbp-0xc]
      45:	89 50 08             	mov    DWORD PTR [rax+0x8],edx
      48:	48 8b 45 f8          	mov    rax,QWORD PTR [rbp-0x8]
      4c:	8b 55 f0             	mov    edx,DWORD PTR [rbp-0x10]
      4f:	89 50 0c             	mov    DWORD PTR [rax+0xc],edx
      52:	48 8b 45 f8          	mov    rax,QWORD PTR [rbp-0x8]
      56:	66 0f ef c0          	pxor   xmm0,xmm0
      5a:	48 89 c7             	mov    rdi,rax
      5d:	e8 00 00 00 00       	call   62 <_ZN4mat2C1Eii+0x36>
      62:	90                   	nop
      63:	c9                   	leave  
      64:	c3                   	ret    
      65:	90                   	nop

0000000000000066 <_ZN4mat2C1Eiif>:
      66:	55                   	push   rbp
      67:	48 89 e5             	mov    rbp,rsp
      6a:	48 83 ec 20          	sub    rsp,0x20
      6e:	48 89 7d f8          	mov    QWORD PTR [rbp-0x8],rdi
      72:	89 75 f4             	mov    DWORD PTR [rbp-0xc],esi
      75:	89 55 f0             	mov    DWORD PTR [rbp-0x10],edx
      78:	f3 0f 11 45 ec       	movss  DWORD PTR [rbp-0x14],xmm0
      7d:	48 8b 45 f8          	mov    rax,QWORD PTR [rbp-0x8]
      81:	8b 55 f4             	mov    edx,DWORD PTR [rbp-0xc]
      84:	89 50 08             	mov    DWORD PTR [rax+0x8],edx
      87:	48 8b 45 f8          	mov    rax,QWORD PTR [rbp-0x8]
      8b:	8b 55 f0             	mov    edx,DWORD PTR [rbp-0x10]
      8e:	89 50 0c             	mov    DWORD PTR [rax+0xc],edx
      91:	8b 55 ec             	mov    edx,DWORD PTR [rbp-0x14]
      94:	48 8b 45 f8          	mov    rax,QWORD PTR [rbp-0x8]
      98:	89 55 e8             	mov    DWORD PTR [rbp-0x18],edx
      9b:	f3 0f 10 45 e8       	movss  xmm0,DWORD PTR [rbp-0x18]
      a0:	48 89 c7             	mov    rdi,rax
      a3:	e8 00 00 00 00       	call   a8 <_ZN4mat2C1Eiif+0x42>
      a8:	90                   	nop
      a9:	c9                   	leave  
      aa:	c3                   	ret    
      ab:	90                   	nop

00000000000000ac <_ZN4mat24inicEf>:
      ac:	55                   	push   rbp
      ad:	48 89 e5             	mov    rbp,rsp
      b0:	48 83 ec 20          	sub    rsp,0x20
      b4:	48 89 7d e8          	mov    QWORD PTR [rbp-0x18],rdi
      b8:	f3 0f 11 45 e4       	movss  DWORD PTR [rbp-0x1c],xmm0
      bd:	48 8b 45 e8          	mov    rax,QWORD PTR [rbp-0x18]
      c1:	8b 50 08             	mov    edx,DWORD PTR [rax+0x8]
      c4:	48 8b 45 e8          	mov    rax,QWORD PTR [rbp-0x18]
      c8:	8b 40 0c             	mov    eax,DWORD PTR [rax+0xc]
      cb:	0f af c2             	imul   eax,edx
      ce:	89 45 fc             	mov    DWORD PTR [rbp-0x4],eax
      d1:	8b 45 fc             	mov    eax,DWORD PTR [rbp-0x4]
      d4:	48 98                	cdqe   
      d6:	48 ba 00 00 00 00 00 	movabs rdx,0x1fc0000000000000
      dd:	00 c0 1f 
      e0:	48 39 d0             	cmp    rax,rdx
      e3:	77 1f                	ja     104 <_ZN4mat24inicEf+0x58>
      e5:	48 c1 e0 02          	shl    rax,0x2
      e9:	48 89 c7             	mov    rdi,rax
      ec:	e8 00 00 00 00       	call   f1 <_ZN4mat24inicEf+0x45>
      f1:	48 89 c2             	mov    rdx,rax
      f4:	48 8b 45 e8          	mov    rax,QWORD PTR [rbp-0x18]
      f8:	48 89 10             	mov    QWORD PTR [rax],rdx
      fb:	c7 45 f8 00 00 00 00 	mov    DWORD PTR [rbp-0x8],0x0
     102:	eb 05                	jmp    109 <_ZN4mat24inicEf+0x5d>
     104:	e8 00 00 00 00       	call   109 <_ZN4mat24inicEf+0x5d>
     109:	8b 45 f8             	mov    eax,DWORD PTR [rbp-0x8]
     10c:	3b 45 fc             	cmp    eax,DWORD PTR [rbp-0x4]
     10f:	7d 23                	jge    134 <_ZN4mat24inicEf+0x88>
     111:	48 8b 45 e8          	mov    rax,QWORD PTR [rbp-0x18]
     115:	48 8b 00             	mov    rax,QWORD PTR [rax]
     118:	8b 55 f8             	mov    edx,DWORD PTR [rbp-0x8]
     11b:	48 63 d2             	movsxd rdx,edx
     11e:	48 c1 e2 02          	shl    rdx,0x2
     122:	48 01 d0             	add    rax,rdx
     125:	f3 0f 10 45 e4       	movss  xmm0,DWORD PTR [rbp-0x1c]
     12a:	f3 0f 11 00          	movss  DWORD PTR [rax],xmm0
     12e:	83 45 f8 01          	add    DWORD PTR [rbp-0x8],0x1
     132:	eb d5                	jmp    109 <_ZN4mat24inicEf+0x5d>
     134:	90                   	nop
     135:	c9                   	leave  
     136:	c3                   	ret    
     137:	90                   	nop

0000000000000138 <_ZN4mat26setAllEf>:
     138:	55                   	push   rbp
     139:	48 89 e5             	mov    rbp,rsp
     13c:	48 89 7d e8          	mov    QWORD PTR [rbp-0x18],rdi
     140:	f3 0f 11 45 e4       	movss  DWORD PTR [rbp-0x1c],xmm0
     145:	48 8b 45 e8          	mov    rax,QWORD PTR [rbp-0x18]
     149:	8b 50 08             	mov    edx,DWORD PTR [rax+0x8]
     14c:	48 8b 45 e8          	mov    rax,QWORD PTR [rbp-0x18]
     150:	8b 40 0c             	mov    eax,DWORD PTR [rax+0xc]
     153:	0f af c2             	imul   eax,edx
     156:	89 45 fc             	mov    DWORD PTR [rbp-0x4],eax
     159:	c7 45 f8 00 00 00 00 	mov    DWORD PTR [rbp-0x8],0x0
     160:	8b 45 f8             	mov    eax,DWORD PTR [rbp-0x8]
     163:	3b 45 fc             	cmp    eax,DWORD PTR [rbp-0x4]
     166:	7d 23                	jge    18b <_ZN4mat26setAllEf+0x53>
     168:	48 8b 45 e8          	mov    rax,QWORD PTR [rbp-0x18]
     16c:	48 8b 00             	mov    rax,QWORD PTR [rax]
     16f:	8b 55 f8             	mov    edx,DWORD PTR [rbp-0x8]
     172:	48 63 d2             	movsxd rdx,edx
     175:	48 c1 e2 02          	shl    rdx,0x2
     179:	48 01 d0             	add    rax,rdx
     17c:	f3 0f 10 45 e4       	movss  xmm0,DWORD PTR [rbp-0x1c]
     181:	f3 0f 11 00          	movss  DWORD PTR [rax],xmm0
     185:	83 45 f8 01          	add    DWORD PTR [rbp-0x8],0x1
     189:	eb d5                	jmp    160 <_ZN4mat26setAllEf+0x28>
     18b:	90                   	nop
     18c:	5d                   	pop    rbp
     18d:	c3                   	ret    

000000000000018e <_ZN4mat23setEiif>:
     18e:	55                   	push   rbp
     18f:	48 89 e5             	mov    rbp,rsp
     192:	48 89 7d f8          	mov    QWORD PTR [rbp-0x8],rdi
     196:	89 75 f4             	mov    DWORD PTR [rbp-0xc],esi
     199:	89 55 f0             	mov    DWORD PTR [rbp-0x10],edx
     19c:	f3 0f 11 45 ec       	movss  DWORD PTR [rbp-0x14],xmm0
     1a1:	48 8b 45 f8          	mov    rax,QWORD PTR [rbp-0x8]
     1a5:	48 8b 10             	mov    rdx,QWORD PTR [rax]
     1a8:	48 8b 45 f8          	mov    rax,QWORD PTR [rbp-0x8]
     1ac:	8b 40 0c             	mov    eax,DWORD PTR [rax+0xc]
     1af:	0f af 45 f4          	imul   eax,DWORD PTR [rbp-0xc]
     1b3:	89 c1                	mov    ecx,eax
     1b5:	8b 45 f0             	mov    eax,DWORD PTR [rbp-0x10]
     1b8:	01 c8                	add    eax,ecx
     1ba:	48 98                	cdqe   
     1bc:	48 c1 e0 02          	shl    rax,0x2
     1c0:	48 01 d0             	add    rax,rdx
     1c3:	f3 0f 10 45 ec       	movss  xmm0,DWORD PTR [rbp-0x14]
     1c8:	f3 0f 11 00          	movss  DWORD PTR [rax],xmm0
     1cc:	90                   	nop
     1cd:	5d                   	pop    rbp
     1ce:	c3                   	ret    
     1cf:	90                   	nop

00000000000001d0 <_ZN4mat27copyAllERS_>:
     1d0:	55                   	push   rbp
     1d1:	48 89 e5             	mov    rbp,rsp
     1d4:	48 83 ec 30          	sub    rsp,0x30
     1d8:	48 89 7d e8          	mov    QWORD PTR [rbp-0x18],rdi
     1dc:	48 89 75 e0          	mov    QWORD PTR [rbp-0x20],rsi
     1e0:	c7 45 f8 00 00 00 00 	mov    DWORD PTR [rbp-0x8],0x0
     1e7:	66 0f ef c9          	pxor   xmm1,xmm1
     1eb:	f3 0f 2a 4d f8       	cvtsi2ss xmm1,DWORD PTR [rbp-0x8]
     1f0:	f3 0f 11 4d dc       	movss  DWORD PTR [rbp-0x24],xmm1
     1f5:	48 8b 45 e8          	mov    rax,QWORD PTR [rbp-0x18]
     1f9:	48 89 c7             	mov    rdi,rax
     1fc:	e8 00 00 00 00       	call   201 <_ZN4mat27copyAllERS_+0x31>
     201:	0f 2e 45 dc          	ucomiss xmm0,DWORD PTR [rbp-0x24]
     205:	0f 97 c0             	seta   al
     208:	84 c0                	test   al,al
     20a:	74 63                	je     26f <_ZN4mat27copyAllERS_+0x9f>
     20c:	c7 45 fc 00 00 00 00 	mov    DWORD PTR [rbp-0x4],0x0
     213:	66 0f ef d2          	pxor   xmm2,xmm2
     217:	f3 0f 2a 55 fc       	cvtsi2ss xmm2,DWORD PTR [rbp-0x4]
     21c:	f3 0f 11 55 dc       	movss  DWORD PTR [rbp-0x24],xmm2
     221:	48 8b 45 e8          	mov    rax,QWORD PTR [rbp-0x18]
     225:	48 89 c7             	mov    rdi,rax
     228:	e8 00 00 00 00       	call   22d <_ZN4mat27copyAllERS_+0x5d>
     22d:	0f 2e 45 dc          	ucomiss xmm0,DWORD PTR [rbp-0x24]
     231:	0f 97 c0             	seta   al
     234:	84 c0                	test   al,al
     236:	74 2e                	je     266 <_ZN4mat27copyAllERS_+0x96>
     238:	8b 55 fc             	mov    edx,DWORD PTR [rbp-0x4]
     23b:	8b 4d f8             	mov    ecx,DWORD PTR [rbp-0x8]
     23e:	48 8b 45 e0          	mov    rax,QWORD PTR [rbp-0x20]
     242:	89 ce                	mov    esi,ecx
     244:	48 89 c7             	mov    rdi,rax
     247:	e8 00 00 00 00       	call   24c <_ZN4mat27copyAllERS_+0x7c>
     24c:	8b 55 fc             	mov    edx,DWORD PTR [rbp-0x4]
     24f:	8b 4d f8             	mov    ecx,DWORD PTR [rbp-0x8]
     252:	48 8b 45 e8          	mov    rax,QWORD PTR [rbp-0x18]
     256:	89 ce                	mov    esi,ecx
     258:	48 89 c7             	mov    rdi,rax
     25b:	e8 00 00 00 00       	call   260 <_ZN4mat27copyAllERS_+0x90>
     260:	83 45 fc 01          	add    DWORD PTR [rbp-0x4],0x1
     264:	eb ad                	jmp    213 <_ZN4mat27copyAllERS_+0x43>
     266:	83 45 f8 01          	add    DWORD PTR [rbp-0x8],0x1
     26a:	e9 78 ff ff ff       	jmp    1e7 <_ZN4mat27copyAllERS_+0x17>
     26f:	90                   	nop
     270:	c9                   	leave  
     271:	c3                   	ret    

0000000000000272 <_ZN4mat23addEiif>:
     272:	55                   	push   rbp
     273:	48 89 e5             	mov    rbp,rsp
     276:	48 89 7d f8          	mov    QWORD PTR [rbp-0x8],rdi
     27a:	89 75 f4             	mov    DWORD PTR [rbp-0xc],esi
     27d:	89 55 f0             	mov    DWORD PTR [rbp-0x10],edx
     280:	f3 0f 11 45 ec       	movss  DWORD PTR [rbp-0x14],xmm0
     285:	48 8b 45 f8          	mov    rax,QWORD PTR [rbp-0x8]
     289:	48 8b 10             	mov    rdx,QWORD PTR [rax]
     28c:	48 8b 45 f8          	mov    rax,QWORD PTR [rbp-0x8]
     290:	8b 40 0c             	mov    eax,DWORD PTR [rax+0xc]
     293:	0f af 45 f4          	imul   eax,DWORD PTR [rbp-0xc]
     297:	89 c1                	mov    ecx,eax
     299:	8b 45 f0             	mov    eax,DWORD PTR [rbp-0x10]
     29c:	01 c8                	add    eax,ecx
     29e:	48 98                	cdqe   
     2a0:	48 c1 e0 02          	shl    rax,0x2
     2a4:	48 01 c2             	add    rdx,rax
     2a7:	48 8b 45 f8          	mov    rax,QWORD PTR [rbp-0x8]
     2ab:	48 8b 08             	mov    rcx,QWORD PTR [rax]
     2ae:	48 8b 45 f8          	mov    rax,QWORD PTR [rbp-0x8]
     2b2:	8b 40 0c             	mov    eax,DWORD PTR [rax+0xc]
     2b5:	0f af 45 f4          	imul   eax,DWORD PTR [rbp-0xc]
     2b9:	89 c6                	mov    esi,eax
     2bb:	8b 45 f0             	mov    eax,DWORD PTR [rbp-0x10]
     2be:	01 f0                	add    eax,esi
     2c0:	48 98                	cdqe   
     2c2:	48 c1 e0 02          	shl    rax,0x2
     2c6:	48 01 c8             	add    rax,rcx
     2c9:	f3 0f 10 00          	movss  xmm0,DWORD PTR [rax]
     2cd:	f3 0f 58 45 ec       	addss  xmm0,DWORD PTR [rbp-0x14]
     2d2:	f3 0f 11 02          	movss  DWORD PTR [rdx],xmm0
     2d6:	90                   	nop
     2d7:	5d                   	pop    rbp
     2d8:	c3                   	ret    
     2d9:	90                   	nop

00000000000002da <_ZN4mat22atEii>:
     2da:	55                   	push   rbp
     2db:	48 89 e5             	mov    rbp,rsp
     2de:	48 89 7d f8          	mov    QWORD PTR [rbp-0x8],rdi
     2e2:	89 75 f4             	mov    DWORD PTR [rbp-0xc],esi
     2e5:	89 55 f0             	mov    DWORD PTR [rbp-0x10],edx
     2e8:	48 8b 45 f8          	mov    rax,QWORD PTR [rbp-0x8]
     2ec:	48 8b 10             	mov    rdx,QWORD PTR [rax]
     2ef:	48 8b 45 f8          	mov    rax,QWORD PTR [rbp-0x8]
     2f3:	8b 40 0c             	mov    eax,DWORD PTR [rax+0xc]
     2f6:	0f af 45 f4          	imul   eax,DWORD PTR [rbp-0xc]
     2fa:	89 c1                	mov    ecx,eax
     2fc:	8b 45 f0             	mov    eax,DWORD PTR [rbp-0x10]
     2ff:	01 c8                	add    eax,ecx
     301:	48 98                	cdqe   
     303:	48 c1 e0 02          	shl    rax,0x2
     307:	48 01 d0             	add    rax,rdx
     30a:	f3 0f 10 00          	movss  xmm0,DWORD PTR [rax]
     30e:	5d                   	pop    rbp
     30f:	c3                   	ret    

0000000000000310 <_ZN4mat24colsEv>:
     310:	55                   	push   rbp
     311:	48 89 e5             	mov    rbp,rsp
     314:	48 89 7d f8          	mov    QWORD PTR [rbp-0x8],rdi
     318:	48 8b 45 f8          	mov    rax,QWORD PTR [rbp-0x8]
     31c:	8b 40 0c             	mov    eax,DWORD PTR [rax+0xc]
     31f:	66 0f ef c0          	pxor   xmm0,xmm0
     323:	f3 0f 2a c0          	cvtsi2ss xmm0,eax
     327:	5d                   	pop    rbp
     328:	c3                   	ret    
     329:	90                   	nop

000000000000032a <_ZN4mat24rowsEv>:
     32a:	55                   	push   rbp
     32b:	48 89 e5             	mov    rbp,rsp
     32e:	48 89 7d f8          	mov    QWORD PTR [rbp-0x8],rdi
     332:	48 8b 45 f8          	mov    rax,QWORD PTR [rbp-0x8]
     336:	8b 40 08             	mov    eax,DWORD PTR [rax+0x8]
     339:	66 0f ef c0          	pxor   xmm0,xmm0
     33d:	f3 0f 2a c0          	cvtsi2ss xmm0,eax
     341:	5d                   	pop    rbp
     342:	c3                   	ret    
     343:	90                   	nop

0000000000000344 <_ZN4mat25printEv>:
     344:	55                   	push   rbp
     345:	48 89 e5             	mov    rbp,rsp
     348:	48 83 ec 20          	sub    rsp,0x20
     34c:	48 89 7d e8          	mov    QWORD PTR [rbp-0x18],rdi
     350:	c7 45 f4 00 00 00 00 	mov    DWORD PTR [rbp-0xc],0x0
     357:	48 8b 45 e8          	mov    rax,QWORD PTR [rbp-0x18]
     35b:	8b 40 08             	mov    eax,DWORD PTR [rax+0x8]
     35e:	3b 45 f4             	cmp    eax,DWORD PTR [rbp-0xc]
     361:	0f 8e 8d 00 00 00    	jle    3f4 <_ZN4mat25printEv+0xb0>
     367:	c7 45 f8 00 00 00 00 	mov    DWORD PTR [rbp-0x8],0x0
     36e:	48 8b 45 e8          	mov    rax,QWORD PTR [rbp-0x18]
     372:	8b 40 0c             	mov    eax,DWORD PTR [rax+0xc]
     375:	3b 45 f8             	cmp    eax,DWORD PTR [rbp-0x8]
     378:	7e 53                	jle    3cd <_ZN4mat25printEv+0x89>
     37a:	48 8b 45 e8          	mov    rax,QWORD PTR [rbp-0x18]
     37e:	48 8b 10             	mov    rdx,QWORD PTR [rax]
     381:	48 8b 45 e8          	mov    rax,QWORD PTR [rbp-0x18]
     385:	8b 40 0c             	mov    eax,DWORD PTR [rax+0xc]
     388:	0f af 45 f4          	imul   eax,DWORD PTR [rbp-0xc]
     38c:	89 c1                	mov    ecx,eax
     38e:	8b 45 f8             	mov    eax,DWORD PTR [rbp-0x8]
     391:	01 c8                	add    eax,ecx
     393:	48 98                	cdqe   
     395:	48 c1 e0 02          	shl    rax,0x2
     399:	48 01 d0             	add    rax,rdx
     39c:	f3 0f 10 00          	movss  xmm0,DWORD PTR [rax]
     3a0:	f3 0f 11 45 fc       	movss  DWORD PTR [rbp-0x4],xmm0
     3a5:	8b 45 fc             	mov    eax,DWORD PTR [rbp-0x4]
     3a8:	89 45 e4             	mov    DWORD PTR [rbp-0x1c],eax
     3ab:	f3 0f 10 45 e4       	movss  xmm0,DWORD PTR [rbp-0x1c]
     3b0:	bf 00 00 00 00       	mov    edi,0x0
     3b5:	e8 00 00 00 00       	call   3ba <_ZN4mat25printEv+0x76>
     3ba:	be 00 00 00 00       	mov    esi,0x0
     3bf:	48 89 c7             	mov    rdi,rax
     3c2:	e8 00 00 00 00       	call   3c7 <_ZN4mat25printEv+0x83>
     3c7:	83 45 f8 01          	add    DWORD PTR [rbp-0x8],0x1
     3cb:	eb a1                	jmp    36e <_ZN4mat25printEv+0x2a>
     3cd:	be 00 00 00 00       	mov    esi,0x0
     3d2:	bf 00 00 00 00       	mov    edi,0x0
     3d7:	e8 00 00 00 00       	call   3dc <_ZN4mat25printEv+0x98>
     3dc:	be 00 00 00 00       	mov    esi,0x0
     3e1:	bf 00 00 00 00       	mov    edi,0x0
     3e6:	e8 00 00 00 00       	call   3eb <_ZN4mat25printEv+0xa7>
     3eb:	83 45 f4 01          	add    DWORD PTR [rbp-0xc],0x1
     3ef:	e9 63 ff ff ff       	jmp    357 <_ZN4mat25printEv+0x13>
     3f4:	be 00 00 00 00       	mov    esi,0x0
     3f9:	bf 00 00 00 00       	mov    edi,0x0
     3fe:	e8 00 00 00 00       	call   403 <_ZN4mat25printEv+0xbf>
     403:	90                   	nop
     404:	c9                   	leave  
     405:	c3                   	ret    

0000000000000406 <_ZN4mat2D1Ev>:
     406:	55                   	push   rbp
     407:	48 89 e5             	mov    rbp,rsp
     40a:	48 83 ec 10          	sub    rsp,0x10
     40e:	48 89 7d f8          	mov    QWORD PTR [rbp-0x8],rdi
     412:	48 8b 45 f8          	mov    rax,QWORD PTR [rbp-0x8]
     416:	48 8b 00             	mov    rax,QWORD PTR [rax]
     419:	48 85 c0             	test   rax,rax
     41c:	74 1b                	je     439 <_ZN4mat2D1Ev+0x33>
     41e:	48 8b 45 f8          	mov    rax,QWORD PTR [rbp-0x8]
     422:	48 8b 00             	mov    rax,QWORD PTR [rax]
     425:	48 85 c0             	test   rax,rax
     428:	74 0f                	je     439 <_ZN4mat2D1Ev+0x33>
     42a:	48 8b 45 f8          	mov    rax,QWORD PTR [rbp-0x8]
     42e:	48 8b 00             	mov    rax,QWORD PTR [rax]
     431:	48 89 c7             	mov    rdi,rax
     434:	e8 00 00 00 00       	call   439 <_ZN4mat2D1Ev+0x33>
     439:	90                   	nop
     43a:	c9                   	leave  
     43b:	c3                   	ret    

000000000000043c <_Z4diffR4mat2S0_>:
     43c:	55                   	push   rbp
     43d:	48 89 e5             	mov    rbp,rsp
     440:	48 83 ec 30          	sub    rsp,0x30
     444:	48 89 7d e8          	mov    QWORD PTR [rbp-0x18],rdi
     448:	48 89 75 e0          	mov    QWORD PTR [rbp-0x20],rsi
     44c:	66 0f ef c0          	pxor   xmm0,xmm0
     450:	f3 0f 11 45 f4       	movss  DWORD PTR [rbp-0xc],xmm0
     455:	c7 45 f8 00 00 00 00 	mov    DWORD PTR [rbp-0x8],0x0
     45c:	66 0f ef db          	pxor   xmm3,xmm3
     460:	f3 0f 2a 5d f8       	cvtsi2ss xmm3,DWORD PTR [rbp-0x8]
     465:	f3 0f 11 5d dc       	movss  DWORD PTR [rbp-0x24],xmm3
     46a:	48 8b 45 e8          	mov    rax,QWORD PTR [rbp-0x18]
     46e:	48 89 c7             	mov    rdi,rax
     471:	e8 00 00 00 00       	call   476 <_Z4diffR4mat2S0_+0x3a>
     476:	0f 2e 45 dc          	ucomiss xmm0,DWORD PTR [rbp-0x24]
     47a:	0f 97 c0             	seta   al
     47d:	84 c0                	test   al,al
     47f:	0f 84 9e 00 00 00    	je     523 <_Z4diffR4mat2S0_+0xe7>
     485:	c7 45 fc 00 00 00 00 	mov    DWORD PTR [rbp-0x4],0x0
     48c:	66 0f ef e4          	pxor   xmm4,xmm4
     490:	f3 0f 2a 65 fc       	cvtsi2ss xmm4,DWORD PTR [rbp-0x4]
     495:	f3 0f 11 65 dc       	movss  DWORD PTR [rbp-0x24],xmm4
     49a:	48 8b 45 e8          	mov    rax,QWORD PTR [rbp-0x18]
     49e:	48 89 c7             	mov    rdi,rax
     4a1:	e8 00 00 00 00       	call   4a6 <_Z4diffR4mat2S0_+0x6a>
     4a6:	0f 2e 45 dc          	ucomiss xmm0,DWORD PTR [rbp-0x24]
     4aa:	0f 97 c0             	seta   al
     4ad:	84 c0                	test   al,al
     4af:	74 69                	je     51a <_Z4diffR4mat2S0_+0xde>
     4b1:	8b 55 fc             	mov    edx,DWORD PTR [rbp-0x4]
     4b4:	8b 4d f8             	mov    ecx,DWORD PTR [rbp-0x8]
     4b7:	48 8b 45 e0          	mov    rax,QWORD PTR [rbp-0x20]
     4bb:	89 ce                	mov    esi,ecx
     4bd:	48 89 c7             	mov    rdi,rax
     4c0:	e8 00 00 00 00       	call   4c5 <_Z4diffR4mat2S0_+0x89>
     4c5:	f3 0f 11 45 dc       	movss  DWORD PTR [rbp-0x24],xmm0
     4ca:	8b 55 fc             	mov    edx,DWORD PTR [rbp-0x4]
     4cd:	8b 4d f8             	mov    ecx,DWORD PTR [rbp-0x8]
     4d0:	48 8b 45 e8          	mov    rax,QWORD PTR [rbp-0x18]
     4d4:	89 ce                	mov    esi,ecx
     4d6:	48 89 c7             	mov    rdi,rax
     4d9:	e8 00 00 00 00       	call   4de <_Z4diffR4mat2S0_+0xa2>
     4de:	f3 0f 10 55 dc       	movss  xmm2,DWORD PTR [rbp-0x24]
     4e3:	f3 0f 5c d0          	subss  xmm2,xmm0
     4e7:	0f 28 c2             	movaps xmm0,xmm2
     4ea:	f3 0f 5a c0          	cvtss2sd xmm0,xmm0
     4ee:	f2 0f 10 0d 00 00 00 	movsd  xmm1,QWORD PTR [rip+0x0]        # 4f6 <_Z4diffR4mat2S0_+0xba>
     4f5:	00 
     4f6:	e8 00 00 00 00       	call   4fb <_Z4diffR4mat2S0_+0xbf>
     4fb:	66 0f 28 c8          	movapd xmm1,xmm0
     4ff:	f3 0f 5a 45 f4       	cvtss2sd xmm0,DWORD PTR [rbp-0xc]
     504:	f2 0f 58 c1          	addsd  xmm0,xmm1
     508:	f2 0f 5a e8          	cvtsd2ss xmm5,xmm0
     50c:	f3 0f 11 6d f4       	movss  DWORD PTR [rbp-0xc],xmm5
     511:	83 45 fc 01          	add    DWORD PTR [rbp-0x4],0x1
     515:	e9 72 ff ff ff       	jmp    48c <_Z4diffR4mat2S0_+0x50>
     51a:	83 45 f8 01          	add    DWORD PTR [rbp-0x8],0x1
     51e:	e9 39 ff ff ff       	jmp    45c <_Z4diffR4mat2S0_+0x20>
     523:	f3 0f 5a 45 f4       	cvtss2sd xmm0,DWORD PTR [rbp-0xc]
     528:	e8 00 00 00 00       	call   52d <_Z4diffR4mat2S0_+0xf1>
     52d:	f2 0f 5a c0          	cvtsd2ss xmm0,xmm0
     531:	c9                   	leave  
     532:	c3                   	ret    
     533:	90                   	nop

0000000000000534 <_ZN4mat211confAndInitEiif>:
     534:	55                   	push   rbp
     535:	48 89 e5             	mov    rbp,rsp
     538:	48 83 ec 20          	sub    rsp,0x20
     53c:	48 89 7d f8          	mov    QWORD PTR [rbp-0x8],rdi
     540:	89 75 f4             	mov    DWORD PTR [rbp-0xc],esi
     543:	89 55 f0             	mov    DWORD PTR [rbp-0x10],edx
     546:	f3 0f 11 45 ec       	movss  DWORD PTR [rbp-0x14],xmm0
     54b:	48 8b 45 f8          	mov    rax,QWORD PTR [rbp-0x8]
     54f:	8b 55 f4             	mov    edx,DWORD PTR [rbp-0xc]
     552:	89 50 08             	mov    DWORD PTR [rax+0x8],edx
     555:	48 8b 45 f8          	mov    rax,QWORD PTR [rbp-0x8]
     559:	8b 55 f0             	mov    edx,DWORD PTR [rbp-0x10]
     55c:	89 50 0c             	mov    DWORD PTR [rax+0xc],edx
     55f:	8b 55 ec             	mov    edx,DWORD PTR [rbp-0x14]
     562:	48 8b 45 f8          	mov    rax,QWORD PTR [rbp-0x8]
     566:	89 55 e8             	mov    DWORD PTR [rbp-0x18],edx
     569:	f3 0f 10 45 e8       	movss  xmm0,DWORD PTR [rbp-0x18]
     56e:	48 89 c7             	mov    rdi,rax
     571:	e8 00 00 00 00       	call   576 <_ZN4mat211confAndInitEiif+0x42>
     576:	90                   	nop
     577:	c9                   	leave  
     578:	c3                   	ret    
     579:	90                   	nop

000000000000057a <_ZN2io5forceEv>:
     57a:	55                   	push   rbp
     57b:	48 89 e5             	mov    rbp,rsp
     57e:	48 83 ec 10          	sub    rsp,0x10
     582:	48 89 7d f8          	mov    QWORD PTR [rbp-0x8],rdi
     586:	48 8b 45 f8          	mov    rax,QWORD PTR [rbp-0x8]
     58a:	48 83 c0 40          	add    rax,0x40
     58e:	be 00 00 00 00       	mov    esi,0x0
     593:	48 89 c7             	mov    rdi,rax
     596:	e8 00 00 00 00       	call   59b <_ZN2io5forceEv+0x21>
     59b:	90                   	nop
     59c:	c9                   	leave  
     59d:	c3                   	ret    

000000000000059e <_ZN2ioC1ENSt7__cxx1112basic_stringIcSt11char_traitsIcESaIcEEES5_>:
     59e:	55                   	push   rbp
     59f:	48 89 e5             	mov    rbp,rsp
     5a2:	53                   	push   rbx
     5a3:	48 83 ec 28          	sub    rsp,0x28
     5a7:	48 89 7d e8          	mov    QWORD PTR [rbp-0x18],rdi
     5ab:	48 89 75 e0          	mov    QWORD PTR [rbp-0x20],rsi
     5af:	48 89 55 d8          	mov    QWORD PTR [rbp-0x28],rdx
     5b3:	48 8b 45 e8          	mov    rax,QWORD PTR [rbp-0x18]
     5b7:	48 89 c7             	mov    rdi,rax
     5ba:	e8 00 00 00 00       	call   5bf <_ZN2ioC1ENSt7__cxx1112basic_stringIcSt11char_traitsIcESaIcEEES5_+0x21>
     5bf:	48 8b 45 e8          	mov    rax,QWORD PTR [rbp-0x18]
     5c3:	48 83 c0 20          	add    rax,0x20
     5c7:	48 89 c7             	mov    rdi,rax
     5ca:	e8 00 00 00 00       	call   5cf <_ZN2ioC1ENSt7__cxx1112basic_stringIcSt11char_traitsIcESaIcEEES5_+0x31>
     5cf:	48 8b 45 e8          	mov    rax,QWORD PTR [rbp-0x18]
     5d3:	48 83 c0 40          	add    rax,0x40
     5d7:	48 89 c7             	mov    rdi,rax
     5da:	e8 00 00 00 00       	call   5df <_ZN2ioC1ENSt7__cxx1112basic_stringIcSt11char_traitsIcESaIcEEES5_+0x41>
     5df:	48 8b 45 e8          	mov    rax,QWORD PTR [rbp-0x18]
     5e3:	48 05 40 02 00 00    	add    rax,0x240
     5e9:	48 89 c7             	mov    rdi,rax
     5ec:	e8 00 00 00 00       	call   5f1 <_ZN2ioC1ENSt7__cxx1112basic_stringIcSt11char_traitsIcESaIcEEES5_+0x53>
     5f1:	48 8b 45 e8          	mov    rax,QWORD PTR [rbp-0x18]
     5f5:	48 8b 55 d8          	mov    rdx,QWORD PTR [rbp-0x28]
     5f9:	48 89 d6             	mov    rsi,rdx
     5fc:	48 89 c7             	mov    rdi,rax
     5ff:	e8 00 00 00 00       	call   604 <_ZN2ioC1ENSt7__cxx1112basic_stringIcSt11char_traitsIcESaIcEEES5_+0x66>
     604:	48 8b 45 e8          	mov    rax,QWORD PTR [rbp-0x18]
     608:	48 8d 50 20          	lea    rdx,[rax+0x20]
     60c:	48 8b 45 e0          	mov    rax,QWORD PTR [rbp-0x20]
     610:	48 89 c6             	mov    rsi,rax
     613:	48 89 d7             	mov    rdi,rdx
     616:	e8 00 00 00 00       	call   61b <_ZN2ioC1ENSt7__cxx1112basic_stringIcSt11char_traitsIcESaIcEEES5_+0x7d>
     61b:	48 8b 45 e8          	mov    rax,QWORD PTR [rbp-0x18]
     61f:	be 00 00 00 00       	mov    esi,0x0
     624:	48 89 c7             	mov    rdi,rax
     627:	e8 00 00 00 00       	call   62c <_ZN2ioC1ENSt7__cxx1112basic_stringIcSt11char_traitsIcESaIcEEES5_+0x8e>
     62c:	84 c0                	test   al,al
     62e:	74 27                	je     657 <_ZN2ioC1ENSt7__cxx1112basic_stringIcSt11char_traitsIcESaIcEEES5_+0xb9>
     630:	48 8b 45 e8          	mov    rax,QWORD PTR [rbp-0x18]
     634:	48 8d 48 20          	lea    rcx,[rax+0x20]
     638:	48 8b 45 e8          	mov    rax,QWORD PTR [rbp-0x18]
     63c:	48 05 40 02 00 00    	add    rax,0x240
     642:	ba 08 00 00 00       	mov    edx,0x8
     647:	48 89 ce             	mov    rsi,rcx
     64a:	48 89 c7             	mov    rdi,rax
     64d:	e8 00 00 00 00       	call   652 <_ZN2ioC1ENSt7__cxx1112basic_stringIcSt11char_traitsIcESaIcEEES5_+0xb4>
     652:	e9 09 01 00 00       	jmp    760 <_ZN2ioC1ENSt7__cxx1112basic_stringIcSt11char_traitsIcESaIcEEES5_+0x1c2>
     657:	48 8b 45 e8          	mov    rax,QWORD PTR [rbp-0x18]
     65b:	be 00 00 00 00       	mov    esi,0x0
     660:	48 89 c7             	mov    rdi,rax
     663:	e8 00 00 00 00       	call   668 <_ZN2ioC1ENSt7__cxx1112basic_stringIcSt11char_traitsIcESaIcEEES5_+0xca>
     668:	84 c0                	test   al,al
     66a:	74 31                	je     69d <_ZN2ioC1ENSt7__cxx1112basic_stringIcSt11char_traitsIcESaIcEEES5_+0xff>
     66c:	be 20 00 00 00       	mov    esi,0x20
     671:	bf 10 00 00 00       	mov    edi,0x10
     676:	e8 00 00 00 00       	call   67b <_ZN2ioC1ENSt7__cxx1112basic_stringIcSt11char_traitsIcESaIcEEES5_+0xdd>
     67b:	89 c2                	mov    edx,eax
     67d:	48 8b 45 e8          	mov    rax,QWORD PTR [rbp-0x18]
     681:	48 8d 48 20          	lea    rcx,[rax+0x20]
     685:	48 8b 45 e8          	mov    rax,QWORD PTR [rbp-0x18]
     689:	48 83 c0 40          	add    rax,0x40
     68d:	48 89 ce             	mov    rsi,rcx
     690:	48 89 c7             	mov    rdi,rax
     693:	e8 00 00 00 00       	call   698 <_ZN2ioC1ENSt7__cxx1112basic_stringIcSt11char_traitsIcESaIcEEES5_+0xfa>
     698:	e9 c3 00 00 00       	jmp    760 <_ZN2ioC1ENSt7__cxx1112basic_stringIcSt11char_traitsIcESaIcEEES5_+0x1c2>
     69d:	48 8b 45 d8          	mov    rax,QWORD PTR [rbp-0x28]
     6a1:	be 00 00 00 00       	mov    esi,0x0
     6a6:	48 89 c7             	mov    rdi,rax
     6a9:	e8 00 00 00 00       	call   6ae <_ZN2ioC1ENSt7__cxx1112basic_stringIcSt11char_traitsIcESaIcEEES5_+0x110>
     6ae:	84 c0                	test   al,al
     6b0:	74 3a                	je     6ec <_ZN2ioC1ENSt7__cxx1112basic_stringIcSt11char_traitsIcESaIcEEES5_+0x14e>
     6b2:	be 10 00 00 00       	mov    esi,0x10
     6b7:	bf 08 00 00 00       	mov    edi,0x8
     6bc:	e8 00 00 00 00       	call   6c1 <_ZN2ioC1ENSt7__cxx1112basic_stringIcSt11char_traitsIcESaIcEEES5_+0x123>
     6c1:	be 01 00 00 00       	mov    esi,0x1
     6c6:	89 c7                	mov    edi,eax
     6c8:	e8 00 00 00 00       	call   6cd <_ZN2ioC1ENSt7__cxx1112basic_stringIcSt11char_traitsIcESaIcEEES5_+0x12f>
     6cd:	89 c2                	mov    edx,eax
     6cf:	48 8b 45 e8          	mov    rax,QWORD PTR [rbp-0x18]
     6d3:	48 8d 48 20          	lea    rcx,[rax+0x20]
     6d7:	48 8b 45 e8          	mov    rax,QWORD PTR [rbp-0x18]
     6db:	48 83 c0 40          	add    rax,0x40
     6df:	48 89 ce             	mov    rsi,rcx
     6e2:	48 89 c7             	mov    rdi,rax
     6e5:	e8 00 00 00 00       	call   6ea <_ZN2ioC1ENSt7__cxx1112basic_stringIcSt11char_traitsIcESaIcEEES5_+0x14c>
     6ea:	eb 74                	jmp    760 <_ZN2ioC1ENSt7__cxx1112basic_stringIcSt11char_traitsIcESaIcEEES5_+0x1c2>
     6ec:	be 00 00 00 00       	mov    esi,0x0
     6f1:	bf 00 00 00 00       	mov    edi,0x0
     6f6:	e8 00 00 00 00       	call   6fb <_ZN2ioC1ENSt7__cxx1112basic_stringIcSt11char_traitsIcESaIcEEES5_+0x15d>
     6fb:	be 00 00 00 00       	mov    esi,0x0
     700:	48 89 c7             	mov    rdi,rax
     703:	e8 00 00 00 00       	call   708 <_ZN2ioC1ENSt7__cxx1112basic_stringIcSt11char_traitsIcESaIcEEES5_+0x16a>
     708:	eb 56                	jmp    760 <_ZN2ioC1ENSt7__cxx1112basic_stringIcSt11char_traitsIcESaIcEEES5_+0x1c2>
     70a:	48 89 c3             	mov    rbx,rax
     70d:	48 8b 45 e8          	mov    rax,QWORD PTR [rbp-0x18]
     711:	48 05 40 02 00 00    	add    rax,0x240
     717:	48 89 c7             	mov    rdi,rax
     71a:	e8 00 00 00 00       	call   71f <_ZN2ioC1ENSt7__cxx1112basic_stringIcSt11char_traitsIcESaIcEEES5_+0x181>
     71f:	eb 03                	jmp    724 <_ZN2ioC1ENSt7__cxx1112basic_stringIcSt11char_traitsIcESaIcEEES5_+0x186>
     721:	48 89 c3             	mov    rbx,rax
     724:	48 8b 45 e8          	mov    rax,QWORD PTR [rbp-0x18]
     728:	48 83 c0 40          	add    rax,0x40
     72c:	48 89 c7             	mov    rdi,rax
     72f:	e8 00 00 00 00       	call   734 <_ZN2ioC1ENSt7__cxx1112basic_stringIcSt11char_traitsIcESaIcEEES5_+0x196>
     734:	eb 03                	jmp    739 <_ZN2ioC1ENSt7__cxx1112basic_stringIcSt11char_traitsIcESaIcEEES5_+0x19b>
     736:	48 89 c3             	mov    rbx,rax
     739:	48 8b 45 e8          	mov    rax,QWORD PTR [rbp-0x18]
     73d:	48 83 c0 20          	add    rax,0x20
     741:	48 89 c7             	mov    rdi,rax
     744:	e8 00 00 00 00       	call   749 <_ZN2ioC1ENSt7__cxx1112basic_stringIcSt11char_traitsIcESaIcEEES5_+0x1ab>
     749:	48 8b 45 e8          	mov    rax,QWORD PTR [rbp-0x18]
     74d:	48 89 c7             	mov    rdi,rax
     750:	e8 00 00 00 00       	call   755 <_ZN2ioC1ENSt7__cxx1112basic_stringIcSt11char_traitsIcESaIcEEES5_+0x1b7>
     755:	48 89 d8             	mov    rax,rbx
     758:	48 89 c7             	mov    rdi,rax
     75b:	e8 00 00 00 00       	call   760 <_ZN2ioC1ENSt7__cxx1112basic_stringIcSt11char_traitsIcESaIcEEES5_+0x1c2>
     760:	48 83 c4 28          	add    rsp,0x28
     764:	5b                   	pop    rbx
     765:	5d                   	pop    rbp
     766:	c3                   	ret    
     767:	90                   	nop

0000000000000768 <_ZN2ioD1Ev>:
     768:	55                   	push   rbp
     769:	48 89 e5             	mov    rbp,rsp
     76c:	48 83 ec 10          	sub    rsp,0x10
     770:	48 89 7d f8          	mov    QWORD PTR [rbp-0x8],rdi
     774:	48 8b 45 f8          	mov    rax,QWORD PTR [rbp-0x8]
     778:	48 83 c0 40          	add    rax,0x40
     77c:	48 89 c7             	mov    rdi,rax
     77f:	e8 00 00 00 00       	call   784 <_ZN2ioD1Ev+0x1c>
     784:	48 8b 45 f8          	mov    rax,QWORD PTR [rbp-0x8]
     788:	48 05 40 02 00 00    	add    rax,0x240
     78e:	48 89 c7             	mov    rdi,rax
     791:	e8 00 00 00 00       	call   796 <_ZN2ioD1Ev+0x2e>
     796:	48 8b 45 f8          	mov    rax,QWORD PTR [rbp-0x8]
     79a:	48 83 c0 40          	add    rax,0x40
     79e:	48 89 c7             	mov    rdi,rax
     7a1:	e8 00 00 00 00       	call   7a6 <_ZN2ioD1Ev+0x3e>
     7a6:	48 8b 45 f8          	mov    rax,QWORD PTR [rbp-0x8]
     7aa:	48 83 c0 20          	add    rax,0x20
     7ae:	48 89 c7             	mov    rdi,rax
     7b1:	e8 00 00 00 00       	call   7b6 <_ZN2ioD1Ev+0x4e>
     7b6:	48 8b 45 f8          	mov    rax,QWORD PTR [rbp-0x8]
     7ba:	48 89 c7             	mov    rdi,rax
     7bd:	e8 00 00 00 00       	call   7c2 <_ZN2ioD1Ev+0x5a>
     7c2:	90                   	nop
     7c3:	c9                   	leave  
     7c4:	c3                   	ret    
     7c5:	90                   	nop

00000000000007c6 <_ZN2io5writeENSt7__cxx1112basic_stringIcSt11char_traitsIcESaIcEEE>:
     7c6:	55                   	push   rbp
     7c7:	48 89 e5             	mov    rbp,rsp
     7ca:	48 83 ec 10          	sub    rsp,0x10
     7ce:	48 89 7d f8          	mov    QWORD PTR [rbp-0x8],rdi
     7d2:	48 89 75 f0          	mov    QWORD PTR [rbp-0x10],rsi
     7d6:	48 8b 45 f8          	mov    rax,QWORD PTR [rbp-0x8]
     7da:	be 00 00 00 00       	mov    esi,0x0
     7df:	48 89 c7             	mov    rdi,rax
     7e2:	e8 00 00 00 00       	call   7e7 <_ZN2io5writeENSt7__cxx1112basic_stringIcSt11char_traitsIcESaIcEEE+0x21>
     7e7:	84 c0                	test   al,al
     7e9:	74 1e                	je     809 <_ZN2io5writeENSt7__cxx1112basic_stringIcSt11char_traitsIcESaIcEEE+0x43>
     7eb:	be 00 00 00 00       	mov    esi,0x0
     7f0:	bf 00 00 00 00       	mov    edi,0x0
     7f5:	e8 00 00 00 00       	call   7fa <_ZN2io5writeENSt7__cxx1112basic_stringIcSt11char_traitsIcESaIcEEE+0x34>
     7fa:	be 00 00 00 00       	mov    esi,0x0
     7ff:	48 89 c7             	mov    rdi,rax
     802:	e8 00 00 00 00       	call   807 <_ZN2io5writeENSt7__cxx1112basic_stringIcSt11char_traitsIcESaIcEEE+0x41>
     807:	eb 17                	jmp    820 <_ZN2io5writeENSt7__cxx1112basic_stringIcSt11char_traitsIcESaIcEEE+0x5a>
     809:	48 8b 45 f8          	mov    rax,QWORD PTR [rbp-0x8]
     80d:	48 8d 50 40          	lea    rdx,[rax+0x40]
     811:	48 8b 45 f0          	mov    rax,QWORD PTR [rbp-0x10]
     815:	48 89 c6             	mov    rsi,rax
     818:	48 89 d7             	mov    rdi,rdx
     81b:	e8 00 00 00 00       	call   820 <_ZN2io5writeENSt7__cxx1112basic_stringIcSt11char_traitsIcESaIcEEE+0x5a>
     820:	c9                   	leave  
     821:	c3                   	ret    

0000000000000822 <_ZN2io10writeFloatEf>:
     822:	55                   	push   rbp
     823:	48 89 e5             	mov    rbp,rsp
     826:	48 83 ec 10          	sub    rsp,0x10
     82a:	48 89 7d f8          	mov    QWORD PTR [rbp-0x8],rdi
     82e:	f3 0f 11 45 f4       	movss  DWORD PTR [rbp-0xc],xmm0
     833:	48 8b 45 f8          	mov    rax,QWORD PTR [rbp-0x8]
     837:	be 00 00 00 00       	mov    esi,0x0
     83c:	48 89 c7             	mov    rdi,rax
     83f:	e8 00 00 00 00       	call   844 <_ZN2io10writeFloatEf+0x22>
     844:	84 c0                	test   al,al
     846:	74 1e                	je     866 <_ZN2io10writeFloatEf+0x44>
     848:	be 00 00 00 00       	mov    esi,0x0
     84d:	bf 00 00 00 00       	mov    edi,0x0
     852:	e8 00 00 00 00       	call   857 <_ZN2io10writeFloatEf+0x35>
     857:	be 00 00 00 00       	mov    esi,0x0
     85c:	48 89 c7             	mov    rdi,rax
     85f:	e8 00 00 00 00       	call   864 <_ZN2io10writeFloatEf+0x42>
     864:	eb 1b                	jmp    881 <_ZN2io10writeFloatEf+0x5f>
     866:	48 8b 45 f8          	mov    rax,QWORD PTR [rbp-0x8]
     86a:	48 8d 50 40          	lea    rdx,[rax+0x40]
     86e:	8b 45 f4             	mov    eax,DWORD PTR [rbp-0xc]
     871:	89 45 f0             	mov    DWORD PTR [rbp-0x10],eax
     874:	f3 0f 10 45 f0       	movss  xmm0,DWORD PTR [rbp-0x10]
     879:	48 89 d7             	mov    rdi,rdx
     87c:	e8 00 00 00 00       	call   881 <_ZN2io10writeFloatEf+0x5f>
     881:	c9                   	leave  
     882:	c3                   	ret    
     883:	90                   	nop

0000000000000884 <_ZN2io8writeIntEi>:
     884:	55                   	push   rbp
     885:	48 89 e5             	mov    rbp,rsp
     888:	48 83 ec 10          	sub    rsp,0x10
     88c:	48 89 7d f8          	mov    QWORD PTR [rbp-0x8],rdi
     890:	89 75 f4             	mov    DWORD PTR [rbp-0xc],esi
     893:	48 8b 45 f8          	mov    rax,QWORD PTR [rbp-0x8]
     897:	be 00 00 00 00       	mov    esi,0x0
     89c:	48 89 c7             	mov    rdi,rax
     89f:	e8 00 00 00 00       	call   8a4 <_ZN2io8writeIntEi+0x20>
     8a4:	84 c0                	test   al,al
     8a6:	74 1e                	je     8c6 <_ZN2io8writeIntEi+0x42>
     8a8:	be 00 00 00 00       	mov    esi,0x0
     8ad:	bf 00 00 00 00       	mov    edi,0x0
     8b2:	e8 00 00 00 00       	call   8b7 <_ZN2io8writeIntEi+0x33>
     8b7:	be 00 00 00 00       	mov    esi,0x0
     8bc:	48 89 c7             	mov    rdi,rax
     8bf:	e8 00 00 00 00       	call   8c4 <_ZN2io8writeIntEi+0x40>
     8c4:	eb 15                	jmp    8db <_ZN2io8writeIntEi+0x57>
     8c6:	48 8b 45 f8          	mov    rax,QWORD PTR [rbp-0x8]
     8ca:	48 8d 50 40          	lea    rdx,[rax+0x40]
     8ce:	8b 45 f4             	mov    eax,DWORD PTR [rbp-0xc]
     8d1:	89 c6                	mov    esi,eax
     8d3:	48 89 d7             	mov    rdi,rdx
     8d6:	e8 00 00 00 00       	call   8db <_ZN2io8writeIntEi+0x57>
     8db:	c9                   	leave  
     8dc:	c3                   	ret    
     8dd:	90                   	nop

00000000000008de <_ZN2io7newLineEv>:
     8de:	55                   	push   rbp
     8df:	48 89 e5             	mov    rbp,rsp
     8e2:	48 83 ec 10          	sub    rsp,0x10
     8e6:	48 89 7d f8          	mov    QWORD PTR [rbp-0x8],rdi
     8ea:	48 8b 45 f8          	mov    rax,QWORD PTR [rbp-0x8]
     8ee:	be 00 00 00 00       	mov    esi,0x0
     8f3:	48 89 c7             	mov    rdi,rax
     8f6:	e8 00 00 00 00       	call   8fb <_ZN2io7newLineEv+0x1d>
     8fb:	84 c0                	test   al,al
     8fd:	74 1e                	je     91d <_ZN2io7newLineEv+0x3f>
     8ff:	be 00 00 00 00       	mov    esi,0x0
     904:	bf 00 00 00 00       	mov    edi,0x0
     909:	e8 00 00 00 00       	call   90e <_ZN2io7newLineEv+0x30>
     90e:	be 00 00 00 00       	mov    esi,0x0
     913:	48 89 c7             	mov    rdi,rax
     916:	e8 00 00 00 00       	call   91b <_ZN2io7newLineEv+0x3d>
     91b:	eb 15                	jmp    932 <_ZN2io7newLineEv+0x54>
     91d:	48 8b 45 f8          	mov    rax,QWORD PTR [rbp-0x8]
     921:	48 83 c0 40          	add    rax,0x40
     925:	be 00 00 00 00       	mov    esi,0x0
     92a:	48 89 c7             	mov    rdi,rax
     92d:	e8 00 00 00 00       	call   932 <_ZN2io7newLineEv+0x54>
     932:	c9                   	leave  
     933:	c3                   	ret    

0000000000000934 <_ZN2io8readLineERNSt7__cxx1112basic_stringIcSt11char_traitsIcESaIcEEE>:
     934:	55                   	push   rbp
     935:	48 89 e5             	mov    rbp,rsp
     938:	48 83 ec 10          	sub    rsp,0x10
     93c:	48 89 7d f8          	mov    QWORD PTR [rbp-0x8],rdi
     940:	48 89 75 f0          	mov    QWORD PTR [rbp-0x10],rsi
     944:	48 8b 45 f8          	mov    rax,QWORD PTR [rbp-0x8]
     948:	be 00 00 00 00       	mov    esi,0x0
     94d:	48 89 c7             	mov    rdi,rax
     950:	e8 00 00 00 00       	call   955 <_ZN2io8readLineERNSt7__cxx1112basic_stringIcSt11char_traitsIcESaIcEEE+0x21>
     955:	84 c0                	test   al,al
     957:	74 23                	je     97c <_ZN2io8readLineERNSt7__cxx1112basic_stringIcSt11char_traitsIcESaIcEEE+0x48>
     959:	be 00 00 00 00       	mov    esi,0x0
     95e:	bf 00 00 00 00       	mov    edi,0x0
     963:	e8 00 00 00 00       	call   968 <_ZN2io8readLineERNSt7__cxx1112basic_stringIcSt11char_traitsIcESaIcEEE+0x34>
     968:	be 00 00 00 00       	mov    esi,0x0
     96d:	48 89 c7             	mov    rdi,rax
     970:	e8 00 00 00 00       	call   975 <_ZN2io8readLineERNSt7__cxx1112basic_stringIcSt11char_traitsIcESaIcEEE+0x41>
     975:	b8 00 00 00 00       	mov    eax,0x0
     97a:	eb 2f                	jmp    9ab <_ZN2io8readLineERNSt7__cxx1112basic_stringIcSt11char_traitsIcESaIcEEE+0x77>
     97c:	48 8b 45 f8          	mov    rax,QWORD PTR [rbp-0x8]
     980:	48 8d 90 40 02 00 00 	lea    rdx,[rax+0x240]
     987:	48 8b 45 f0          	mov    rax,QWORD PTR [rbp-0x10]
     98b:	48 89 c6             	mov    rsi,rax
     98e:	48 89 d7             	mov    rdi,rdx
     991:	e8 00 00 00 00       	call   996 <_ZN2io8readLineERNSt7__cxx1112basic_stringIcSt11char_traitsIcESaIcEEE+0x62>
     996:	48 8b 10             	mov    rdx,QWORD PTR [rax]
     999:	48 83 ea 18          	sub    rdx,0x18
     99d:	48 8b 12             	mov    rdx,QWORD PTR [rdx]
     9a0:	48 01 d0             	add    rax,rdx
     9a3:	48 89 c7             	mov    rdi,rax
     9a6:	e8 00 00 00 00       	call   9ab <_ZN2io8readLineERNSt7__cxx1112basic_stringIcSt11char_traitsIcESaIcEEE+0x77>
     9ab:	c9                   	leave  
     9ac:	c3                   	ret    
     9ad:	90                   	nop

00000000000009ae <_ZN2io8readWordERNSt7__cxx1112basic_stringIcSt11char_traitsIcESaIcEEE>:
     9ae:	55                   	push   rbp
     9af:	48 89 e5             	mov    rbp,rsp
     9b2:	48 83 ec 10          	sub    rsp,0x10
     9b6:	48 89 7d f8          	mov    QWORD PTR [rbp-0x8],rdi
     9ba:	48 89 75 f0          	mov    QWORD PTR [rbp-0x10],rsi
     9be:	48 8b 45 f8          	mov    rax,QWORD PTR [rbp-0x8]
     9c2:	be 00 00 00 00       	mov    esi,0x0
     9c7:	48 89 c7             	mov    rdi,rax
     9ca:	e8 00 00 00 00       	call   9cf <_ZN2io8readWordERNSt7__cxx1112basic_stringIcSt11char_traitsIcESaIcEEE+0x21>
     9cf:	84 c0                	test   al,al
     9d1:	74 23                	je     9f6 <_ZN2io8readWordERNSt7__cxx1112basic_stringIcSt11char_traitsIcESaIcEEE+0x48>
     9d3:	be 00 00 00 00       	mov    esi,0x0
     9d8:	bf 00 00 00 00       	mov    edi,0x0
     9dd:	e8 00 00 00 00       	call   9e2 <_ZN2io8readWordERNSt7__cxx1112basic_stringIcSt11char_traitsIcESaIcEEE+0x34>
     9e2:	be 00 00 00 00       	mov    esi,0x0
     9e7:	48 89 c7             	mov    rdi,rax
     9ea:	e8 00 00 00 00       	call   9ef <_ZN2io8readWordERNSt7__cxx1112basic_stringIcSt11char_traitsIcESaIcEEE+0x41>
     9ef:	b8 00 00 00 00       	mov    eax,0x0
     9f4:	eb 2f                	jmp    a25 <_ZN2io8readWordERNSt7__cxx1112basic_stringIcSt11char_traitsIcESaIcEEE+0x77>
     9f6:	48 8b 45 f8          	mov    rax,QWORD PTR [rbp-0x8]
     9fa:	48 8d 90 40 02 00 00 	lea    rdx,[rax+0x240]
     a01:	48 8b 45 f0          	mov    rax,QWORD PTR [rbp-0x10]
     a05:	48 89 c6             	mov    rsi,rax
     a08:	48 89 d7             	mov    rdi,rdx
     a0b:	e8 00 00 00 00       	call   a10 <_ZN2io8readWordERNSt7__cxx1112basic_stringIcSt11char_traitsIcESaIcEEE+0x62>
     a10:	48 8b 10             	mov    rdx,QWORD PTR [rax]
     a13:	48 83 ea 18          	sub    rdx,0x18
     a17:	48 8b 12             	mov    rdx,QWORD PTR [rdx]
     a1a:	48 01 d0             	add    rax,rdx
     a1d:	48 89 c7             	mov    rdi,rax
     a20:	e8 00 00 00 00       	call   a25 <_ZN2io8readWordERNSt7__cxx1112basic_stringIcSt11char_traitsIcESaIcEEE+0x77>
     a25:	c9                   	leave  
     a26:	c3                   	ret    
     a27:	90                   	nop

0000000000000a28 <_ZN2io9readFloatERf>:
     a28:	55                   	push   rbp
     a29:	48 89 e5             	mov    rbp,rsp
     a2c:	48 83 ec 10          	sub    rsp,0x10
     a30:	48 89 7d f8          	mov    QWORD PTR [rbp-0x8],rdi
     a34:	48 89 75 f0          	mov    QWORD PTR [rbp-0x10],rsi
     a38:	48 8b 45 f8          	mov    rax,QWORD PTR [rbp-0x8]
     a3c:	be 00 00 00 00       	mov    esi,0x0
     a41:	48 89 c7             	mov    rdi,rax
     a44:	e8 00 00 00 00       	call   a49 <_ZN2io9readFloatERf+0x21>
     a49:	84 c0                	test   al,al
     a4b:	74 23                	je     a70 <_ZN2io9readFloatERf+0x48>
     a4d:	be 00 00 00 00       	mov    esi,0x0
     a52:	bf 00 00 00 00       	mov    edi,0x0
     a57:	e8 00 00 00 00       	call   a5c <_ZN2io9readFloatERf+0x34>
     a5c:	be 00 00 00 00       	mov    esi,0x0
     a61:	48 89 c7             	mov    rdi,rax
     a64:	e8 00 00 00 00       	call   a69 <_ZN2io9readFloatERf+0x41>
     a69:	b8 00 00 00 00       	mov    eax,0x0
     a6e:	eb 2f                	jmp    a9f <_ZN2io9readFloatERf+0x77>
     a70:	48 8b 45 f8          	mov    rax,QWORD PTR [rbp-0x8]
     a74:	48 8d 90 40 02 00 00 	lea    rdx,[rax+0x240]
     a7b:	48 8b 45 f0          	mov    rax,QWORD PTR [rbp-0x10]
     a7f:	48 89 c6             	mov    rsi,rax
     a82:	48 89 d7             	mov    rdi,rdx
     a85:	e8 00 00 00 00       	call   a8a <_ZN2io9readFloatERf+0x62>
     a8a:	48 8b 10             	mov    rdx,QWORD PTR [rax]
     a8d:	48 83 ea 18          	sub    rdx,0x18
     a91:	48 8b 12             	mov    rdx,QWORD PTR [rdx]
     a94:	48 01 d0             	add    rax,rdx
     a97:	48 89 c7             	mov    rdi,rax
     a9a:	e8 00 00 00 00       	call   a9f <_ZN2io9readFloatERf+0x77>
     a9f:	c9                   	leave  
     aa0:	c3                   	ret    
     aa1:	90                   	nop

0000000000000aa2 <_ZN2io7readIntERi>:
     aa2:	55                   	push   rbp
     aa3:	48 89 e5             	mov    rbp,rsp
     aa6:	48 83 ec 10          	sub    rsp,0x10
     aaa:	48 89 7d f8          	mov    QWORD PTR [rbp-0x8],rdi
     aae:	48 89 75 f0          	mov    QWORD PTR [rbp-0x10],rsi
     ab2:	48 8b 45 f8          	mov    rax,QWORD PTR [rbp-0x8]
     ab6:	be 00 00 00 00       	mov    esi,0x0
     abb:	48 89 c7             	mov    rdi,rax
     abe:	e8 00 00 00 00       	call   ac3 <_ZN2io7readIntERi+0x21>
     ac3:	84 c0                	test   al,al
     ac5:	74 23                	je     aea <_ZN2io7readIntERi+0x48>
     ac7:	be 00 00 00 00       	mov    esi,0x0
     acc:	bf 00 00 00 00       	mov    edi,0x0
     ad1:	e8 00 00 00 00       	call   ad6 <_ZN2io7readIntERi+0x34>
     ad6:	be 00 00 00 00       	mov    esi,0x0
     adb:	48 89 c7             	mov    rdi,rax
     ade:	e8 00 00 00 00       	call   ae3 <_ZN2io7readIntERi+0x41>
     ae3:	b8 00 00 00 00       	mov    eax,0x0
     ae8:	eb 2f                	jmp    b19 <_ZN2io7readIntERi+0x77>
     aea:	48 8b 45 f8          	mov    rax,QWORD PTR [rbp-0x8]
     aee:	48 8d 90 40 02 00 00 	lea    rdx,[rax+0x240]
     af5:	48 8b 45 f0          	mov    rax,QWORD PTR [rbp-0x10]
     af9:	48 89 c6             	mov    rsi,rax
     afc:	48 89 d7             	mov    rdi,rdx
     aff:	e8 00 00 00 00       	call   b04 <_ZN2io7readIntERi+0x62>
     b04:	48 8b 10             	mov    rdx,QWORD PTR [rax]
     b07:	48 83 ea 18          	sub    rdx,0x18
     b0b:	48 8b 12             	mov    rdx,QWORD PTR [rdx]
     b0e:	48 01 d0             	add    rax,rdx
     b11:	48 89 c7             	mov    rdi,rax
     b14:	e8 00 00 00 00       	call   b19 <_ZN2io7readIntERi+0x77>
     b19:	c9                   	leave  
     b1a:	c3                   	ret    
     b1b:	90                   	nop

0000000000000b1c <_ZN2io8readBoolERb>:
     b1c:	55                   	push   rbp
     b1d:	48 89 e5             	mov    rbp,rsp
     b20:	48 83 ec 10          	sub    rsp,0x10
     b24:	48 89 7d f8          	mov    QWORD PTR [rbp-0x8],rdi
     b28:	48 89 75 f0          	mov    QWORD PTR [rbp-0x10],rsi
     b2c:	48 8b 45 f8          	mov    rax,QWORD PTR [rbp-0x8]
     b30:	be 00 00 00 00       	mov    esi,0x0
     b35:	48 89 c7             	mov    rdi,rax
     b38:	e8 00 00 00 00       	call   b3d <_ZN2io8readBoolERb+0x21>
     b3d:	84 c0                	test   al,al
     b3f:	74 23                	je     b64 <_ZN2io8readBoolERb+0x48>
     b41:	be 00 00 00 00       	mov    esi,0x0
     b46:	bf 00 00 00 00       	mov    edi,0x0
     b4b:	e8 00 00 00 00       	call   b50 <_ZN2io8readBoolERb+0x34>
     b50:	be 00 00 00 00       	mov    esi,0x0
     b55:	48 89 c7             	mov    rdi,rax
     b58:	e8 00 00 00 00       	call   b5d <_ZN2io8readBoolERb+0x41>
     b5d:	b8 00 00 00 00       	mov    eax,0x0
     b62:	eb 2f                	jmp    b93 <_ZN2io8readBoolERb+0x77>
     b64:	48 8b 45 f8          	mov    rax,QWORD PTR [rbp-0x8]
     b68:	48 8d 90 40 02 00 00 	lea    rdx,[rax+0x240]
     b6f:	48 8b 45 f0          	mov    rax,QWORD PTR [rbp-0x10]
     b73:	48 89 c6             	mov    rsi,rax
     b76:	48 89 d7             	mov    rdi,rdx
     b79:	e8 00 00 00 00       	call   b7e <_ZN2io8readBoolERb+0x62>
     b7e:	48 8b 10             	mov    rdx,QWORD PTR [rax]
     b81:	48 83 ea 18          	sub    rdx,0x18
     b85:	48 8b 12             	mov    rdx,QWORD PTR [rdx]
     b88:	48 01 d0             	add    rax,rdx
     b8b:	48 89 c7             	mov    rdi,rax
     b8e:	e8 00 00 00 00       	call   b93 <_ZN2io8readBoolERb+0x77>
     b93:	c9                   	leave  
     b94:	c3                   	ret    
     b95:	90                   	nop

0000000000000b96 <_ZN2io5closeEv>:
     b96:	55                   	push   rbp
     b97:	48 89 e5             	mov    rbp,rsp
     b9a:	48 83 ec 10          	sub    rsp,0x10
     b9e:	48 89 7d f8          	mov    QWORD PTR [rbp-0x8],rdi
     ba2:	48 8b 45 f8          	mov    rax,QWORD PTR [rbp-0x8]
     ba6:	48 05 40 02 00 00    	add    rax,0x240
     bac:	48 89 c7             	mov    rdi,rax
     baf:	e8 00 00 00 00       	call   bb4 <_ZN2io5closeEv+0x1e>
     bb4:	48 8b 45 f8          	mov    rax,QWORD PTR [rbp-0x8]
     bb8:	48 83 c0 40          	add    rax,0x40
     bbc:	48 89 c7             	mov    rdi,rax
     bbf:	e8 00 00 00 00       	call   bc4 <_ZN2io5closeEv+0x2e>
     bc4:	90                   	nop
     bc5:	c9                   	leave  
     bc6:	c3                   	ret    
     bc7:	90                   	nop

0000000000000bc8 <_ZN9simulatorC1Ev>:
     bc8:	55                   	push   rbp
     bc9:	48 89 e5             	mov    rbp,rsp
     bcc:	53                   	push   rbx
     bcd:	48 83 ec 58          	sub    rsp,0x58
     bd1:	48 89 7d a8          	mov    QWORD PTR [rbp-0x58],rdi
     bd5:	64 48 8b 04 25 28 00 	mov    rax,QWORD PTR fs:0x28
     bdc:	00 00 
     bde:	48 89 45 e8          	mov    QWORD PTR [rbp-0x18],rax
     be2:	31 c0                	xor    eax,eax
     be4:	bf 01 00 00 00       	mov    edi,0x1
     be9:	e8 00 00 00 00       	call   bee <_ZN9simulatorC1Ev+0x26>
     bee:	66 0f 28 c8          	movapd xmm1,xmm0
     bf2:	f2 0f 10 05 00 00 00 	movsd  xmm0,QWORD PTR [rip+0x0]        # bfa <_ZN9simulatorC1Ev+0x32>
     bf9:	00 
     bfa:	f2 0f 59 c1          	mulsd  xmm0,xmm1
     bfe:	f2 0f 5a c0          	cvtsd2ss xmm0,xmm0
     c02:	48 8b 45 a8          	mov    rax,QWORD PTR [rbp-0x58]
     c06:	f3 0f 11 40 40       	movss  DWORD PTR [rax+0x40],xmm0
     c0b:	48 8b 45 a8          	mov    rax,QWORD PTR [rbp-0x58]
     c0f:	48 05 b0 00 00 00    	add    rax,0xb0
     c15:	48 89 c7             	mov    rdi,rax
     c18:	e8 00 00 00 00       	call   c1d <_ZN9simulatorC1Ev+0x55>
     c1d:	48 8b 45 a8          	mov    rax,QWORD PTR [rbp-0x58]
     c21:	48 05 c0 00 00 00    	add    rax,0xc0
     c27:	48 89 c7             	mov    rdi,rax
     c2a:	e8 00 00 00 00       	call   c2f <_ZN9simulatorC1Ev+0x67>
     c2f:	48 8b 45 a8          	mov    rax,QWORD PTR [rbp-0x58]
     c33:	48 05 d0 00 00 00    	add    rax,0xd0
     c39:	48 89 c7             	mov    rdi,rax
     c3c:	e8 00 00 00 00       	call   c41 <_ZN9simulatorC1Ev+0x79>
     c41:	48 8b 45 a8          	mov    rax,QWORD PTR [rbp-0x58]
     c45:	48 05 e0 00 00 00    	add    rax,0xe0
     c4b:	48 89 c7             	mov    rdi,rax
     c4e:	e8 00 00 00 00       	call   c53 <_ZN9simulatorC1Ev+0x8b>
     c53:	48 8b 45 a8          	mov    rax,QWORD PTR [rbp-0x58]
     c57:	48 05 f0 00 00 00    	add    rax,0xf0
     c5d:	48 89 c7             	mov    rdi,rax
     c60:	e8 00 00 00 00       	call   c65 <_ZN9simulatorC1Ev+0x9d>
     c65:	48 8b 45 a8          	mov    rax,QWORD PTR [rbp-0x58]
     c69:	48 05 00 01 00 00    	add    rax,0x100
     c6f:	48 89 c7             	mov    rdi,rax
     c72:	e8 00 00 00 00       	call   c77 <_ZN9simulatorC1Ev+0xaf>
     c77:	48 8b 45 a8          	mov    rax,QWORD PTR [rbp-0x58]
     c7b:	48 05 10 01 00 00    	add    rax,0x110
     c81:	48 89 c7             	mov    rdi,rax
     c84:	e8 00 00 00 00       	call   c89 <_ZN9simulatorC1Ev+0xc1>
     c89:	48 8b 45 a8          	mov    rax,QWORD PTR [rbp-0x58]
     c8d:	48 05 20 01 00 00    	add    rax,0x120
     c93:	48 89 c7             	mov    rdi,rax
     c96:	e8 00 00 00 00       	call   c9b <_ZN9simulatorC1Ev+0xd3>
     c9b:	48 8b 45 a8          	mov    rax,QWORD PTR [rbp-0x58]
     c9f:	48 05 30 01 00 00    	add    rax,0x130
     ca5:	48 89 c7             	mov    rdi,rax
     ca8:	e8 00 00 00 00       	call   cad <_ZN9simulatorC1Ev+0xe5>
     cad:	48 8d 45 bf          	lea    rax,[rbp-0x41]
     cb1:	48 89 c7             	mov    rdi,rax
     cb4:	e8 00 00 00 00       	call   cb9 <_ZN9simulatorC1Ev+0xf1>
     cb9:	48 8d 55 bf          	lea    rdx,[rbp-0x41]
     cbd:	48 8d 45 c0          	lea    rax,[rbp-0x40]
     cc1:	be 00 00 00 00       	mov    esi,0x0
     cc6:	48 89 c7             	mov    rdi,rax
     cc9:	e8 00 00 00 00       	call   cce <_ZN9simulatorC1Ev+0x106>
     cce:	48 8d 55 c0          	lea    rdx,[rbp-0x40]
     cd2:	48 8b 45 a8          	mov    rax,QWORD PTR [rbp-0x58]
     cd6:	48 89 d6             	mov    rsi,rdx
     cd9:	48 89 c7             	mov    rdi,rax
     cdc:	e8 00 00 00 00       	call   ce1 <_ZN9simulatorC1Ev+0x119>
     ce1:	48 8d 45 c0          	lea    rax,[rbp-0x40]
     ce5:	48 89 c7             	mov    rdi,rax
     ce8:	e8 00 00 00 00       	call   ced <_ZN9simulatorC1Ev+0x125>
     ced:	48 8d 45 bf          	lea    rax,[rbp-0x41]
     cf1:	48 89 c7             	mov    rdi,rax
     cf4:	e8 00 00 00 00       	call   cf9 <_ZN9simulatorC1Ev+0x131>
     cf9:	48 8b 45 a8          	mov    rax,QWORD PTR [rbp-0x58]
     cfd:	f3 0f 10 40 14       	movss  xmm0,DWORD PTR [rax+0x14]
     d02:	48 8b 45 a8          	mov    rax,QWORD PTR [rbp-0x58]
     d06:	f3 0f 11 40 20       	movss  DWORD PTR [rax+0x20],xmm0
     d0b:	48 8b 45 a8          	mov    rax,QWORD PTR [rbp-0x58]
     d0f:	f3 0f 10 00          	movss  xmm0,DWORD PTR [rax]
     d13:	48 8b 45 a8          	mov    rax,QWORD PTR [rbp-0x58]
     d17:	f3 0f 10 48 14       	movss  xmm1,DWORD PTR [rax+0x14]
     d1c:	f3 0f 5e c1          	divss  xmm0,xmm1
     d20:	e8 00 00 00 00       	call   d25 <_ZN9simulatorC1Ev+0x15d>
     d25:	0f 28 c8             	movaps xmm1,xmm0
     d28:	f3 0f 10 05 00 00 00 	movss  xmm0,DWORD PTR [rip+0x0]        # d30 <_ZN9simulatorC1Ev+0x168>
     d2f:	00 
     d30:	f3 0f 58 c1          	addss  xmm0,xmm1
     d34:	f3 0f 2c d0          	cvttss2si edx,xmm0
     d38:	48 8b 45 a8          	mov    rax,QWORD PTR [rbp-0x58]
     d3c:	89 50 24             	mov    DWORD PTR [rax+0x24],edx
     d3f:	48 8b 45 a8          	mov    rax,QWORD PTR [rbp-0x58]
     d43:	f3 0f 10 40 04       	movss  xmm0,DWORD PTR [rax+0x4]
     d48:	48 8b 45 a8          	mov    rax,QWORD PTR [rbp-0x58]
     d4c:	f3 0f 10 48 18       	movss  xmm1,DWORD PTR [rax+0x18]
     d51:	f3 0f 5e c1          	divss  xmm0,xmm1
     d55:	e8 00 00 00 00       	call   d5a <_ZN9simulatorC1Ev+0x192>
     d5a:	0f 28 c8             	movaps xmm1,xmm0
     d5d:	f3 0f 10 05 00 00 00 	movss  xmm0,DWORD PTR [rip+0x0]        # d65 <_ZN9simulatorC1Ev+0x19d>
     d64:	00 
     d65:	f3 0f 58 c1          	addss  xmm0,xmm1
     d69:	f3 0f 2c d0          	cvttss2si edx,xmm0
     d6d:	48 8b 45 a8          	mov    rax,QWORD PTR [rbp-0x58]
     d71:	89 50 28             	mov    DWORD PTR [rax+0x28],edx
     d74:	48 8b 45 a8          	mov    rax,QWORD PTR [rbp-0x58]
     d78:	f3 0f 10 40 08       	movss  xmm0,DWORD PTR [rax+0x8]
     d7d:	48 8b 45 a8          	mov    rax,QWORD PTR [rbp-0x58]
     d81:	f3 0f 10 48 1c       	movss  xmm1,DWORD PTR [rax+0x1c]
     d86:	f3 0f 5e c1          	divss  xmm0,xmm1
     d8a:	e8 00 00 00 00       	call   d8f <_ZN9simulatorC1Ev+0x1c7>
     d8f:	0f 28 c8             	movaps xmm1,xmm0
     d92:	f3 0f 10 05 00 00 00 	movss  xmm0,DWORD PTR [rip+0x0]        # d9a <_ZN9simulatorC1Ev+0x1d2>
     d99:	00 
     d9a:	f3 0f 58 c1          	addss  xmm0,xmm1
     d9e:	f3 0f 2c d0          	cvttss2si edx,xmm0
     da2:	48 8b 45 a8          	mov    rax,QWORD PTR [rbp-0x58]
     da6:	89 50 2c             	mov    DWORD PTR [rax+0x2c],edx
     da9:	48 8b 45 a8          	mov    rax,QWORD PTR [rbp-0x58]
     dad:	f3 0f 10 00          	movss  xmm0,DWORD PTR [rax]
     db1:	f3 0f 5a c0          	cvtss2sd xmm0,xmm0
     db5:	f2 0f 10 0d 00 00 00 	movsd  xmm1,QWORD PTR [rip+0x0]        # dbd <_ZN9simulatorC1Ev+0x1f5>
     dbc:	00 
     dbd:	f2 0f 59 c1          	mulsd  xmm0,xmm1
     dc1:	48 8b 45 a8          	mov    rax,QWORD PTR [rbp-0x58]
     dc5:	f3 0f 10 48 0c       	movss  xmm1,DWORD PTR [rax+0xc]
     dca:	f3 0f 5a c9          	cvtss2sd xmm1,xmm1
     dce:	f2 0f 5e c1          	divsd  xmm0,xmm1
     dd2:	f2 0f 5a c0          	cvtsd2ss xmm0,xmm0
     dd6:	48 8b 45 a8          	mov    rax,QWORD PTR [rbp-0x58]
     dda:	f3 0f 11 80 40 01 00 	movss  DWORD PTR [rax+0x140],xmm0
     de1:	00 
     de2:	48 8b 45 a8          	mov    rax,QWORD PTR [rbp-0x58]
     de6:	8b 50 28             	mov    edx,DWORD PTR [rax+0x28]
     de9:	48 8b 45 a8          	mov    rax,QWORD PTR [rbp-0x58]
     ded:	8b 40 24             	mov    eax,DWORD PTR [rax+0x24]
     df0:	48 8b 4d a8          	mov    rcx,QWORD PTR [rbp-0x58]
     df4:	48 81 c1 b0 00 00 00 	add    rcx,0xb0
     dfb:	66 0f ef c0          	pxor   xmm0,xmm0
     dff:	89 c6                	mov    esi,eax
     e01:	48 89 cf             	mov    rdi,rcx
     e04:	e8 00 00 00 00       	call   e09 <_ZN9simulatorC1Ev+0x241>
     e09:	48 8b 45 a8          	mov    rax,QWORD PTR [rbp-0x58]
     e0d:	8b 50 28             	mov    edx,DWORD PTR [rax+0x28]
     e10:	48 8b 45 a8          	mov    rax,QWORD PTR [rbp-0x58]
     e14:	8b 40 24             	mov    eax,DWORD PTR [rax+0x24]
     e17:	48 8b 4d a8          	mov    rcx,QWORD PTR [rbp-0x58]
     e1b:	48 81 c1 c0 00 00 00 	add    rcx,0xc0
     e22:	66 0f ef c0          	pxor   xmm0,xmm0
     e26:	89 c6                	mov    esi,eax
     e28:	48 89 cf             	mov    rdi,rcx
     e2b:	e8 00 00 00 00       	call   e30 <_ZN9simulatorC1Ev+0x268>
     e30:	48 8b 45 a8          	mov    rax,QWORD PTR [rbp-0x58]
     e34:	8b 50 28             	mov    edx,DWORD PTR [rax+0x28]
     e37:	48 8b 45 a8          	mov    rax,QWORD PTR [rbp-0x58]
     e3b:	8b 40 24             	mov    eax,DWORD PTR [rax+0x24]
     e3e:	48 8b 4d a8          	mov    rcx,QWORD PTR [rbp-0x58]
     e42:	48 81 c1 d0 00 00 00 	add    rcx,0xd0
     e49:	f3 0f 10 05 00 00 00 	movss  xmm0,DWORD PTR [rip+0x0]        # e51 <_ZN9simulatorC1Ev+0x289>
     e50:	00 
     e51:	89 c6                	mov    esi,eax
     e53:	48 89 cf             	mov    rdi,rcx
     e56:	e8 00 00 00 00       	call   e5b <_ZN9simulatorC1Ev+0x293>
     e5b:	48 8b 45 a8          	mov    rax,QWORD PTR [rbp-0x58]
     e5f:	8b 50 28             	mov    edx,DWORD PTR [rax+0x28]
     e62:	48 8b 45 a8          	mov    rax,QWORD PTR [rbp-0x58]
     e66:	8b 40 24             	mov    eax,DWORD PTR [rax+0x24]
     e69:	48 8b 4d a8          	mov    rcx,QWORD PTR [rbp-0x58]
     e6d:	48 81 c1 e0 00 00 00 	add    rcx,0xe0
     e74:	66 0f ef c0          	pxor   xmm0,xmm0
     e78:	89 c6                	mov    esi,eax
     e7a:	48 89 cf             	mov    rdi,rcx
     e7d:	e8 00 00 00 00       	call   e82 <_ZN9simulatorC1Ev+0x2ba>
     e82:	48 8b 45 a8          	mov    rax,QWORD PTR [rbp-0x58]
     e86:	8b 50 28             	mov    edx,DWORD PTR [rax+0x28]
     e89:	48 8b 45 a8          	mov    rax,QWORD PTR [rbp-0x58]
     e8d:	8b 40 24             	mov    eax,DWORD PTR [rax+0x24]
     e90:	48 8b 4d a8          	mov    rcx,QWORD PTR [rbp-0x58]
     e94:	48 81 c1 f0 00 00 00 	add    rcx,0xf0
     e9b:	66 0f ef c0          	pxor   xmm0,xmm0
     e9f:	89 c6                	mov    esi,eax
     ea1:	48 89 cf             	mov    rdi,rcx
     ea4:	e8 00 00 00 00       	call   ea9 <_ZN9simulatorC1Ev+0x2e1>
     ea9:	48 8b 45 a8          	mov    rax,QWORD PTR [rbp-0x58]
     ead:	8b 50 28             	mov    edx,DWORD PTR [rax+0x28]
     eb0:	48 8b 45 a8          	mov    rax,QWORD PTR [rbp-0x58]
     eb4:	8b 40 24             	mov    eax,DWORD PTR [rax+0x24]
     eb7:	48 8b 4d a8          	mov    rcx,QWORD PTR [rbp-0x58]
     ebb:	48 81 c1 00 01 00 00 	add    rcx,0x100
     ec2:	f3 0f 10 05 00 00 00 	movss  xmm0,DWORD PTR [rip+0x0]        # eca <_ZN9simulatorC1Ev+0x302>
     ec9:	00 
     eca:	89 c6                	mov    esi,eax
     ecc:	48 89 cf             	mov    rdi,rcx
     ecf:	e8 00 00 00 00       	call   ed4 <_ZN9simulatorC1Ev+0x30c>
     ed4:	48 8b 45 a8          	mov    rax,QWORD PTR [rbp-0x58]
     ed8:	8b 50 28             	mov    edx,DWORD PTR [rax+0x28]
     edb:	48 8b 45 a8          	mov    rax,QWORD PTR [rbp-0x58]
     edf:	8b 40 24             	mov    eax,DWORD PTR [rax+0x24]
     ee2:	48 8b 4d a8          	mov    rcx,QWORD PTR [rbp-0x58]
     ee6:	48 81 c1 10 01 00 00 	add    rcx,0x110
     eed:	66 0f ef c0          	pxor   xmm0,xmm0
     ef1:	89 c6                	mov    esi,eax
     ef3:	48 89 cf             	mov    rdi,rcx
     ef6:	e8 00 00 00 00       	call   efb <_ZN9simulatorC1Ev+0x333>
     efb:	48 8b 45 a8          	mov    rax,QWORD PTR [rbp-0x58]
     eff:	8b 50 28             	mov    edx,DWORD PTR [rax+0x28]
     f02:	48 8b 45 a8          	mov    rax,QWORD PTR [rbp-0x58]
     f06:	8b 40 24             	mov    eax,DWORD PTR [rax+0x24]
     f09:	48 8b 4d a8          	mov    rcx,QWORD PTR [rbp-0x58]
     f0d:	48 81 c1 20 01 00 00 	add    rcx,0x120
     f14:	66 0f ef c0          	pxor   xmm0,xmm0
     f18:	89 c6                	mov    esi,eax
     f1a:	48 89 cf             	mov    rdi,rcx
     f1d:	e8 00 00 00 00       	call   f22 <_ZN9simulatorC1Ev+0x35a>
     f22:	48 8b 45 a8          	mov    rax,QWORD PTR [rbp-0x58]
     f26:	8b 50 28             	mov    edx,DWORD PTR [rax+0x28]
     f29:	48 8b 45 a8          	mov    rax,QWORD PTR [rbp-0x58]
     f2d:	8b 40 24             	mov    eax,DWORD PTR [rax+0x24]
     f30:	48 8b 4d a8          	mov    rcx,QWORD PTR [rbp-0x58]
     f34:	48 81 c1 30 01 00 00 	add    rcx,0x130
     f3b:	f3 0f 10 05 00 00 00 	movss  xmm0,DWORD PTR [rip+0x0]        # f43 <_ZN9simulatorC1Ev+0x37b>
     f42:	00 
     f43:	89 c6                	mov    esi,eax
     f45:	48 89 cf             	mov    rdi,rcx
     f48:	e8 00 00 00 00       	call   f4d <_ZN9simulatorC1Ev+0x385>
     f4d:	48 8b 45 a8          	mov    rax,QWORD PTR [rbp-0x58]
     f51:	c7 40 30 00 00 00 00 	mov    DWORD PTR [rax+0x30],0x0
     f58:	48 8b 45 a8          	mov    rax,QWORD PTR [rbp-0x58]
     f5c:	8b 40 24             	mov    eax,DWORD PTR [rax+0x24]
     f5f:	89 c2                	mov    edx,eax
     f61:	c1 ea 1f             	shr    edx,0x1f
     f64:	01 d0                	add    eax,edx
     f66:	d1 f8                	sar    eax,1
     f68:	66 0f ef c0          	pxor   xmm0,xmm0
     f6c:	f3 0f 2a c0          	cvtsi2ss xmm0,eax
     f70:	48 8b 45 a8          	mov    rax,QWORD PTR [rbp-0x58]
     f74:	f3 0f 11 40 34       	movss  DWORD PTR [rax+0x34],xmm0
     f79:	48 8b 45 a8          	mov    rax,QWORD PTR [rbp-0x58]
     f7d:	8b 40 28             	mov    eax,DWORD PTR [rax+0x28]
     f80:	89 c2                	mov    edx,eax
     f82:	c1 ea 1f             	shr    edx,0x1f
     f85:	01 d0                	add    eax,edx
     f87:	d1 f8                	sar    eax,1
     f89:	66 0f ef c0          	pxor   xmm0,xmm0
     f8d:	f3 0f 2a c0          	cvtsi2ss xmm0,eax
     f91:	48 8b 45 a8          	mov    rax,QWORD PTR [rbp-0x58]
     f95:	f3 0f 11 40 38       	movss  DWORD PTR [rax+0x38],xmm0
     f9a:	90                   	nop
     f9b:	48 8b 45 e8          	mov    rax,QWORD PTR [rbp-0x18]
     f9f:	64 48 33 04 25 28 00 	xor    rax,QWORD PTR fs:0x28
     fa6:	00 00 
     fa8:	0f 84 dc 00 00 00    	je     108a <_ZN9simulatorC1Ev+0x4c2>
     fae:	e9 d2 00 00 00       	jmp    1085 <_ZN9simulatorC1Ev+0x4bd>
     fb3:	48 89 c3             	mov    rbx,rax
     fb6:	48 8d 45 c0          	lea    rax,[rbp-0x40]
     fba:	48 89 c7             	mov    rdi,rax
     fbd:	e8 00 00 00 00       	call   fc2 <_ZN9simulatorC1Ev+0x3fa>
     fc2:	eb 03                	jmp    fc7 <_ZN9simulatorC1Ev+0x3ff>
     fc4:	48 89 c3             	mov    rbx,rax
     fc7:	48 8d 45 bf          	lea    rax,[rbp-0x41]
     fcb:	48 89 c7             	mov    rdi,rax
     fce:	e8 00 00 00 00       	call   fd3 <_ZN9simulatorC1Ev+0x40b>
     fd3:	eb 03                	jmp    fd8 <_ZN9simulatorC1Ev+0x410>
     fd5:	48 89 c3             	mov    rbx,rax
     fd8:	48 8b 45 a8          	mov    rax,QWORD PTR [rbp-0x58]
     fdc:	48 05 30 01 00 00    	add    rax,0x130
     fe2:	48 89 c7             	mov    rdi,rax
     fe5:	e8 00 00 00 00       	call   fea <_ZN9simulatorC1Ev+0x422>
     fea:	48 8b 45 a8          	mov    rax,QWORD PTR [rbp-0x58]
     fee:	48 05 20 01 00 00    	add    rax,0x120
     ff4:	48 89 c7             	mov    rdi,rax
     ff7:	e8 00 00 00 00       	call   ffc <_ZN9simulatorC1Ev+0x434>
     ffc:	48 8b 45 a8          	mov    rax,QWORD PTR [rbp-0x58]
    1000:	48 05 10 01 00 00    	add    rax,0x110
    1006:	48 89 c7             	mov    rdi,rax
    1009:	e8 00 00 00 00       	call   100e <_ZN9simulatorC1Ev+0x446>
    100e:	48 8b 45 a8          	mov    rax,QWORD PTR [rbp-0x58]
    1012:	48 05 00 01 00 00    	add    rax,0x100
    1018:	48 89 c7             	mov    rdi,rax
    101b:	e8 00 00 00 00       	call   1020 <_ZN9simulatorC1Ev+0x458>
    1020:	48 8b 45 a8          	mov    rax,QWORD PTR [rbp-0x58]
    1024:	48 05 f0 00 00 00    	add    rax,0xf0
    102a:	48 89 c7             	mov    rdi,rax
    102d:	e8 00 00 00 00       	call   1032 <_ZN9simulatorC1Ev+0x46a>
    1032:	48 8b 45 a8          	mov    rax,QWORD PTR [rbp-0x58]
    1036:	48 05 e0 00 00 00    	add    rax,0xe0
    103c:	48 89 c7             	mov    rdi,rax
    103f:	e8 00 00 00 00       	call   1044 <_ZN9simulatorC1Ev+0x47c>
    1044:	48 8b 45 a8          	mov    rax,QWORD PTR [rbp-0x58]
    1048:	48 05 d0 00 00 00    	add    rax,0xd0
    104e:	48 89 c7             	mov    rdi,rax
    1051:	e8 00 00 00 00       	call   1056 <_ZN9simulatorC1Ev+0x48e>
    1056:	48 8b 45 a8          	mov    rax,QWORD PTR [rbp-0x58]
    105a:	48 05 c0 00 00 00    	add    rax,0xc0
    1060:	48 89 c7             	mov    rdi,rax
    1063:	e8 00 00 00 00       	call   1068 <_ZN9simulatorC1Ev+0x4a0>
    1068:	48 8b 45 a8          	mov    rax,QWORD PTR [rbp-0x58]
    106c:	48 05 b0 00 00 00    	add    rax,0xb0
    1072:	48 89 c7             	mov    rdi,rax
    1075:	e8 00 00 00 00       	call   107a <_ZN9simulatorC1Ev+0x4b2>
    107a:	48 89 d8             	mov    rax,rbx
    107d:	48 89 c7             	mov    rdi,rax
    1080:	e8 00 00 00 00       	call   1085 <_ZN9simulatorC1Ev+0x4bd>
    1085:	e8 00 00 00 00       	call   108a <_ZN9simulatorC1Ev+0x4c2>
    108a:	48 83 c4 58          	add    rsp,0x58
    108e:	5b                   	pop    rbx
    108f:	5d                   	pop    rbp
    1090:	c3                   	ret    
    1091:	90                   	nop

0000000000001092 <_ZN9simulator14readParametersENSt7__cxx1112basic_stringIcSt11char_traitsIcESaIcEEE>:
    1092:	55                   	push   rbp
    1093:	48 89 e5             	mov    rbp,rsp
    1096:	53                   	push   rbx
    1097:	48 81 ec b8 04 00 00 	sub    rsp,0x4b8
    109e:	48 89 bd 48 fb ff ff 	mov    QWORD PTR [rbp-0x4b8],rdi
    10a5:	48 89 b5 40 fb ff ff 	mov    QWORD PTR [rbp-0x4c0],rsi
    10ac:	64 48 8b 04 25 28 00 	mov    rax,QWORD PTR fs:0x28
    10b3:	00 00 
    10b5:	48 89 45 e8          	mov    QWORD PTR [rbp-0x18],rax
    10b9:	31 c0                	xor    eax,eax
    10bb:	48 8d 85 5f fb ff ff 	lea    rax,[rbp-0x4a1]
    10c2:	48 89 c7             	mov    rdi,rax
    10c5:	e8 00 00 00 00       	call   10ca <_ZN9simulator14readParametersENSt7__cxx1112basic_stringIcSt11char_traitsIcESaIcEEE+0x38>
    10ca:	48 8d 95 5f fb ff ff 	lea    rdx,[rbp-0x4a1]
    10d1:	48 8d 85 80 fb ff ff 	lea    rax,[rbp-0x480]
    10d8:	be 00 00 00 00       	mov    esi,0x0
    10dd:	48 89 c7             	mov    rdi,rax
    10e0:	e8 00 00 00 00       	call   10e5 <_ZN9simulator14readParametersENSt7__cxx1112basic_stringIcSt11char_traitsIcESaIcEEE+0x53>
    10e5:	48 8b 95 40 fb ff ff 	mov    rdx,QWORD PTR [rbp-0x4c0]
    10ec:	48 8d 85 60 fb ff ff 	lea    rax,[rbp-0x4a0]
    10f3:	48 89 d6             	mov    rsi,rdx
    10f6:	48 89 c7             	mov    rdi,rax
    10f9:	e8 00 00 00 00       	call   10fe <_ZN9simulator14readParametersENSt7__cxx1112basic_stringIcSt11char_traitsIcESaIcEEE+0x6c>
    10fe:	48 8d 95 80 fb ff ff 	lea    rdx,[rbp-0x480]
    1105:	48 8d 8d 60 fb ff ff 	lea    rcx,[rbp-0x4a0]
    110c:	48 8d 85 a0 fb ff ff 	lea    rax,[rbp-0x460]
    1113:	48 89 ce             	mov    rsi,rcx
    1116:	48 89 c7             	mov    rdi,rax
    1119:	e8 00 00 00 00       	call   111e <_ZN9simulator14readParametersENSt7__cxx1112basic_stringIcSt11char_traitsIcESaIcEEE+0x8c>
    111e:	48 8d 85 60 fb ff ff 	lea    rax,[rbp-0x4a0]
    1125:	48 89 c7             	mov    rdi,rax
    1128:	e8 00 00 00 00       	call   112d <_ZN9simulator14readParametersENSt7__cxx1112basic_stringIcSt11char_traitsIcESaIcEEE+0x9b>
    112d:	48 8d 85 80 fb ff ff 	lea    rax,[rbp-0x480]
    1134:	48 89 c7             	mov    rdi,rax
    1137:	e8 00 00 00 00       	call   113c <_ZN9simulator14readParametersENSt7__cxx1112basic_stringIcSt11char_traitsIcESaIcEEE+0xaa>
    113c:	48 8d 85 5f fb ff ff 	lea    rax,[rbp-0x4a1]
    1143:	48 89 c7             	mov    rdi,rax
    1146:	e8 00 00 00 00       	call   114b <_ZN9simulator14readParametersENSt7__cxx1112basic_stringIcSt11char_traitsIcESaIcEEE+0xb9>
    114b:	48 8d 85 80 fb ff ff 	lea    rax,[rbp-0x480]
    1152:	48 89 c7             	mov    rdi,rax
    1155:	e8 00 00 00 00       	call   115a <_ZN9simulator14readParametersENSt7__cxx1112basic_stringIcSt11char_traitsIcESaIcEEE+0xc8>
    115a:	48 8d 95 80 fb ff ff 	lea    rdx,[rbp-0x480]
    1161:	48 8d 85 a0 fb ff ff 	lea    rax,[rbp-0x460]
    1168:	48 89 d6             	mov    rsi,rdx
    116b:	48 89 c7             	mov    rdi,rax
    116e:	e8 00 00 00 00       	call   1173 <_ZN9simulator14readParametersENSt7__cxx1112basic_stringIcSt11char_traitsIcESaIcEEE+0xe1>
    1173:	84 c0                	test   al,al
    1175:	0f 84 8a 02 00 00    	je     1405 <_ZN9simulator14readParametersENSt7__cxx1112basic_stringIcSt11char_traitsIcESaIcEEE+0x373>
    117b:	48 8d 85 80 fb ff ff 	lea    rax,[rbp-0x480]
    1182:	be 00 00 00 00       	mov    esi,0x0
    1187:	48 89 c7             	mov    rdi,rax
    118a:	e8 00 00 00 00       	call   118f <_ZN9simulator14readParametersENSt7__cxx1112basic_stringIcSt11char_traitsIcESaIcEEE+0xfd>
    118f:	84 c0                	test   al,al
    1191:	74 19                	je     11ac <_ZN9simulator14readParametersENSt7__cxx1112basic_stringIcSt11char_traitsIcESaIcEEE+0x11a>
    1193:	48 8b 95 48 fb ff ff 	mov    rdx,QWORD PTR [rbp-0x4b8]
    119a:	48 8d 85 a0 fb ff ff 	lea    rax,[rbp-0x460]
    11a1:	48 89 d6             	mov    rsi,rdx
    11a4:	48 89 c7             	mov    rdi,rax
    11a7:	e8 00 00 00 00       	call   11ac <_ZN9simulator14readParametersENSt7__cxx1112basic_stringIcSt11char_traitsIcESaIcEEE+0x11a>
    11ac:	48 8d 85 80 fb ff ff 	lea    rax,[rbp-0x480]
    11b3:	be 00 00 00 00       	mov    esi,0x0
    11b8:	48 89 c7             	mov    rdi,rax
    11bb:	e8 00 00 00 00       	call   11c0 <_ZN9simulator14readParametersENSt7__cxx1112basic_stringIcSt11char_traitsIcESaIcEEE+0x12e>
    11c0:	84 c0                	test   al,al
    11c2:	74 1d                	je     11e1 <_ZN9simulator14readParametersENSt7__cxx1112basic_stringIcSt11char_traitsIcESaIcEEE+0x14f>
    11c4:	48 8b 85 48 fb ff ff 	mov    rax,QWORD PTR [rbp-0x4b8]
    11cb:	48 8d 50 04          	lea    rdx,[rax+0x4]
    11cf:	48 8d 85 a0 fb ff ff 	lea    rax,[rbp-0x460]
    11d6:	48 89 d6             	mov    rsi,rdx
    11d9:	48 89 c7             	mov    rdi,rax
    11dc:	e8 00 00 00 00       	call   11e1 <_ZN9simulator14readParametersENSt7__cxx1112basic_stringIcSt11char_traitsIcESaIcEEE+0x14f>
    11e1:	48 8d 85 80 fb ff ff 	lea    rax,[rbp-0x480]
    11e8:	be 00 00 00 00       	mov    esi,0x0
    11ed:	48 89 c7             	mov    rdi,rax
    11f0:	e8 00 00 00 00       	call   11f5 <_ZN9simulator14readParametersENSt7__cxx1112basic_stringIcSt11char_traitsIcESaIcEEE+0x163>
    11f5:	84 c0                	test   al,al
    11f7:	74 1d                	je     1216 <_ZN9simulator14readParametersENSt7__cxx1112basic_stringIcSt11char_traitsIcESaIcEEE+0x184>
    11f9:	48 8b 85 48 fb ff ff 	mov    rax,QWORD PTR [rbp-0x4b8]
    1200:	48 8d 50 08          	lea    rdx,[rax+0x8]
    1204:	48 8d 85 a0 fb ff ff 	lea    rax,[rbp-0x460]
    120b:	48 89 d6             	mov    rsi,rdx
    120e:	48 89 c7             	mov    rdi,rax
    1211:	e8 00 00 00 00       	call   1216 <_ZN9simulator14readParametersENSt7__cxx1112basic_stringIcSt11char_traitsIcESaIcEEE+0x184>
    1216:	48 8d 85 80 fb ff ff 	lea    rax,[rbp-0x480]
    121d:	be 00 00 00 00       	mov    esi,0x0
    1222:	48 89 c7             	mov    rdi,rax
    1225:	e8 00 00 00 00       	call   122a <_ZN9simulator14readParametersENSt7__cxx1112basic_stringIcSt11char_traitsIcESaIcEEE+0x198>
    122a:	84 c0                	test   al,al
    122c:	74 1d                	je     124b <_ZN9simulator14readParametersENSt7__cxx1112basic_stringIcSt11char_traitsIcESaIcEEE+0x1b9>
    122e:	48 8b 85 48 fb ff ff 	mov    rax,QWORD PTR [rbp-0x4b8]
    1235:	48 8d 50 0c          	lea    rdx,[rax+0xc]
    1239:	48 8d 85 a0 fb ff ff 	lea    rax,[rbp-0x460]
    1240:	48 89 d6             	mov    rsi,rdx
    1243:	48 89 c7             	mov    rdi,rax
    1246:	e8 00 00 00 00       	call   124b <_ZN9simulator14readParametersENSt7__cxx1112basic_stringIcSt11char_traitsIcESaIcEEE+0x1b9>
    124b:	48 8d 85 80 fb ff ff 	lea    rax,[rbp-0x480]
    1252:	be 00 00 00 00       	mov    esi,0x0
    1257:	48 89 c7             	mov    rdi,rax
    125a:	e8 00 00 00 00       	call   125f <_ZN9simulator14readParametersENSt7__cxx1112basic_stringIcSt11char_traitsIcESaIcEEE+0x1cd>
    125f:	84 c0                	test   al,al
    1261:	74 1d                	je     1280 <_ZN9simulator14readParametersENSt7__cxx1112basic_stringIcSt11char_traitsIcESaIcEEE+0x1ee>
    1263:	48 8b 85 48 fb ff ff 	mov    rax,QWORD PTR [rbp-0x4b8]
    126a:	48 8d 50 10          	lea    rdx,[rax+0x10]
    126e:	48 8d 85 a0 fb ff ff 	lea    rax,[rbp-0x460]
    1275:	48 89 d6             	mov    rsi,rdx
    1278:	48 89 c7             	mov    rdi,rax
    127b:	e8 00 00 00 00       	call   1280 <_ZN9simulator14readParametersENSt7__cxx1112basic_stringIcSt11char_traitsIcESaIcEEE+0x1ee>
    1280:	48 8d 85 80 fb ff ff 	lea    rax,[rbp-0x480]
    1287:	be 00 00 00 00       	mov    esi,0x0
    128c:	48 89 c7             	mov    rdi,rax
    128f:	e8 00 00 00 00       	call   1294 <_ZN9simulator14readParametersENSt7__cxx1112basic_stringIcSt11char_traitsIcESaIcEEE+0x202>
    1294:	84 c0                	test   al,al
    1296:	74 1d                	je     12b5 <_ZN9simulator14readParametersENSt7__cxx1112basic_stringIcSt11char_traitsIcESaIcEEE+0x223>
    1298:	48 8b 85 48 fb ff ff 	mov    rax,QWORD PTR [rbp-0x4b8]
    129f:	48 8d 50 14          	lea    rdx,[rax+0x14]
    12a3:	48 8d 85 a0 fb ff ff 	lea    rax,[rbp-0x460]
    12aa:	48 89 d6             	mov    rsi,rdx
    12ad:	48 89 c7             	mov    rdi,rax
    12b0:	e8 00 00 00 00       	call   12b5 <_ZN9simulator14readParametersENSt7__cxx1112basic_stringIcSt11char_traitsIcESaIcEEE+0x223>
    12b5:	48 8d 85 80 fb ff ff 	lea    rax,[rbp-0x480]
    12bc:	be 00 00 00 00       	mov    esi,0x0
    12c1:	48 89 c7             	mov    rdi,rax
    12c4:	e8 00 00 00 00       	call   12c9 <_ZN9simulator14readParametersENSt7__cxx1112basic_stringIcSt11char_traitsIcESaIcEEE+0x237>
    12c9:	84 c0                	test   al,al
    12cb:	74 1d                	je     12ea <_ZN9simulator14readParametersENSt7__cxx1112basic_stringIcSt11char_traitsIcESaIcEEE+0x258>
    12cd:	48 8b 85 48 fb ff ff 	mov    rax,QWORD PTR [rbp-0x4b8]
    12d4:	48 8d 50 18          	lea    rdx,[rax+0x18]
    12d8:	48 8d 85 a0 fb ff ff 	lea    rax,[rbp-0x460]
    12df:	48 89 d6             	mov    rsi,rdx
    12e2:	48 89 c7             	mov    rdi,rax
    12e5:	e8 00 00 00 00       	call   12ea <_ZN9simulator14readParametersENSt7__cxx1112basic_stringIcSt11char_traitsIcESaIcEEE+0x258>
    12ea:	48 8d 85 80 fb ff ff 	lea    rax,[rbp-0x480]
    12f1:	be 00 00 00 00       	mov    esi,0x0
    12f6:	48 89 c7             	mov    rdi,rax
    12f9:	e8 00 00 00 00       	call   12fe <_ZN9simulator14readParametersENSt7__cxx1112basic_stringIcSt11char_traitsIcESaIcEEE+0x26c>
    12fe:	84 c0                	test   al,al
    1300:	74 1d                	je     131f <_ZN9simulator14readParametersENSt7__cxx1112basic_stringIcSt11char_traitsIcESaIcEEE+0x28d>
    1302:	48 8b 85 48 fb ff ff 	mov    rax,QWORD PTR [rbp-0x4b8]
    1309:	48 8d 50 1c          	lea    rdx,[rax+0x1c]
    130d:	48 8d 85 a0 fb ff ff 	lea    rax,[rbp-0x460]
    1314:	48 89 d6             	mov    rsi,rdx
    1317:	48 89 c7             	mov    rdi,rax
    131a:	e8 00 00 00 00       	call   131f <_ZN9simulator14readParametersENSt7__cxx1112basic_stringIcSt11char_traitsIcESaIcEEE+0x28d>
    131f:	48 8d 85 80 fb ff ff 	lea    rax,[rbp-0x480]
    1326:	be 00 00 00 00       	mov    esi,0x0
    132b:	48 89 c7             	mov    rdi,rax
    132e:	e8 00 00 00 00       	call   1333 <_ZN9simulator14readParametersENSt7__cxx1112basic_stringIcSt11char_traitsIcESaIcEEE+0x2a1>
    1333:	84 c0                	test   al,al
    1335:	74 1d                	je     1354 <_ZN9simulator14readParametersENSt7__cxx1112basic_stringIcSt11char_traitsIcESaIcEEE+0x2c2>
    1337:	48 8b 85 48 fb ff ff 	mov    rax,QWORD PTR [rbp-0x4b8]
    133e:	48 8d 50 3c          	lea    rdx,[rax+0x3c]
    1342:	48 8d 85 a0 fb ff ff 	lea    rax,[rbp-0x460]
    1349:	48 89 d6             	mov    rsi,rdx
    134c:	48 89 c7             	mov    rdi,rax
    134f:	e8 00 00 00 00       	call   1354 <_ZN9simulator14readParametersENSt7__cxx1112basic_stringIcSt11char_traitsIcESaIcEEE+0x2c2>
    1354:	48 8d 85 80 fb ff ff 	lea    rax,[rbp-0x480]
    135b:	be 00 00 00 00       	mov    esi,0x0
    1360:	48 89 c7             	mov    rdi,rax
    1363:	e8 00 00 00 00       	call   1368 <_ZN9simulator14readParametersENSt7__cxx1112basic_stringIcSt11char_traitsIcESaIcEEE+0x2d6>
    1368:	84 c0                	test   al,al
    136a:	74 20                	je     138c <_ZN9simulator14readParametersENSt7__cxx1112basic_stringIcSt11char_traitsIcESaIcEEE+0x2fa>
    136c:	48 8b 85 48 fb ff ff 	mov    rax,QWORD PTR [rbp-0x4b8]
    1373:	48 8d 90 a0 00 00 00 	lea    rdx,[rax+0xa0]
    137a:	48 8d 85 a0 fb ff ff 	lea    rax,[rbp-0x460]
    1381:	48 89 d6             	mov    rsi,rdx
    1384:	48 89 c7             	mov    rdi,rax
    1387:	e8 00 00 00 00       	call   138c <_ZN9simulator14readParametersENSt7__cxx1112basic_stringIcSt11char_traitsIcESaIcEEE+0x2fa>
    138c:	48 8d 85 80 fb ff ff 	lea    rax,[rbp-0x480]
    1393:	be 00 00 00 00       	mov    esi,0x0
    1398:	48 89 c7             	mov    rdi,rax
    139b:	e8 00 00 00 00       	call   13a0 <_ZN9simulator14readParametersENSt7__cxx1112basic_stringIcSt11char_traitsIcESaIcEEE+0x30e>
    13a0:	84 c0                	test   al,al
    13a2:	74 20                	je     13c4 <_ZN9simulator14readParametersENSt7__cxx1112basic_stringIcSt11char_traitsIcESaIcEEE+0x332>
    13a4:	48 8b 85 48 fb ff ff 	mov    rax,QWORD PTR [rbp-0x4b8]
    13ab:	48 8d 90 a4 00 00 00 	lea    rdx,[rax+0xa4]
    13b2:	48 8d 85 a0 fb ff ff 	lea    rax,[rbp-0x460]
    13b9:	48 89 d6             	mov    rsi,rdx
    13bc:	48 89 c7             	mov    rdi,rax
    13bf:	e8 00 00 00 00       	call   13c4 <_ZN9simulator14readParametersENSt7__cxx1112basic_stringIcSt11char_traitsIcESaIcEEE+0x332>
    13c4:	48 8d 85 80 fb ff ff 	lea    rax,[rbp-0x480]
    13cb:	be 00 00 00 00       	mov    esi,0x0
    13d0:	48 89 c7             	mov    rdi,rax
    13d3:	e8 00 00 00 00       	call   13d8 <_ZN9simulator14readParametersENSt7__cxx1112basic_stringIcSt11char_traitsIcESaIcEEE+0x346>
    13d8:	84 c0                	test   al,al
    13da:	0f 84 7a fd ff ff    	je     115a <_ZN9simulator14readParametersENSt7__cxx1112basic_stringIcSt11char_traitsIcESaIcEEE+0xc8>
    13e0:	48 8b 85 48 fb ff ff 	mov    rax,QWORD PTR [rbp-0x4b8]
    13e7:	48 8d 90 ac 00 00 00 	lea    rdx,[rax+0xac]
    13ee:	48 8d 85 a0 fb ff ff 	lea    rax,[rbp-0x460]
    13f5:	48 89 d6             	mov    rsi,rdx
    13f8:	48 89 c7             	mov    rdi,rax
    13fb:	e8 00 00 00 00       	call   1400 <_ZN9simulator14readParametersENSt7__cxx1112basic_stringIcSt11char_traitsIcESaIcEEE+0x36e>
    1400:	e9 55 fd ff ff       	jmp    115a <_ZN9simulator14readParametersENSt7__cxx1112basic_stringIcSt11char_traitsIcESaIcEEE+0xc8>
    1405:	48 8d 85 a0 fb ff ff 	lea    rax,[rbp-0x460]
    140c:	48 89 c7             	mov    rdi,rax
    140f:	e8 00 00 00 00       	call   1414 <_ZN9simulator14readParametersENSt7__cxx1112basic_stringIcSt11char_traitsIcESaIcEEE+0x382>
    1414:	48 8d 85 80 fb ff ff 	lea    rax,[rbp-0x480]
    141b:	48 89 c7             	mov    rdi,rax
    141e:	e8 00 00 00 00       	call   1423 <_ZN9simulator14readParametersENSt7__cxx1112basic_stringIcSt11char_traitsIcESaIcEEE+0x391>
    1423:	48 8d 85 a0 fb ff ff 	lea    rax,[rbp-0x460]
    142a:	48 89 c7             	mov    rdi,rax
    142d:	e8 00 00 00 00       	call   1432 <_ZN9simulator14readParametersENSt7__cxx1112basic_stringIcSt11char_traitsIcESaIcEEE+0x3a0>
    1432:	90                   	nop
    1433:	48 8b 45 e8          	mov    rax,QWORD PTR [rbp-0x18]
    1437:	64 48 33 04 25 28 00 	xor    rax,QWORD PTR fs:0x28
    143e:	00 00 
    1440:	74 78                	je     14ba <_ZN9simulator14readParametersENSt7__cxx1112basic_stringIcSt11char_traitsIcESaIcEEE+0x428>
    1442:	eb 71                	jmp    14b5 <_ZN9simulator14readParametersENSt7__cxx1112basic_stringIcSt11char_traitsIcESaIcEEE+0x423>
    1444:	48 89 c3             	mov    rbx,rax
    1447:	48 8d 85 60 fb ff ff 	lea    rax,[rbp-0x4a0]
    144e:	48 89 c7             	mov    rdi,rax
    1451:	e8 00 00 00 00       	call   1456 <_ZN9simulator14readParametersENSt7__cxx1112basic_stringIcSt11char_traitsIcESaIcEEE+0x3c4>
    1456:	eb 03                	jmp    145b <_ZN9simulator14readParametersENSt7__cxx1112basic_stringIcSt11char_traitsIcESaIcEEE+0x3c9>
    1458:	48 89 c3             	mov    rbx,rax
    145b:	48 8d 85 80 fb ff ff 	lea    rax,[rbp-0x480]
    1462:	48 89 c7             	mov    rdi,rax
    1465:	e8 00 00 00 00       	call   146a <_ZN9simulator14readParametersENSt7__cxx1112basic_stringIcSt11char_traitsIcESaIcEEE+0x3d8>
    146a:	eb 03                	jmp    146f <_ZN9simulator14readParametersENSt7__cxx1112basic_stringIcSt11char_traitsIcESaIcEEE+0x3dd>
    146c:	48 89 c3             	mov    rbx,rax
    146f:	48 8d 85 5f fb ff ff 	lea    rax,[rbp-0x4a1]
    1476:	48 89 c7             	mov    rdi,rax
    1479:	e8 00 00 00 00       	call   147e <_ZN9simulator14readParametersENSt7__cxx1112basic_stringIcSt11char_traitsIcESaIcEEE+0x3ec>
    147e:	48 89 d8             	mov    rax,rbx
    1481:	48 89 c7             	mov    rdi,rax
    1484:	e8 00 00 00 00       	call   1489 <_ZN9simulator14readParametersENSt7__cxx1112basic_stringIcSt11char_traitsIcESaIcEEE+0x3f7>
    1489:	48 89 c3             	mov    rbx,rax
    148c:	48 8d 85 80 fb ff ff 	lea    rax,[rbp-0x480]
    1493:	48 89 c7             	mov    rdi,rax
    1496:	e8 00 00 00 00       	call   149b <_ZN9simulator14readParametersENSt7__cxx1112basic_stringIcSt11char_traitsIcESaIcEEE+0x409>
    149b:	48 8d 85 a0 fb ff ff 	lea    rax,[rbp-0x460]
    14a2:	48 89 c7             	mov    rdi,rax
    14a5:	e8 00 00 00 00       	call   14aa <_ZN9simulator14readParametersENSt7__cxx1112basic_stringIcSt11char_traitsIcESaIcEEE+0x418>
    14aa:	48 89 d8             	mov    rax,rbx
    14ad:	48 89 c7             	mov    rdi,rax
    14b0:	e8 00 00 00 00       	call   14b5 <_ZN9simulator14readParametersENSt7__cxx1112basic_stringIcSt11char_traitsIcESaIcEEE+0x423>
    14b5:	e8 00 00 00 00       	call   14ba <_ZN9simulator14readParametersENSt7__cxx1112basic_stringIcSt11char_traitsIcESaIcEEE+0x428>
    14ba:	48 81 c4 b8 04 00 00 	add    rsp,0x4b8
    14c1:	5b                   	pop    rbx
    14c2:	5d                   	pop    rbp
    14c3:	c3                   	ret    

00000000000014c4 <_ZN9simulator19setCavityFlowSpeedsEv>:
    14c4:	55                   	push   rbp
    14c5:	48 89 e5             	mov    rbp,rsp
    14c8:	48 83 ec 18          	sub    rsp,0x18
    14cc:	48 89 7d e8          	mov    QWORD PTR [rbp-0x18],rdi
    14d0:	c7 45 fc 00 00 00 00 	mov    DWORD PTR [rbp-0x4],0x0
    14d7:	48 8b 45 e8          	mov    rax,QWORD PTR [rbp-0x18]
    14db:	8b 40 24             	mov    eax,DWORD PTR [rax+0x24]
    14de:	3b 45 fc             	cmp    eax,DWORD PTR [rbp-0x4]
    14e1:	0f 8e 87 00 00 00    	jle    156e <_ZN9simulator19setCavityFlowSpeedsEv+0xaa>
    14e7:	48 8b 45 e8          	mov    rax,QWORD PTR [rbp-0x18]
    14eb:	8b 40 28             	mov    eax,DWORD PTR [rax+0x28]
    14ee:	8d 50 ff             	lea    edx,[rax-0x1]
    14f1:	48 8b 45 e8          	mov    rax,QWORD PTR [rbp-0x18]
    14f5:	48 8d 88 b0 00 00 00 	lea    rcx,[rax+0xb0]
    14fc:	8b 45 fc             	mov    eax,DWORD PTR [rbp-0x4]
    14ff:	f3 0f 10 05 00 00 00 	movss  xmm0,DWORD PTR [rip+0x0]        # 1507 <_ZN9simulator19setCavityFlowSpeedsEv+0x43>
    1506:	00 
    1507:	89 c6                	mov    esi,eax
    1509:	48 89 cf             	mov    rdi,rcx
    150c:	e8 00 00 00 00       	call   1511 <_ZN9simulator19setCavityFlowSpeedsEv+0x4d>
    1511:	48 8b 45 e8          	mov    rax,QWORD PTR [rbp-0x18]
    1515:	8b 40 28             	mov    eax,DWORD PTR [rax+0x28]
    1518:	8d 50 ff             	lea    edx,[rax-0x1]
    151b:	48 8b 45 e8          	mov    rax,QWORD PTR [rbp-0x18]
    151f:	48 8d 88 e0 00 00 00 	lea    rcx,[rax+0xe0]
    1526:	8b 45 fc             	mov    eax,DWORD PTR [rbp-0x4]
    1529:	f3 0f 10 05 00 00 00 	movss  xmm0,DWORD PTR [rip+0x0]        # 1531 <_ZN9simulator19setCavityFlowSpeedsEv+0x6d>
    1530:	00 
    1531:	89 c6                	mov    esi,eax
    1533:	48 89 cf             	mov    rdi,rcx
    1536:	e8 00 00 00 00       	call   153b <_ZN9simulator19setCavityFlowSpeedsEv+0x77>
    153b:	48 8b 45 e8          	mov    rax,QWORD PTR [rbp-0x18]
    153f:	8b 40 28             	mov    eax,DWORD PTR [rax+0x28]
    1542:	8d 50 ff             	lea    edx,[rax-0x1]
    1545:	48 8b 45 e8          	mov    rax,QWORD PTR [rbp-0x18]
    1549:	48 8d 88 10 01 00 00 	lea    rcx,[rax+0x110]
    1550:	8b 45 fc             	mov    eax,DWORD PTR [rbp-0x4]
    1553:	f3 0f 10 05 00 00 00 	movss  xmm0,DWORD PTR [rip+0x0]        # 155b <_ZN9simulator19setCavityFlowSpeedsEv+0x97>
    155a:	00 
    155b:	89 c6                	mov    esi,eax
    155d:	48 89 cf             	mov    rdi,rcx
    1560:	e8 00 00 00 00       	call   1565 <_ZN9simulator19setCavityFlowSpeedsEv+0xa1>
    1565:	83 45 fc 01          	add    DWORD PTR [rbp-0x4],0x1
    1569:	e9 69 ff ff ff       	jmp    14d7 <_ZN9simulator19setCavityFlowSpeedsEv+0x13>
    156e:	90                   	nop
    156f:	c9                   	leave  
    1570:	c3                   	ret    
    1571:	90                   	nop

0000000000001572 <_ZN9simulator11setPBordersEv>:
    1572:	55                   	push   rbp
    1573:	48 89 e5             	mov    rbp,rsp
    1576:	48 83 ec 18          	sub    rsp,0x18
    157a:	48 89 7d e8          	mov    QWORD PTR [rbp-0x18],rdi
    157e:	c7 45 f8 00 00 00 00 	mov    DWORD PTR [rbp-0x8],0x0
    1585:	48 8b 45 e8          	mov    rax,QWORD PTR [rbp-0x18]
    1589:	8b 40 24             	mov    eax,DWORD PTR [rax+0x24]
    158c:	3b 45 f8             	cmp    eax,DWORD PTR [rbp-0x8]
    158f:	0f 8e 83 01 00 00    	jle    1718 <_ZN9simulator11setPBordersEv+0x1a6>
    1595:	48 8b 45 e8          	mov    rax,QWORD PTR [rbp-0x18]
    1599:	48 8d 88 d0 00 00 00 	lea    rcx,[rax+0xd0]
    15a0:	8b 45 f8             	mov    eax,DWORD PTR [rbp-0x8]
    15a3:	ba 01 00 00 00       	mov    edx,0x1
    15a8:	89 c6                	mov    esi,eax
    15aa:	48 89 cf             	mov    rdi,rcx
    15ad:	e8 00 00 00 00       	call   15b2 <_ZN9simulator11setPBordersEv+0x40>
    15b2:	48 8b 45 e8          	mov    rax,QWORD PTR [rbp-0x18]
    15b6:	48 8d 88 d0 00 00 00 	lea    rcx,[rax+0xd0]
    15bd:	8b 45 f8             	mov    eax,DWORD PTR [rbp-0x8]
    15c0:	ba 00 00 00 00       	mov    edx,0x0
    15c5:	89 c6                	mov    esi,eax
    15c7:	48 89 cf             	mov    rdi,rcx
    15ca:	e8 00 00 00 00       	call   15cf <_ZN9simulator11setPBordersEv+0x5d>
    15cf:	48 8b 45 e8          	mov    rax,QWORD PTR [rbp-0x18]
    15d3:	48 8d 88 00 01 00 00 	lea    rcx,[rax+0x100]
    15da:	8b 45 f8             	mov    eax,DWORD PTR [rbp-0x8]
    15dd:	ba 01 00 00 00       	mov    edx,0x1
    15e2:	89 c6                	mov    esi,eax
    15e4:	48 89 cf             	mov    rdi,rcx
    15e7:	e8 00 00 00 00       	call   15ec <_ZN9simulator11setPBordersEv+0x7a>
    15ec:	48 8b 45 e8          	mov    rax,QWORD PTR [rbp-0x18]
    15f0:	48 8d 88 00 01 00 00 	lea    rcx,[rax+0x100]
    15f7:	8b 45 f8             	mov    eax,DWORD PTR [rbp-0x8]
    15fa:	ba 00 00 00 00       	mov    edx,0x0
    15ff:	89 c6                	mov    esi,eax
    1601:	48 89 cf             	mov    rdi,rcx
    1604:	e8 00 00 00 00       	call   1609 <_ZN9simulator11setPBordersEv+0x97>
    1609:	48 8b 45 e8          	mov    rax,QWORD PTR [rbp-0x18]
    160d:	48 8d 88 30 01 00 00 	lea    rcx,[rax+0x130]
    1614:	8b 45 f8             	mov    eax,DWORD PTR [rbp-0x8]
    1617:	ba 01 00 00 00       	mov    edx,0x1
    161c:	89 c6                	mov    esi,eax
    161e:	48 89 cf             	mov    rdi,rcx
    1621:	e8 00 00 00 00       	call   1626 <_ZN9simulator11setPBordersEv+0xb4>
    1626:	48 8b 45 e8          	mov    rax,QWORD PTR [rbp-0x18]
    162a:	48 8d 88 30 01 00 00 	lea    rcx,[rax+0x130]
    1631:	8b 45 f8             	mov    eax,DWORD PTR [rbp-0x8]
    1634:	ba 00 00 00 00       	mov    edx,0x0
    1639:	89 c6                	mov    esi,eax
    163b:	48 89 cf             	mov    rdi,rcx
    163e:	e8 00 00 00 00       	call   1643 <_ZN9simulator11setPBordersEv+0xd1>
    1643:	48 8b 45 e8          	mov    rax,QWORD PTR [rbp-0x18]
    1647:	8b 40 28             	mov    eax,DWORD PTR [rax+0x28]
    164a:	8d 50 fe             	lea    edx,[rax-0x2]
    164d:	48 8b 45 e8          	mov    rax,QWORD PTR [rbp-0x18]
    1651:	48 8d 88 d0 00 00 00 	lea    rcx,[rax+0xd0]
    1658:	8b 45 f8             	mov    eax,DWORD PTR [rbp-0x8]
    165b:	89 c6                	mov    esi,eax
    165d:	48 89 cf             	mov    rdi,rcx
    1660:	e8 00 00 00 00       	call   1665 <_ZN9simulator11setPBordersEv+0xf3>
    1665:	48 8b 45 e8          	mov    rax,QWORD PTR [rbp-0x18]
    1669:	8b 40 28             	mov    eax,DWORD PTR [rax+0x28]
    166c:	8d 50 ff             	lea    edx,[rax-0x1]
    166f:	48 8b 45 e8          	mov    rax,QWORD PTR [rbp-0x18]
    1673:	48 8d 88 d0 00 00 00 	lea    rcx,[rax+0xd0]
    167a:	8b 45 f8             	mov    eax,DWORD PTR [rbp-0x8]
    167d:	89 c6                	mov    esi,eax
    167f:	48 89 cf             	mov    rdi,rcx
    1682:	e8 00 00 00 00       	call   1687 <_ZN9simulator11setPBordersEv+0x115>
    1687:	48 8b 45 e8          	mov    rax,QWORD PTR [rbp-0x18]
    168b:	8b 40 28             	mov    eax,DWORD PTR [rax+0x28]
    168e:	8d 50 fe             	lea    edx,[rax-0x2]
    1691:	48 8b 45 e8          	mov    rax,QWORD PTR [rbp-0x18]
    1695:	48 8d 88 00 01 00 00 	lea    rcx,[rax+0x100]
    169c:	8b 45 f8             	mov    eax,DWORD PTR [rbp-0x8]
    169f:	89 c6                	mov    esi,eax
    16a1:	48 89 cf             	mov    rdi,rcx
    16a4:	e8 00 00 00 00       	call   16a9 <_ZN9simulator11setPBordersEv+0x137>
    16a9:	48 8b 45 e8          	mov    rax,QWORD PTR [rbp-0x18]
    16ad:	8b 40 28             	mov    eax,DWORD PTR [rax+0x28]
    16b0:	8d 50 ff             	lea    edx,[rax-0x1]
    16b3:	48 8b 45 e8          	mov    rax,QWORD PTR [rbp-0x18]
    16b7:	48 8d 88 00 01 00 00 	lea    rcx,[rax+0x100]
    16be:	8b 45 f8             	mov    eax,DWORD PTR [rbp-0x8]
    16c1:	89 c6                	mov    esi,eax
    16c3:	48 89 cf             	mov    rdi,rcx
    16c6:	e8 00 00 00 00       	call   16cb <_ZN9simulator11setPBordersEv+0x159>
    16cb:	48 8b 45 e8          	mov    rax,QWORD PTR [rbp-0x18]
    16cf:	8b 40 28             	mov    eax,DWORD PTR [rax+0x28]
    16d2:	8d 50 fe             	lea    edx,[rax-0x2]
    16d5:	48 8b 45 e8          	mov    rax,QWORD PTR [rbp-0x18]
    16d9:	48 8d 88 30 01 00 00 	lea    rcx,[rax+0x130]
    16e0:	8b 45 f8             	mov    eax,DWORD PTR [rbp-0x8]
    16e3:	89 c6                	mov    esi,eax
    16e5:	48 89 cf             	mov    rdi,rcx
    16e8:	e8 00 00 00 00       	call   16ed <_ZN9simulator11setPBordersEv+0x17b>
    16ed:	48 8b 45 e8          	mov    rax,QWORD PTR [rbp-0x18]
    16f1:	8b 40 28             	mov    eax,DWORD PTR [rax+0x28]
    16f4:	8d 50 ff             	lea    edx,[rax-0x1]
    16f7:	48 8b 45 e8          	mov    rax,QWORD PTR [rbp-0x18]
    16fb:	48 8d 88 30 01 00 00 	lea    rcx,[rax+0x130]
    1702:	8b 45 f8             	mov    eax,DWORD PTR [rbp-0x8]
    1705:	89 c6                	mov    esi,eax
    1707:	48 89 cf             	mov    rdi,rcx
    170a:	e8 00 00 00 00       	call   170f <_ZN9simulator11setPBordersEv+0x19d>
    170f:	83 45 f8 01          	add    DWORD PTR [rbp-0x8],0x1
    1713:	e9 6d fe ff ff       	jmp    1585 <_ZN9simulator11setPBordersEv+0x13>
    1718:	c7 45 fc 00 00 00 00 	mov    DWORD PTR [rbp-0x4],0x0
    171f:	48 8b 45 e8          	mov    rax,QWORD PTR [rbp-0x18]
    1723:	8b 40 28             	mov    eax,DWORD PTR [rax+0x28]
    1726:	3b 45 fc             	cmp    eax,DWORD PTR [rbp-0x4]
    1729:	0f 8e 83 01 00 00    	jle    18b2 <_ZN9simulator11setPBordersEv+0x340>
    172f:	48 8b 45 e8          	mov    rax,QWORD PTR [rbp-0x18]
    1733:	8b 40 24             	mov    eax,DWORD PTR [rax+0x24]
    1736:	8d 70 fe             	lea    esi,[rax-0x2]
    1739:	48 8b 45 e8          	mov    rax,QWORD PTR [rbp-0x18]
    173d:	48 8d 88 d0 00 00 00 	lea    rcx,[rax+0xd0]
    1744:	8b 45 fc             	mov    eax,DWORD PTR [rbp-0x4]
    1747:	89 c2                	mov    edx,eax
    1749:	48 89 cf             	mov    rdi,rcx
    174c:	e8 00 00 00 00       	call   1751 <_ZN9simulator11setPBordersEv+0x1df>
    1751:	48 8b 45 e8          	mov    rax,QWORD PTR [rbp-0x18]
    1755:	8b 40 24             	mov    eax,DWORD PTR [rax+0x24]
    1758:	8d 70 ff             	lea    esi,[rax-0x1]
    175b:	48 8b 45 e8          	mov    rax,QWORD PTR [rbp-0x18]
    175f:	48 8d 88 d0 00 00 00 	lea    rcx,[rax+0xd0]
    1766:	8b 45 fc             	mov    eax,DWORD PTR [rbp-0x4]
    1769:	89 c2                	mov    edx,eax
    176b:	48 89 cf             	mov    rdi,rcx
    176e:	e8 00 00 00 00       	call   1773 <_ZN9simulator11setPBordersEv+0x201>
    1773:	48 8b 45 e8          	mov    rax,QWORD PTR [rbp-0x18]
    1777:	8b 40 24             	mov    eax,DWORD PTR [rax+0x24]
    177a:	8d 70 fe             	lea    esi,[rax-0x2]
    177d:	48 8b 45 e8          	mov    rax,QWORD PTR [rbp-0x18]
    1781:	48 8d 88 00 01 00 00 	lea    rcx,[rax+0x100]
    1788:	8b 45 fc             	mov    eax,DWORD PTR [rbp-0x4]
    178b:	89 c2                	mov    edx,eax
    178d:	48 89 cf             	mov    rdi,rcx
    1790:	e8 00 00 00 00       	call   1795 <_ZN9simulator11setPBordersEv+0x223>
    1795:	48 8b 45 e8          	mov    rax,QWORD PTR [rbp-0x18]
    1799:	8b 40 24             	mov    eax,DWORD PTR [rax+0x24]
    179c:	8d 70 ff             	lea    esi,[rax-0x1]
    179f:	48 8b 45 e8          	mov    rax,QWORD PTR [rbp-0x18]
    17a3:	48 8d 88 00 01 00 00 	lea    rcx,[rax+0x100]
    17aa:	8b 45 fc             	mov    eax,DWORD PTR [rbp-0x4]
    17ad:	89 c2                	mov    edx,eax
    17af:	48 89 cf             	mov    rdi,rcx
    17b2:	e8 00 00 00 00       	call   17b7 <_ZN9simulator11setPBordersEv+0x245>
    17b7:	48 8b 45 e8          	mov    rax,QWORD PTR [rbp-0x18]
    17bb:	8b 40 24             	mov    eax,DWORD PTR [rax+0x24]
    17be:	8d 70 fe             	lea    esi,[rax-0x2]
    17c1:	48 8b 45 e8          	mov    rax,QWORD PTR [rbp-0x18]
    17c5:	48 8d 88 30 01 00 00 	lea    rcx,[rax+0x130]
    17cc:	8b 45 fc             	mov    eax,DWORD PTR [rbp-0x4]
    17cf:	89 c2                	mov    edx,eax
    17d1:	48 89 cf             	mov    rdi,rcx
    17d4:	e8 00 00 00 00       	call   17d9 <_ZN9simulator11setPBordersEv+0x267>
    17d9:	48 8b 45 e8          	mov    rax,QWORD PTR [rbp-0x18]
    17dd:	8b 40 24             	mov    eax,DWORD PTR [rax+0x24]
    17e0:	8d 70 ff             	lea    esi,[rax-0x1]
    17e3:	48 8b 45 e8          	mov    rax,QWORD PTR [rbp-0x18]
    17e7:	48 8d 88 30 01 00 00 	lea    rcx,[rax+0x130]
    17ee:	8b 45 fc             	mov    eax,DWORD PTR [rbp-0x4]
    17f1:	89 c2                	mov    edx,eax
    17f3:	48 89 cf             	mov    rdi,rcx
    17f6:	e8 00 00 00 00       	call   17fb <_ZN9simulator11setPBordersEv+0x289>
    17fb:	48 8b 45 e8          	mov    rax,QWORD PTR [rbp-0x18]
    17ff:	48 8d 88 d0 00 00 00 	lea    rcx,[rax+0xd0]
    1806:	8b 45 fc             	mov    eax,DWORD PTR [rbp-0x4]
    1809:	89 c2                	mov    edx,eax
    180b:	be 01 00 00 00       	mov    esi,0x1
    1810:	48 89 cf             	mov    rdi,rcx
    1813:	e8 00 00 00 00       	call   1818 <_ZN9simulator11setPBordersEv+0x2a6>
    1818:	48 8b 45 e8          	mov    rax,QWORD PTR [rbp-0x18]
    181c:	48 8d 88 d0 00 00 00 	lea    rcx,[rax+0xd0]
    1823:	8b 45 fc             	mov    eax,DWORD PTR [rbp-0x4]
    1826:	89 c2                	mov    edx,eax
    1828:	be 00 00 00 00       	mov    esi,0x0
    182d:	48 89 cf             	mov    rdi,rcx
    1830:	e8 00 00 00 00       	call   1835 <_ZN9simulator11setPBordersEv+0x2c3>
    1835:	48 8b 45 e8          	mov    rax,QWORD PTR [rbp-0x18]
    1839:	48 8d 88 00 01 00 00 	lea    rcx,[rax+0x100]
    1840:	8b 45 fc             	mov    eax,DWORD PTR [rbp-0x4]
    1843:	89 c2                	mov    edx,eax
    1845:	be 01 00 00 00       	mov    esi,0x1
    184a:	48 89 cf             	mov    rdi,rcx
    184d:	e8 00 00 00 00       	call   1852 <_ZN9simulator11setPBordersEv+0x2e0>
    1852:	48 8b 45 e8          	mov    rax,QWORD PTR [rbp-0x18]
    1856:	48 8d 88 00 01 00 00 	lea    rcx,[rax+0x100]
    185d:	8b 45 fc             	mov    eax,DWORD PTR [rbp-0x4]
    1860:	89 c2                	mov    edx,eax
    1862:	be 00 00 00 00       	mov    esi,0x0
    1867:	48 89 cf             	mov    rdi,rcx
    186a:	e8 00 00 00 00       	call   186f <_ZN9simulator11setPBordersEv+0x2fd>
    186f:	48 8b 45 e8          	mov    rax,QWORD PTR [rbp-0x18]
    1873:	48 8d 88 30 01 00 00 	lea    rcx,[rax+0x130]
    187a:	8b 45 fc             	mov    eax,DWORD PTR [rbp-0x4]
    187d:	89 c2                	mov    edx,eax
    187f:	be 01 00 00 00       	mov    esi,0x1
    1884:	48 89 cf             	mov    rdi,rcx
    1887:	e8 00 00 00 00       	call   188c <_ZN9simulator11setPBordersEv+0x31a>
    188c:	48 8b 45 e8          	mov    rax,QWORD PTR [rbp-0x18]
    1890:	48 8d 88 30 01 00 00 	lea    rcx,[rax+0x130]
    1897:	8b 45 fc             	mov    eax,DWORD PTR [rbp-0x4]
    189a:	89 c2                	mov    edx,eax
    189c:	be 00 00 00 00       	mov    esi,0x0
    18a1:	48 89 cf             	mov    rdi,rcx
    18a4:	e8 00 00 00 00       	call   18a9 <_ZN9simulator11setPBordersEv+0x337>
    18a9:	83 45 fc 01          	add    DWORD PTR [rbp-0x4],0x1
    18ad:	e9 6d fe ff ff       	jmp    171f <_ZN9simulator11setPBordersEv+0x1ad>
    18b2:	90                   	nop
    18b3:	c9                   	leave  
    18b4:	c3                   	ret    
    18b5:	90                   	nop

00000000000018b6 <_ZN9simulator7processEv>:
    18b6:	55                   	push   rbp
    18b7:	48 89 e5             	mov    rbp,rsp
    18ba:	48 83 ec 20          	sub    rsp,0x20
    18be:	48 89 7d e8          	mov    QWORD PTR [rbp-0x18],rdi
    18c2:	48 8b 45 e8          	mov    rax,QWORD PTR [rbp-0x18]
    18c6:	66 0f ef c0          	pxor   xmm0,xmm0
    18ca:	f3 0f 11 80 a8 00 00 	movss  DWORD PTR [rax+0xa8],xmm0
    18d1:	00 
    18d2:	48 8b 45 e8          	mov    rax,QWORD PTR [rbp-0x18]
    18d6:	f3 0f 10 88 a8 00 00 	movss  xmm1,DWORD PTR [rax+0xa8]
    18dd:	00 
    18de:	48 8b 45 e8          	mov    rax,QWORD PTR [rbp-0x18]
    18e2:	f3 0f 10 40 08       	movss  xmm0,DWORD PTR [rax+0x8]
    18e7:	0f 2e c1             	ucomiss xmm0,xmm1
    18ea:	0f 86 ad 01 00 00    	jbe    1a9d <_ZN9simulator7processEv+0x1e7>
    18f0:	48 8b 45 e8          	mov    rax,QWORD PTR [rbp-0x18]
    18f4:	8b 40 30             	mov    eax,DWORD PTR [rax+0x30]
    18f7:	8d 50 01             	lea    edx,[rax+0x1]
    18fa:	48 8b 45 e8          	mov    rax,QWORD PTR [rbp-0x18]
    18fe:	89 50 30             	mov    DWORD PTR [rax+0x30],edx
    1901:	48 8b 45 e8          	mov    rax,QWORD PTR [rbp-0x18]
    1905:	f3 0f 10 88 a8 00 00 	movss  xmm1,DWORD PTR [rax+0xa8]
    190c:	00 
    190d:	f3 0f 10 05 00 00 00 	movss  xmm0,DWORD PTR [rip+0x0]        # 1915 <_ZN9simulator7processEv+0x5f>
    1914:	00 
    1915:	f3 0f 59 c1          	mulss  xmm0,xmm1
    1919:	48 8b 45 e8          	mov    rax,QWORD PTR [rbp-0x18]
    191d:	f3 0f 10 48 08       	movss  xmm1,DWORD PTR [rax+0x8]
    1922:	f3 0f 5e c1          	divss  xmm0,xmm1
    1926:	48 8b 45 e8          	mov    rax,QWORD PTR [rbp-0x18]
    192a:	f3 0f 10 88 ac 00 00 	movss  xmm1,DWORD PTR [rax+0xac]
    1931:	00 
    1932:	0f 2e c1             	ucomiss xmm0,xmm1
    1935:	0f 87 80 01 00 00    	ja     1abb <_ZN9simulator7processEv+0x205>
    193b:	48 8b 45 e8          	mov    rax,QWORD PTR [rbp-0x18]
    193f:	48 89 c7             	mov    rdi,rax
    1942:	e8 00 00 00 00       	call   1947 <_ZN9simulator7processEv+0x91>
    1947:	48 8b 45 e8          	mov    rax,QWORD PTR [rbp-0x18]
    194b:	48 89 c7             	mov    rdi,rax
    194e:	e8 00 00 00 00       	call   1953 <_ZN9simulator7processEv+0x9d>
    1953:	c7 45 f8 01 00 00 00 	mov    DWORD PTR [rbp-0x8],0x1
    195a:	48 8b 45 e8          	mov    rax,QWORD PTR [rbp-0x18]
    195e:	8b 40 24             	mov    eax,DWORD PTR [rax+0x24]
    1961:	83 e8 01             	sub    eax,0x1
    1964:	3b 45 f8             	cmp    eax,DWORD PTR [rbp-0x8]
    1967:	7e 4a                	jle    19b3 <_ZN9simulator7processEv+0xfd>
    1969:	c7 45 fc 01 00 00 00 	mov    DWORD PTR [rbp-0x4],0x1
    1970:	48 8b 45 e8          	mov    rax,QWORD PTR [rbp-0x18]
    1974:	8b 40 28             	mov    eax,DWORD PTR [rax+0x28]
    1977:	83 e8 01             	sub    eax,0x1
    197a:	3b 45 fc             	cmp    eax,DWORD PTR [rbp-0x4]
    197d:	7e 2e                	jle    19ad <_ZN9simulator7processEv+0xf7>
    197f:	8b 55 fc             	mov    edx,DWORD PTR [rbp-0x4]
    1982:	8b 4d f8             	mov    ecx,DWORD PTR [rbp-0x8]
    1985:	48 8b 45 e8          	mov    rax,QWORD PTR [rbp-0x18]
    1989:	89 ce                	mov    esi,ecx
    198b:	48 89 c7             	mov    rdi,rax
    198e:	e8 00 00 00 00       	call   1993 <_ZN9simulator7processEv+0xdd>
    1993:	8b 55 fc             	mov    edx,DWORD PTR [rbp-0x4]
    1996:	8b 4d f8             	mov    ecx,DWORD PTR [rbp-0x8]
    1999:	48 8b 45 e8          	mov    rax,QWORD PTR [rbp-0x18]
    199d:	89 ce                	mov    esi,ecx
    199f:	48 89 c7             	mov    rdi,rax
    19a2:	e8 00 00 00 00       	call   19a7 <_ZN9simulator7processEv+0xf1>
    19a7:	83 45 fc 01          	add    DWORD PTR [rbp-0x4],0x1
    19ab:	eb c3                	jmp    1970 <_ZN9simulator7processEv+0xba>
    19ad:	83 45 f8 01          	add    DWORD PTR [rbp-0x8],0x1
    19b1:	eb a7                	jmp    195a <_ZN9simulator7processEv+0xa4>
    19b3:	48 8b 45 e8          	mov    rax,QWORD PTR [rbp-0x18]
    19b7:	48 8d 90 e0 00 00 00 	lea    rdx,[rax+0xe0]
    19be:	48 8b 45 e8          	mov    rax,QWORD PTR [rbp-0x18]
    19c2:	48 05 b0 00 00 00    	add    rax,0xb0
    19c8:	48 89 d6             	mov    rsi,rdx
    19cb:	48 89 c7             	mov    rdi,rax
    19ce:	e8 00 00 00 00       	call   19d3 <_ZN9simulator7processEv+0x11d>
    19d3:	48 8b 45 e8          	mov    rax,QWORD PTR [rbp-0x18]
    19d7:	48 8d 90 10 01 00 00 	lea    rdx,[rax+0x110]
    19de:	48 8b 45 e8          	mov    rax,QWORD PTR [rbp-0x18]
    19e2:	48 05 e0 00 00 00    	add    rax,0xe0
    19e8:	48 89 d6             	mov    rsi,rdx
    19eb:	48 89 c7             	mov    rdi,rax
    19ee:	e8 00 00 00 00       	call   19f3 <_ZN9simulator7processEv+0x13d>
    19f3:	48 8b 45 e8          	mov    rax,QWORD PTR [rbp-0x18]
    19f7:	48 8d 90 f0 00 00 00 	lea    rdx,[rax+0xf0]
    19fe:	48 8b 45 e8          	mov    rax,QWORD PTR [rbp-0x18]
    1a02:	48 05 c0 00 00 00    	add    rax,0xc0
    1a08:	48 89 d6             	mov    rsi,rdx
    1a0b:	48 89 c7             	mov    rdi,rax
    1a0e:	e8 00 00 00 00       	call   1a13 <_ZN9simulator7processEv+0x15d>
    1a13:	48 8b 45 e8          	mov    rax,QWORD PTR [rbp-0x18]
    1a17:	48 8d 90 20 01 00 00 	lea    rdx,[rax+0x120]
    1a1e:	48 8b 45 e8          	mov    rax,QWORD PTR [rbp-0x18]
    1a22:	48 05 f0 00 00 00    	add    rax,0xf0
    1a28:	48 89 d6             	mov    rsi,rdx
    1a2b:	48 89 c7             	mov    rdi,rax
    1a2e:	e8 00 00 00 00       	call   1a33 <_ZN9simulator7processEv+0x17d>
    1a33:	48 8b 45 e8          	mov    rax,QWORD PTR [rbp-0x18]
    1a37:	48 8d 90 00 01 00 00 	lea    rdx,[rax+0x100]
    1a3e:	48 8b 45 e8          	mov    rax,QWORD PTR [rbp-0x18]
    1a42:	48 05 d0 00 00 00    	add    rax,0xd0
    1a48:	48 89 d6             	mov    rsi,rdx
    1a4b:	48 89 c7             	mov    rdi,rax
    1a4e:	e8 00 00 00 00       	call   1a53 <_ZN9simulator7processEv+0x19d>
    1a53:	48 8b 45 e8          	mov    rax,QWORD PTR [rbp-0x18]
    1a57:	48 8d 90 30 01 00 00 	lea    rdx,[rax+0x130]
    1a5e:	48 8b 45 e8          	mov    rax,QWORD PTR [rbp-0x18]
    1a62:	48 05 00 01 00 00    	add    rax,0x100
    1a68:	48 89 d6             	mov    rsi,rdx
    1a6b:	48 89 c7             	mov    rdi,rax
    1a6e:	e8 00 00 00 00       	call   1a73 <_ZN9simulator7processEv+0x1bd>
    1a73:	48 8b 45 e8          	mov    rax,QWORD PTR [rbp-0x18]
    1a77:	f3 0f 10 88 a8 00 00 	movss  xmm1,DWORD PTR [rax+0xa8]
    1a7e:	00 
    1a7f:	48 8b 45 e8          	mov    rax,QWORD PTR [rbp-0x18]
    1a83:	f3 0f 10 40 1c       	movss  xmm0,DWORD PTR [rax+0x1c]
    1a88:	f3 0f 58 c1          	addss  xmm0,xmm1
    1a8c:	48 8b 45 e8          	mov    rax,QWORD PTR [rbp-0x18]
    1a90:	f3 0f 11 80 a8 00 00 	movss  DWORD PTR [rax+0xa8],xmm0
    1a97:	00 
    1a98:	e9 35 fe ff ff       	jmp    18d2 <_ZN9simulator7processEv+0x1c>
    1a9d:	be 64 00 00 00       	mov    esi,0x64
    1aa2:	bf 00 00 00 00       	mov    edi,0x0
    1aa7:	e8 00 00 00 00       	call   1aac <_ZN9simulator7processEv+0x1f6>
    1aac:	be 00 00 00 00       	mov    esi,0x0
    1ab1:	48 89 c7             	mov    rdi,rax
    1ab4:	e8 00 00 00 00       	call   1ab9 <_ZN9simulator7processEv+0x203>
    1ab9:	eb 01                	jmp    1abc <_ZN9simulator7processEv+0x206>
    1abb:	90                   	nop
    1abc:	c9                   	leave  
    1abd:	c3                   	ret    

0000000000001abe <_ZN9simulator14calcVelocitiesEii>:
    1abe:	55                   	push   rbp
    1abf:	48 89 e5             	mov    rbp,rsp
    1ac2:	48 83 ec 38          	sub    rsp,0x38
    1ac6:	48 89 7d e8          	mov    QWORD PTR [rbp-0x18],rdi
    1aca:	89 75 e4             	mov    DWORD PTR [rbp-0x1c],esi
    1acd:	89 55 e0             	mov    DWORD PTR [rbp-0x20],edx
    1ad0:	48 8b 45 e8          	mov    rax,QWORD PTR [rbp-0x18]
    1ad4:	48 8d 88 e0 00 00 00 	lea    rcx,[rax+0xe0]
    1adb:	8b 55 e0             	mov    edx,DWORD PTR [rbp-0x20]
    1ade:	8b 45 e4             	mov    eax,DWORD PTR [rbp-0x1c]
    1ae1:	89 c6                	mov    esi,eax
    1ae3:	48 89 cf             	mov    rdi,rcx
    1ae6:	e8 00 00 00 00       	call   1aeb <_ZN9simulator14calcVelocitiesEii+0x2d>
    1aeb:	f3 0f 11 45 d8       	movss  DWORD PTR [rbp-0x28],xmm0
    1af0:	48 8b 45 e8          	mov    rax,QWORD PTR [rbp-0x18]
    1af4:	48 8d 88 e0 00 00 00 	lea    rcx,[rax+0xe0]
    1afb:	8b 55 e0             	mov    edx,DWORD PTR [rbp-0x20]
    1afe:	8b 45 e4             	mov    eax,DWORD PTR [rbp-0x1c]
    1b01:	89 c6                	mov    esi,eax
    1b03:	48 89 cf             	mov    rdi,rcx
    1b06:	e8 00 00 00 00       	call   1b0b <_ZN9simulator14calcVelocitiesEii+0x4d>
    1b0b:	0f 28 d0             	movaps xmm2,xmm0
    1b0e:	48 8b 45 e8          	mov    rax,QWORD PTR [rbp-0x18]
    1b12:	f3 0f 10 40 1c       	movss  xmm0,DWORD PTR [rax+0x1c]
    1b17:	48 8b 45 e8          	mov    rax,QWORD PTR [rbp-0x18]
    1b1b:	f3 0f 10 48 14       	movss  xmm1,DWORD PTR [rax+0x14]
    1b20:	f3 0f 5e c1          	divss  xmm0,xmm1
    1b24:	f3 0f 59 d0          	mulss  xmm2,xmm0
    1b28:	f3 0f 11 55 d4       	movss  DWORD PTR [rbp-0x2c],xmm2
    1b2d:	48 8b 45 e8          	mov    rax,QWORD PTR [rbp-0x18]
    1b31:	48 8d 88 e0 00 00 00 	lea    rcx,[rax+0xe0]
    1b38:	8b 55 e0             	mov    edx,DWORD PTR [rbp-0x20]
    1b3b:	8b 45 e4             	mov    eax,DWORD PTR [rbp-0x1c]
    1b3e:	89 c6                	mov    esi,eax
    1b40:	48 89 cf             	mov    rdi,rcx
    1b43:	e8 00 00 00 00       	call   1b48 <_ZN9simulator14calcVelocitiesEii+0x8a>
    1b48:	f3 0f 11 45 d0       	movss  DWORD PTR [rbp-0x30],xmm0
    1b4d:	8b 45 e4             	mov    eax,DWORD PTR [rbp-0x1c]
    1b50:	8d 70 ff             	lea    esi,[rax-0x1]
    1b53:	48 8b 45 e8          	mov    rax,QWORD PTR [rbp-0x18]
    1b57:	48 8d 88 e0 00 00 00 	lea    rcx,[rax+0xe0]
    1b5e:	8b 45 e0             	mov    eax,DWORD PTR [rbp-0x20]
    1b61:	89 c2                	mov    edx,eax
    1b63:	48 89 cf             	mov    rdi,rcx
    1b66:	e8 00 00 00 00       	call   1b6b <_ZN9simulator14calcVelocitiesEii+0xad>
    1b6b:	f3 0f 10 7d d0       	movss  xmm7,DWORD PTR [rbp-0x30]
    1b70:	f3 0f 5c f8          	subss  xmm7,xmm0
    1b74:	0f 28 c7             	movaps xmm0,xmm7
    1b77:	f3 0f 59 45 d4       	mulss  xmm0,DWORD PTR [rbp-0x2c]
    1b7c:	f3 0f 10 6d d8       	movss  xmm5,DWORD PTR [rbp-0x28]
    1b81:	f3 0f 5c e8          	subss  xmm5,xmm0
    1b85:	f3 0f 11 6d d8       	movss  DWORD PTR [rbp-0x28],xmm5
    1b8a:	48 8b 45 e8          	mov    rax,QWORD PTR [rbp-0x18]
    1b8e:	48 8d 88 f0 00 00 00 	lea    rcx,[rax+0xf0]
    1b95:	8b 55 e0             	mov    edx,DWORD PTR [rbp-0x20]
    1b98:	8b 45 e4             	mov    eax,DWORD PTR [rbp-0x1c]
    1b9b:	89 c6                	mov    esi,eax
    1b9d:	48 89 cf             	mov    rdi,rcx
    1ba0:	e8 00 00 00 00       	call   1ba5 <_ZN9simulator14calcVelocitiesEii+0xe7>
    1ba5:	0f 28 d0             	movaps xmm2,xmm0
    1ba8:	48 8b 45 e8          	mov    rax,QWORD PTR [rbp-0x18]
    1bac:	f3 0f 10 40 1c       	movss  xmm0,DWORD PTR [rax+0x1c]
    1bb1:	48 8b 45 e8          	mov    rax,QWORD PTR [rbp-0x18]
    1bb5:	f3 0f 10 48 18       	movss  xmm1,DWORD PTR [rax+0x18]
    1bba:	f3 0f 5e c1          	divss  xmm0,xmm1
    1bbe:	f3 0f 59 d0          	mulss  xmm2,xmm0
    1bc2:	f3 0f 11 55 d4       	movss  DWORD PTR [rbp-0x2c],xmm2
    1bc7:	48 8b 45 e8          	mov    rax,QWORD PTR [rbp-0x18]
    1bcb:	48 8d 88 e0 00 00 00 	lea    rcx,[rax+0xe0]
    1bd2:	8b 55 e0             	mov    edx,DWORD PTR [rbp-0x20]
    1bd5:	8b 45 e4             	mov    eax,DWORD PTR [rbp-0x1c]
    1bd8:	89 c6                	mov    esi,eax
    1bda:	48 89 cf             	mov    rdi,rcx
    1bdd:	e8 00 00 00 00       	call   1be2 <_ZN9simulator14calcVelocitiesEii+0x124>
    1be2:	f3 0f 11 45 d0       	movss  DWORD PTR [rbp-0x30],xmm0
    1be7:	8b 45 e0             	mov    eax,DWORD PTR [rbp-0x20]
    1bea:	8d 50 ff             	lea    edx,[rax-0x1]
    1bed:	48 8b 45 e8          	mov    rax,QWORD PTR [rbp-0x18]
    1bf1:	48 8d 88 e0 00 00 00 	lea    rcx,[rax+0xe0]
    1bf8:	8b 45 e4             	mov    eax,DWORD PTR [rbp-0x1c]
    1bfb:	89 c6                	mov    esi,eax
    1bfd:	48 89 cf             	mov    rdi,rcx
    1c00:	e8 00 00 00 00       	call   1c05 <_ZN9simulator14calcVelocitiesEii+0x147>
    1c05:	f3 0f 10 65 d0       	movss  xmm4,DWORD PTR [rbp-0x30]
    1c0a:	f3 0f 5c e0          	subss  xmm4,xmm0
    1c0e:	0f 28 c4             	movaps xmm0,xmm4
    1c11:	f3 0f 59 45 d4       	mulss  xmm0,DWORD PTR [rbp-0x2c]
    1c16:	f3 0f 10 6d d8       	movss  xmm5,DWORD PTR [rbp-0x28]
    1c1b:	f3 0f 5c e8          	subss  xmm5,xmm0
    1c1f:	f3 0f 11 6d d8       	movss  DWORD PTR [rbp-0x28],xmm5
    1c24:	48 8b 45 e8          	mov    rax,QWORD PTR [rbp-0x18]
    1c28:	f3 0f 10 48 1c       	movss  xmm1,DWORD PTR [rax+0x1c]
    1c2d:	48 8b 45 e8          	mov    rax,QWORD PTR [rbp-0x18]
    1c31:	f3 0f 10 40 10       	movss  xmm0,DWORD PTR [rax+0x10]
    1c36:	f3 0f 58 c0          	addss  xmm0,xmm0
    1c3a:	48 8b 45 e8          	mov    rax,QWORD PTR [rbp-0x18]
    1c3e:	f3 0f 10 50 14       	movss  xmm2,DWORD PTR [rax+0x14]
    1c43:	f3 0f 59 c2          	mulss  xmm0,xmm2
    1c47:	f3 0f 5e c8          	divss  xmm1,xmm0
    1c4b:	f3 0f 11 4d d4       	movss  DWORD PTR [rbp-0x2c],xmm1
    1c50:	8b 45 e4             	mov    eax,DWORD PTR [rbp-0x1c]
    1c53:	8d 70 01             	lea    esi,[rax+0x1]
    1c56:	48 8b 45 e8          	mov    rax,QWORD PTR [rbp-0x18]
    1c5a:	48 8d 88 00 01 00 00 	lea    rcx,[rax+0x100]
    1c61:	8b 45 e0             	mov    eax,DWORD PTR [rbp-0x20]
    1c64:	89 c2                	mov    edx,eax
    1c66:	48 89 cf             	mov    rdi,rcx
    1c69:	e8 00 00 00 00       	call   1c6e <_ZN9simulator14calcVelocitiesEii+0x1b0>
    1c6e:	f3 0f 11 45 d0       	movss  DWORD PTR [rbp-0x30],xmm0
    1c73:	8b 45 e4             	mov    eax,DWORD PTR [rbp-0x1c]
    1c76:	8d 70 ff             	lea    esi,[rax-0x1]
    1c79:	48 8b 45 e8          	mov    rax,QWORD PTR [rbp-0x18]
    1c7d:	48 8d 88 00 01 00 00 	lea    rcx,[rax+0x100]
    1c84:	8b 45 e0             	mov    eax,DWORD PTR [rbp-0x20]
    1c87:	89 c2                	mov    edx,eax
    1c89:	48 89 cf             	mov    rdi,rcx
    1c8c:	e8 00 00 00 00       	call   1c91 <_ZN9simulator14calcVelocitiesEii+0x1d3>
    1c91:	f3 0f 10 7d d0       	movss  xmm7,DWORD PTR [rbp-0x30]
    1c96:	f3 0f 5c f8          	subss  xmm7,xmm0
    1c9a:	0f 28 c7             	movaps xmm0,xmm7
    1c9d:	f3 0f 59 45 d4       	mulss  xmm0,DWORD PTR [rbp-0x2c]
    1ca2:	f3 0f 10 6d d8       	movss  xmm5,DWORD PTR [rbp-0x28]
    1ca7:	f3 0f 5c e8          	subss  xmm5,xmm0
    1cab:	f3 0f 11 6d d8       	movss  DWORD PTR [rbp-0x28],xmm5
    1cb0:	48 8b 45 e8          	mov    rax,QWORD PTR [rbp-0x18]
    1cb4:	f3 0f 10 60 0c       	movss  xmm4,DWORD PTR [rax+0xc]
    1cb9:	f3 0f 11 65 d4       	movss  DWORD PTR [rbp-0x2c],xmm4
    1cbe:	48 8b 45 e8          	mov    rax,QWORD PTR [rbp-0x18]
    1cc2:	f3 0f 10 48 1c       	movss  xmm1,DWORD PTR [rax+0x1c]
    1cc7:	48 8b 45 e8          	mov    rax,QWORD PTR [rbp-0x18]
    1ccb:	f3 0f 10 50 14       	movss  xmm2,DWORD PTR [rax+0x14]
    1cd0:	48 8b 45 e8          	mov    rax,QWORD PTR [rbp-0x18]
    1cd4:	f3 0f 10 40 14       	movss  xmm0,DWORD PTR [rax+0x14]
    1cd9:	f3 0f 59 c2          	mulss  xmm0,xmm2
    1cdd:	f3 0f 5e c8          	divss  xmm1,xmm0
    1ce1:	f3 0f 11 4d d0       	movss  DWORD PTR [rbp-0x30],xmm1
    1ce6:	8b 45 e4             	mov    eax,DWORD PTR [rbp-0x1c]
    1ce9:	8d 70 01             	lea    esi,[rax+0x1]
    1cec:	48 8b 45 e8          	mov    rax,QWORD PTR [rbp-0x18]
    1cf0:	48 8d 88 e0 00 00 00 	lea    rcx,[rax+0xe0]
    1cf7:	8b 45 e0             	mov    eax,DWORD PTR [rbp-0x20]
    1cfa:	89 c2                	mov    edx,eax
    1cfc:	48 89 cf             	mov    rdi,rcx
    1cff:	e8 00 00 00 00       	call   1d04 <_ZN9simulator14calcVelocitiesEii+0x246>
    1d04:	f3 0f 11 45 cc       	movss  DWORD PTR [rbp-0x34],xmm0
    1d09:	48 8b 45 e8          	mov    rax,QWORD PTR [rbp-0x18]
    1d0d:	48 8d 88 e0 00 00 00 	lea    rcx,[rax+0xe0]
    1d14:	8b 55 e0             	mov    edx,DWORD PTR [rbp-0x20]
    1d17:	8b 45 e4             	mov    eax,DWORD PTR [rbp-0x1c]
    1d1a:	89 c6                	mov    esi,eax
    1d1c:	48 89 cf             	mov    rdi,rcx
    1d1f:	e8 00 00 00 00       	call   1d24 <_ZN9simulator14calcVelocitiesEii+0x266>
    1d24:	f3 0f 58 c0          	addss  xmm0,xmm0
    1d28:	f3 0f 10 5d cc       	movss  xmm3,DWORD PTR [rbp-0x34]
    1d2d:	f3 0f 5c d8          	subss  xmm3,xmm0
    1d31:	f3 0f 11 5d cc       	movss  DWORD PTR [rbp-0x34],xmm3
    1d36:	8b 45 e4             	mov    eax,DWORD PTR [rbp-0x1c]
    1d39:	8d 70 ff             	lea    esi,[rax-0x1]
    1d3c:	48 8b 45 e8          	mov    rax,QWORD PTR [rbp-0x18]
    1d40:	48 8d 88 e0 00 00 00 	lea    rcx,[rax+0xe0]
    1d47:	8b 45 e0             	mov    eax,DWORD PTR [rbp-0x20]
    1d4a:	89 c2                	mov    edx,eax
    1d4c:	48 89 cf             	mov    rdi,rcx
    1d4f:	e8 00 00 00 00       	call   1d54 <_ZN9simulator14calcVelocitiesEii+0x296>
    1d54:	f3 0f 58 45 cc       	addss  xmm0,DWORD PTR [rbp-0x34]
    1d59:	f3 0f 59 45 d0       	mulss  xmm0,DWORD PTR [rbp-0x30]
    1d5e:	f3 0f 11 45 d0       	movss  DWORD PTR [rbp-0x30],xmm0
    1d63:	48 8b 45 e8          	mov    rax,QWORD PTR [rbp-0x18]
    1d67:	f3 0f 10 48 1c       	movss  xmm1,DWORD PTR [rax+0x1c]
    1d6c:	48 8b 45 e8          	mov    rax,QWORD PTR [rbp-0x18]
    1d70:	f3 0f 10 50 18       	movss  xmm2,DWORD PTR [rax+0x18]
    1d75:	48 8b 45 e8          	mov    rax,QWORD PTR [rbp-0x18]
    1d79:	f3 0f 10 40 18       	movss  xmm0,DWORD PTR [rax+0x18]
    1d7e:	f3 0f 59 c2          	mulss  xmm0,xmm2
    1d82:	f3 0f 5e c8          	divss  xmm1,xmm0
    1d86:	f3 0f 11 4d cc       	movss  DWORD PTR [rbp-0x34],xmm1
    1d8b:	8b 45 e0             	mov    eax,DWORD PTR [rbp-0x20]
    1d8e:	8d 50 01             	lea    edx,[rax+0x1]
    1d91:	48 8b 45 e8          	mov    rax,QWORD PTR [rbp-0x18]
    1d95:	48 8d 88 e0 00 00 00 	lea    rcx,[rax+0xe0]
    1d9c:	8b 45 e4             	mov    eax,DWORD PTR [rbp-0x1c]
    1d9f:	89 c6                	mov    esi,eax
    1da1:	48 89 cf             	mov    rdi,rcx
    1da4:	e8 00 00 00 00       	call   1da9 <_ZN9simulator14calcVelocitiesEii+0x2eb>
    1da9:	f3 0f 11 45 c8       	movss  DWORD PTR [rbp-0x38],xmm0
    1dae:	48 8b 45 e8          	mov    rax,QWORD PTR [rbp-0x18]
    1db2:	48 8d 88 e0 00 00 00 	lea    rcx,[rax+0xe0]
    1db9:	8b 55 e0             	mov    edx,DWORD PTR [rbp-0x20]
    1dbc:	8b 45 e4             	mov    eax,DWORD PTR [rbp-0x1c]
    1dbf:	89 c6                	mov    esi,eax
    1dc1:	48 89 cf             	mov    rdi,rcx
    1dc4:	e8 00 00 00 00       	call   1dc9 <_ZN9simulator14calcVelocitiesEii+0x30b>
    1dc9:	f3 0f 58 c0          	addss  xmm0,xmm0
    1dcd:	f3 0f 10 7d c8       	movss  xmm7,DWORD PTR [rbp-0x38]
    1dd2:	f3 0f 5c f8          	subss  xmm7,xmm0
    1dd6:	f3 0f 11 7d c8       	movss  DWORD PTR [rbp-0x38],xmm7
    1ddb:	8b 45 e0             	mov    eax,DWORD PTR [rbp-0x20]
    1dde:	8d 50 ff             	lea    edx,[rax-0x1]
    1de1:	48 8b 45 e8          	mov    rax,QWORD PTR [rbp-0x18]
    1de5:	48 8d 88 e0 00 00 00 	lea    rcx,[rax+0xe0]
    1dec:	8b 45 e4             	mov    eax,DWORD PTR [rbp-0x1c]
    1def:	89 c6                	mov    esi,eax
    1df1:	48 89 cf             	mov    rdi,rcx
    1df4:	e8 00 00 00 00       	call   1df9 <_ZN9simulator14calcVelocitiesEii+0x33b>
    1df9:	f3 0f 58 45 c8       	addss  xmm0,DWORD PTR [rbp-0x38]
    1dfe:	f3 0f 59 45 cc       	mulss  xmm0,DWORD PTR [rbp-0x34]
    1e03:	f3 0f 58 45 d0       	addss  xmm0,DWORD PTR [rbp-0x30]
    1e08:	f3 0f 59 45 d4       	mulss  xmm0,DWORD PTR [rbp-0x2c]
    1e0d:	f3 0f 58 45 d8       	addss  xmm0,DWORD PTR [rbp-0x28]
    1e12:	f3 0f 11 45 f0       	movss  DWORD PTR [rbp-0x10],xmm0
    1e17:	48 8b 45 e8          	mov    rax,QWORD PTR [rbp-0x18]
    1e1b:	48 8d b8 10 01 00 00 	lea    rdi,[rax+0x110]
    1e22:	8b 4d f0             	mov    ecx,DWORD PTR [rbp-0x10]
    1e25:	8b 55 e0             	mov    edx,DWORD PTR [rbp-0x20]
    1e28:	8b 45 e4             	mov    eax,DWORD PTR [rbp-0x1c]
    1e2b:	89 4d d8             	mov    DWORD PTR [rbp-0x28],ecx
    1e2e:	f3 0f 10 45 d8       	movss  xmm0,DWORD PTR [rbp-0x28]
    1e33:	89 c6                	mov    esi,eax
    1e35:	e8 00 00 00 00       	call   1e3a <_ZN9simulator14calcVelocitiesEii+0x37c>
    1e3a:	48 8b 45 e8          	mov    rax,QWORD PTR [rbp-0x18]
    1e3e:	48 8d 88 f0 00 00 00 	lea    rcx,[rax+0xf0]
    1e45:	8b 55 e0             	mov    edx,DWORD PTR [rbp-0x20]
    1e48:	8b 45 e4             	mov    eax,DWORD PTR [rbp-0x1c]
    1e4b:	89 c6                	mov    esi,eax
    1e4d:	48 89 cf             	mov    rdi,rcx
    1e50:	e8 00 00 00 00       	call   1e55 <_ZN9simulator14calcVelocitiesEii+0x397>
    1e55:	f3 0f 11 45 d8       	movss  DWORD PTR [rbp-0x28],xmm0
    1e5a:	48 8b 45 e8          	mov    rax,QWORD PTR [rbp-0x18]
    1e5e:	48 8d 88 e0 00 00 00 	lea    rcx,[rax+0xe0]
    1e65:	8b 55 e0             	mov    edx,DWORD PTR [rbp-0x20]
    1e68:	8b 45 e4             	mov    eax,DWORD PTR [rbp-0x1c]
    1e6b:	89 c6                	mov    esi,eax
    1e6d:	48 89 cf             	mov    rdi,rcx
    1e70:	e8 00 00 00 00       	call   1e75 <_ZN9simulator14calcVelocitiesEii+0x3b7>
    1e75:	0f 28 d0             	movaps xmm2,xmm0
    1e78:	48 8b 45 e8          	mov    rax,QWORD PTR [rbp-0x18]
    1e7c:	f3 0f 10 40 1c       	movss  xmm0,DWORD PTR [rax+0x1c]
    1e81:	48 8b 45 e8          	mov    rax,QWORD PTR [rbp-0x18]
    1e85:	f3 0f 10 48 14       	movss  xmm1,DWORD PTR [rax+0x14]
    1e8a:	f3 0f 5e c1          	divss  xmm0,xmm1
    1e8e:	f3 0f 59 d0          	mulss  xmm2,xmm0
    1e92:	f3 0f 11 55 d4       	movss  DWORD PTR [rbp-0x2c],xmm2
    1e97:	48 8b 45 e8          	mov    rax,QWORD PTR [rbp-0x18]
    1e9b:	48 8d 88 f0 00 00 00 	lea    rcx,[rax+0xf0]
    1ea2:	8b 55 e0             	mov    edx,DWORD PTR [rbp-0x20]
    1ea5:	8b 45 e4             	mov    eax,DWORD PTR [rbp-0x1c]
    1ea8:	89 c6                	mov    esi,eax
    1eaa:	48 89 cf             	mov    rdi,rcx
    1ead:	e8 00 00 00 00       	call   1eb2 <_ZN9simulator14calcVelocitiesEii+0x3f4>
    1eb2:	f3 0f 11 45 d0       	movss  DWORD PTR [rbp-0x30],xmm0
    1eb7:	8b 45 e4             	mov    eax,DWORD PTR [rbp-0x1c]
    1eba:	8d 70 ff             	lea    esi,[rax-0x1]
    1ebd:	48 8b 45 e8          	mov    rax,QWORD PTR [rbp-0x18]
    1ec1:	48 8d 88 f0 00 00 00 	lea    rcx,[rax+0xf0]
    1ec8:	8b 45 e0             	mov    eax,DWORD PTR [rbp-0x20]
    1ecb:	89 c2                	mov    edx,eax
    1ecd:	48 89 cf             	mov    rdi,rcx
    1ed0:	e8 00 00 00 00       	call   1ed5 <_ZN9simulator14calcVelocitiesEii+0x417>
    1ed5:	f3 0f 10 65 d0       	movss  xmm4,DWORD PTR [rbp-0x30]
    1eda:	f3 0f 5c e0          	subss  xmm4,xmm0
    1ede:	0f 28 c4             	movaps xmm0,xmm4
    1ee1:	f3 0f 59 45 d4       	mulss  xmm0,DWORD PTR [rbp-0x2c]
    1ee6:	f3 0f 10 75 d8       	movss  xmm6,DWORD PTR [rbp-0x28]
    1eeb:	f3 0f 5c f0          	subss  xmm6,xmm0
    1eef:	f3 0f 11 75 d8       	movss  DWORD PTR [rbp-0x28],xmm6
    1ef4:	48 8b 45 e8          	mov    rax,QWORD PTR [rbp-0x18]
    1ef8:	48 8d 88 f0 00 00 00 	lea    rcx,[rax+0xf0]
    1eff:	8b 55 e0             	mov    edx,DWORD PTR [rbp-0x20]
    1f02:	8b 45 e4             	mov    eax,DWORD PTR [rbp-0x1c]
    1f05:	89 c6                	mov    esi,eax
    1f07:	48 89 cf             	mov    rdi,rcx
    1f0a:	e8 00 00 00 00       	call   1f0f <_ZN9simulator14calcVelocitiesEii+0x451>
    1f0f:	0f 28 d0             	movaps xmm2,xmm0
    1f12:	48 8b 45 e8          	mov    rax,QWORD PTR [rbp-0x18]
    1f16:	f3 0f 10 40 1c       	movss  xmm0,DWORD PTR [rax+0x1c]
    1f1b:	48 8b 45 e8          	mov    rax,QWORD PTR [rbp-0x18]
    1f1f:	f3 0f 10 48 18       	movss  xmm1,DWORD PTR [rax+0x18]
    1f24:	f3 0f 5e c1          	divss  xmm0,xmm1
    1f28:	f3 0f 59 d0          	mulss  xmm2,xmm0
    1f2c:	f3 0f 11 55 d4       	movss  DWORD PTR [rbp-0x2c],xmm2
    1f31:	48 8b 45 e8          	mov    rax,QWORD PTR [rbp-0x18]
    1f35:	48 8d 88 f0 00 00 00 	lea    rcx,[rax+0xf0]
    1f3c:	8b 55 e0             	mov    edx,DWORD PTR [rbp-0x20]
    1f3f:	8b 45 e4             	mov    eax,DWORD PTR [rbp-0x1c]
    1f42:	89 c6                	mov    esi,eax
    1f44:	48 89 cf             	mov    rdi,rcx
    1f47:	e8 00 00 00 00       	call   1f4c <_ZN9simulator14calcVelocitiesEii+0x48e>
    1f4c:	f3 0f 11 45 d0       	movss  DWORD PTR [rbp-0x30],xmm0
    1f51:	8b 45 e0             	mov    eax,DWORD PTR [rbp-0x20]
    1f54:	8d 50 ff             	lea    edx,[rax-0x1]
    1f57:	48 8b 45 e8          	mov    rax,QWORD PTR [rbp-0x18]
    1f5b:	48 8d 88 f0 00 00 00 	lea    rcx,[rax+0xf0]
    1f62:	8b 45 e4             	mov    eax,DWORD PTR [rbp-0x1c]
    1f65:	89 c6                	mov    esi,eax
    1f67:	48 89 cf             	mov    rdi,rcx
    1f6a:	e8 00 00 00 00       	call   1f6f <_ZN9simulator14calcVelocitiesEii+0x4b1>
    1f6f:	f3 0f 10 5d d0       	movss  xmm3,DWORD PTR [rbp-0x30]
    1f74:	f3 0f 5c d8          	subss  xmm3,xmm0
    1f78:	0f 28 c3             	movaps xmm0,xmm3
    1f7b:	f3 0f 59 45 d4       	mulss  xmm0,DWORD PTR [rbp-0x2c]
    1f80:	f3 0f 10 75 d8       	movss  xmm6,DWORD PTR [rbp-0x28]
    1f85:	f3 0f 5c f0          	subss  xmm6,xmm0
    1f89:	f3 0f 11 75 d8       	movss  DWORD PTR [rbp-0x28],xmm6
    1f8e:	48 8b 45 e8          	mov    rax,QWORD PTR [rbp-0x18]
    1f92:	f3 0f 10 48 1c       	movss  xmm1,DWORD PTR [rax+0x1c]
    1f97:	48 8b 45 e8          	mov    rax,QWORD PTR [rbp-0x18]
    1f9b:	f3 0f 10 40 10       	movss  xmm0,DWORD PTR [rax+0x10]
    1fa0:	f3 0f 58 c0          	addss  xmm0,xmm0
    1fa4:	48 8b 45 e8          	mov    rax,QWORD PTR [rbp-0x18]
    1fa8:	f3 0f 10 50 18       	movss  xmm2,DWORD PTR [rax+0x18]
    1fad:	f3 0f 59 c2          	mulss  xmm0,xmm2
    1fb1:	f3 0f 5e c8          	divss  xmm1,xmm0
    1fb5:	f3 0f 11 4d d4       	movss  DWORD PTR [rbp-0x2c],xmm1
    1fba:	8b 45 e0             	mov    eax,DWORD PTR [rbp-0x20]
    1fbd:	8d 50 01             	lea    edx,[rax+0x1]
    1fc0:	48 8b 45 e8          	mov    rax,QWORD PTR [rbp-0x18]
    1fc4:	48 8d 88 00 01 00 00 	lea    rcx,[rax+0x100]
    1fcb:	8b 45 e4             	mov    eax,DWORD PTR [rbp-0x1c]
    1fce:	89 c6                	mov    esi,eax
    1fd0:	48 89 cf             	mov    rdi,rcx
    1fd3:	e8 00 00 00 00       	call   1fd8 <_ZN9simulator14calcVelocitiesEii+0x51a>
    1fd8:	f3 0f 11 45 d0       	movss  DWORD PTR [rbp-0x30],xmm0
    1fdd:	8b 45 e0             	mov    eax,DWORD PTR [rbp-0x20]
    1fe0:	8d 50 ff             	lea    edx,[rax-0x1]
    1fe3:	48 8b 45 e8          	mov    rax,QWORD PTR [rbp-0x18]
    1fe7:	48 8d 88 00 01 00 00 	lea    rcx,[rax+0x100]
    1fee:	8b 45 e4             	mov    eax,DWORD PTR [rbp-0x1c]
    1ff1:	89 c6                	mov    esi,eax
    1ff3:	48 89 cf             	mov    rdi,rcx
    1ff6:	e8 00 00 00 00       	call   1ffb <_ZN9simulator14calcVelocitiesEii+0x53d>
    1ffb:	f3 0f 10 65 d0       	movss  xmm4,DWORD PTR [rbp-0x30]
    2000:	f3 0f 5c e0          	subss  xmm4,xmm0
    2004:	0f 28 c4             	movaps xmm0,xmm4
    2007:	f3 0f 59 45 d4       	mulss  xmm0,DWORD PTR [rbp-0x2c]
    200c:	f3 0f 10 75 d8       	movss  xmm6,DWORD PTR [rbp-0x28]
    2011:	f3 0f 5c f0          	subss  xmm6,xmm0
    2015:	f3 0f 11 75 d8       	movss  DWORD PTR [rbp-0x28],xmm6
    201a:	48 8b 45 e8          	mov    rax,QWORD PTR [rbp-0x18]
    201e:	f3 0f 10 78 0c       	movss  xmm7,DWORD PTR [rax+0xc]
    2023:	f3 0f 11 7d d4       	movss  DWORD PTR [rbp-0x2c],xmm7
    2028:	48 8b 45 e8          	mov    rax,QWORD PTR [rbp-0x18]
    202c:	f3 0f 10 48 1c       	movss  xmm1,DWORD PTR [rax+0x1c]
    2031:	48 8b 45 e8          	mov    rax,QWORD PTR [rbp-0x18]
    2035:	f3 0f 10 50 14       	movss  xmm2,DWORD PTR [rax+0x14]
    203a:	48 8b 45 e8          	mov    rax,QWORD PTR [rbp-0x18]
    203e:	f3 0f 10 40 14       	movss  xmm0,DWORD PTR [rax+0x14]
    2043:	f3 0f 59 c2          	mulss  xmm0,xmm2
    2047:	f3 0f 5e c8          	divss  xmm1,xmm0
    204b:	f3 0f 11 4d d0       	movss  DWORD PTR [rbp-0x30],xmm1
    2050:	8b 45 e4             	mov    eax,DWORD PTR [rbp-0x1c]
    2053:	8d 70 01             	lea    esi,[rax+0x1]
    2056:	48 8b 45 e8          	mov    rax,QWORD PTR [rbp-0x18]
    205a:	48 8d 88 f0 00 00 00 	lea    rcx,[rax+0xf0]
    2061:	8b 45 e0             	mov    eax,DWORD PTR [rbp-0x20]
    2064:	89 c2                	mov    edx,eax
    2066:	48 89 cf             	mov    rdi,rcx
    2069:	e8 00 00 00 00       	call   206e <_ZN9simulator14calcVelocitiesEii+0x5b0>
    206e:	f3 0f 11 45 cc       	movss  DWORD PTR [rbp-0x34],xmm0
    2073:	48 8b 45 e8          	mov    rax,QWORD PTR [rbp-0x18]
    2077:	48 8d 88 f0 00 00 00 	lea    rcx,[rax+0xf0]
    207e:	8b 55 e0             	mov    edx,DWORD PTR [rbp-0x20]
    2081:	8b 45 e4             	mov    eax,DWORD PTR [rbp-0x1c]
    2084:	89 c6                	mov    esi,eax
    2086:	48 89 cf             	mov    rdi,rcx
    2089:	e8 00 00 00 00       	call   208e <_ZN9simulator14calcVelocitiesEii+0x5d0>
    208e:	f3 0f 58 c0          	addss  xmm0,xmm0
    2092:	f3 0f 10 6d cc       	movss  xmm5,DWORD PTR [rbp-0x34]
    2097:	f3 0f 5c e8          	subss  xmm5,xmm0
    209b:	f3 0f 11 6d cc       	movss  DWORD PTR [rbp-0x34],xmm5
    20a0:	8b 45 e4             	mov    eax,DWORD PTR [rbp-0x1c]
    20a3:	8d 70 ff             	lea    esi,[rax-0x1]
    20a6:	48 8b 45 e8          	mov    rax,QWORD PTR [rbp-0x18]
    20aa:	48 8d 88 f0 00 00 00 	lea    rcx,[rax+0xf0]
    20b1:	8b 45 e0             	mov    eax,DWORD PTR [rbp-0x20]
    20b4:	89 c2                	mov    edx,eax
    20b6:	48 89 cf             	mov    rdi,rcx
    20b9:	e8 00 00 00 00       	call   20be <_ZN9simulator14calcVelocitiesEii+0x600>
    20be:	f3 0f 58 45 cc       	addss  xmm0,DWORD PTR [rbp-0x34]
    20c3:	f3 0f 59 45 d0       	mulss  xmm0,DWORD PTR [rbp-0x30]
    20c8:	f3 0f 11 45 d0       	movss  DWORD PTR [rbp-0x30],xmm0
    20cd:	48 8b 45 e8          	mov    rax,QWORD PTR [rbp-0x18]
    20d1:	f3 0f 10 48 1c       	movss  xmm1,DWORD PTR [rax+0x1c]
    20d6:	48 8b 45 e8          	mov    rax,QWORD PTR [rbp-0x18]
    20da:	f3 0f 10 50 18       	movss  xmm2,DWORD PTR [rax+0x18]
    20df:	48 8b 45 e8          	mov    rax,QWORD PTR [rbp-0x18]
    20e3:	f3 0f 10 40 18       	movss  xmm0,DWORD PTR [rax+0x18]
    20e8:	f3 0f 59 c2          	mulss  xmm0,xmm2
    20ec:	f3 0f 5e c8          	divss  xmm1,xmm0
    20f0:	f3 0f 11 4d cc       	movss  DWORD PTR [rbp-0x34],xmm1
    20f5:	8b 45 e0             	mov    eax,DWORD PTR [rbp-0x20]
    20f8:	8d 50 01             	lea    edx,[rax+0x1]
    20fb:	48 8b 45 e8          	mov    rax,QWORD PTR [rbp-0x18]
    20ff:	48 8d 88 f0 00 00 00 	lea    rcx,[rax+0xf0]
    2106:	8b 45 e4             	mov    eax,DWORD PTR [rbp-0x1c]
    2109:	89 c6                	mov    esi,eax
    210b:	48 89 cf             	mov    rdi,rcx
    210e:	e8 00 00 00 00       	call   2113 <_ZN9simulator14calcVelocitiesEii+0x655>
    2113:	f3 0f 11 45 c8       	movss  DWORD PTR [rbp-0x38],xmm0
    2118:	48 8b 45 e8          	mov    rax,QWORD PTR [rbp-0x18]
    211c:	48 8d 88 f0 00 00 00 	lea    rcx,[rax+0xf0]
    2123:	8b 55 e0             	mov    edx,DWORD PTR [rbp-0x20]
    2126:	8b 45 e4             	mov    eax,DWORD PTR [rbp-0x1c]
    2129:	89 c6                	mov    esi,eax
    212b:	48 89 cf             	mov    rdi,rcx
    212e:	e8 00 00 00 00       	call   2133 <_ZN9simulator14calcVelocitiesEii+0x675>
    2133:	f3 0f 58 c0          	addss  xmm0,xmm0
    2137:	f3 0f 10 5d c8       	movss  xmm3,DWORD PTR [rbp-0x38]
    213c:	f3 0f 5c d8          	subss  xmm3,xmm0
    2140:	f3 0f 11 5d c8       	movss  DWORD PTR [rbp-0x38],xmm3
    2145:	8b 45 e0             	mov    eax,DWORD PTR [rbp-0x20]
    2148:	8d 50 ff             	lea    edx,[rax-0x1]
    214b:	48 8b 45 e8          	mov    rax,QWORD PTR [rbp-0x18]
    214f:	48 8d 88 f0 00 00 00 	lea    rcx,[rax+0xf0]
    2156:	8b 45 e4             	mov    eax,DWORD PTR [rbp-0x1c]
    2159:	89 c6                	mov    esi,eax
    215b:	48 89 cf             	mov    rdi,rcx
    215e:	e8 00 00 00 00       	call   2163 <_ZN9simulator14calcVelocitiesEii+0x6a5>
    2163:	f3 0f 58 45 c8       	addss  xmm0,DWORD PTR [rbp-0x38]
    2168:	f3 0f 59 45 cc       	mulss  xmm0,DWORD PTR [rbp-0x34]
    216d:	f3 0f 58 45 d0       	addss  xmm0,DWORD PTR [rbp-0x30]
    2172:	f3 0f 59 45 d4       	mulss  xmm0,DWORD PTR [rbp-0x2c]
    2177:	f3 0f 58 45 d8       	addss  xmm0,DWORD PTR [rbp-0x28]
    217c:	f3 0f 11 45 f4       	movss  DWORD PTR [rbp-0xc],xmm0
    2181:	48 8b 45 e8          	mov    rax,QWORD PTR [rbp-0x18]
    2185:	48 8d b8 20 01 00 00 	lea    rdi,[rax+0x120]
    218c:	8b 4d f4             	mov    ecx,DWORD PTR [rbp-0xc]
    218f:	8b 55 e0             	mov    edx,DWORD PTR [rbp-0x20]
    2192:	8b 45 e4             	mov    eax,DWORD PTR [rbp-0x1c]
    2195:	89 4d d8             	mov    DWORD PTR [rbp-0x28],ecx
    2198:	f3 0f 10 45 d8       	movss  xmm0,DWORD PTR [rbp-0x28]
    219d:	89 c6                	mov    esi,eax
    219f:	e8 00 00 00 00       	call   21a4 <_ZN9simulator14calcVelocitiesEii+0x6e6>
    21a4:	48 8b 45 e8          	mov    rax,QWORD PTR [rbp-0x18]
    21a8:	f3 0f 10 48 1c       	movss  xmm1,DWORD PTR [rax+0x1c]
    21ad:	f3 0f 10 05 00 00 00 	movss  xmm0,DWORD PTR [rip+0x0]        # 21b5 <_ZN9simulator14calcVelocitiesEii+0x6f7>
    21b4:	00 
    21b5:	f3 0f 5e c1          	divss  xmm0,xmm1
    21b9:	0f 28 c8             	movaps xmm1,xmm0
    21bc:	48 8b 45 e8          	mov    rax,QWORD PTR [rbp-0x18]
    21c0:	f3 0f 10 50 44       	movss  xmm2,DWORD PTR [rax+0x44]
    21c5:	48 8b 45 e8          	mov    rax,QWORD PTR [rbp-0x18]
    21c9:	f3 0f 10 40 7c       	movss  xmm0,DWORD PTR [rax+0x7c]
    21ce:	f3 0f 58 c2          	addss  xmm0,xmm2
    21d2:	f3 0f 59 c1          	mulss  xmm0,xmm1
    21d6:	48 8b 45 e8          	mov    rax,QWORD PTR [rbp-0x18]
    21da:	f3 0f 10 50 44       	movss  xmm2,DWORD PTR [rax+0x44]
    21df:	48 8b 45 e8          	mov    rax,QWORD PTR [rbp-0x18]
    21e3:	f3 0f 10 48 44       	movss  xmm1,DWORD PTR [rax+0x44]
    21e8:	f3 0f 59 ca          	mulss  xmm1,xmm2
    21ec:	f3 0f 5c c1          	subss  xmm0,xmm1
    21f0:	0f 28 c8             	movaps xmm1,xmm0
    21f3:	48 8b 45 e8          	mov    rax,QWORD PTR [rbp-0x18]
    21f7:	f3 0f 10 40 50       	movss  xmm0,DWORD PTR [rax+0x50]
    21fc:	f3 0f 58 c0          	addss  xmm0,xmm0
    2200:	48 8b 45 e8          	mov    rax,QWORD PTR [rbp-0x18]
    2204:	f3 0f 10 50 74       	movss  xmm2,DWORD PTR [rax+0x74]
    2209:	f3 0f 59 c2          	mulss  xmm0,xmm2
    220d:	f3 0f 5c c8          	subss  xmm1,xmm0
    2211:	0f 28 c1             	movaps xmm0,xmm1
    2214:	48 8b 45 e8          	mov    rax,QWORD PTR [rbp-0x18]
    2218:	f3 0f 10 50 7c       	movss  xmm2,DWORD PTR [rax+0x7c]
    221d:	48 8b 45 e8          	mov    rax,QWORD PTR [rbp-0x18]
    2221:	f3 0f 10 48 7c       	movss  xmm1,DWORD PTR [rax+0x7c]
    2226:	f3 0f 59 ca          	mulss  xmm1,xmm2
    222a:	f3 0f 5c c1          	subss  xmm0,xmm1
    222e:	f3 0f 11 45 f8       	movss  DWORD PTR [rbp-0x8],xmm0
    2233:	48 8b 45 e8          	mov    rax,QWORD PTR [rbp-0x18]
    2237:	f3 0f 10 48 14       	movss  xmm1,DWORD PTR [rax+0x14]
    223c:	48 8b 45 e8          	mov    rax,QWORD PTR [rbp-0x18]
    2240:	f3 0f 10 40 14       	movss  xmm0,DWORD PTR [rax+0x14]
    2245:	f3 0f 59 c8          	mulss  xmm1,xmm0
    2249:	48 8b 45 e8          	mov    rax,QWORD PTR [rbp-0x18]
    224d:	f3 0f 10 50 18       	movss  xmm2,DWORD PTR [rax+0x18]
    2252:	48 8b 45 e8          	mov    rax,QWORD PTR [rbp-0x18]
    2256:	f3 0f 10 40 18       	movss  xmm0,DWORD PTR [rax+0x18]
    225b:	f3 0f 59 c2          	mulss  xmm0,xmm2
    225f:	f3 0f 58 c1          	addss  xmm0,xmm1
    2263:	f3 0f 58 c0          	addss  xmm0,xmm0
    2267:	f3 0f 5a c0          	cvtss2sd xmm0,xmm0
    226b:	f2 0f 10 0d 00 00 00 	movsd  xmm1,QWORD PTR [rip+0x0]        # 2273 <_ZN9simulator14calcVelocitiesEii+0x7b5>
    2272:	00 
    2273:	f2 0f 5e c8          	divsd  xmm1,xmm0
    2277:	f2 0f 11 4d d8       	movsd  QWORD PTR [rbp-0x28],xmm1
    227c:	8b 45 e4             	mov    eax,DWORD PTR [rbp-0x1c]
    227f:	8d 70 01             	lea    esi,[rax+0x1]
    2282:	48 8b 45 e8          	mov    rax,QWORD PTR [rbp-0x18]
    2286:	48 8d 88 00 01 00 00 	lea    rcx,[rax+0x100]
    228d:	8b 45 e0             	mov    eax,DWORD PTR [rbp-0x20]
    2290:	89 c2                	mov    edx,eax
    2292:	48 89 cf             	mov    rdi,rcx
    2295:	e8 00 00 00 00       	call   229a <_ZN9simulator14calcVelocitiesEii+0x7dc>
    229a:	f3 0f 11 45 d4       	movss  DWORD PTR [rbp-0x2c],xmm0
    229f:	8b 45 e4             	mov    eax,DWORD PTR [rbp-0x1c]
    22a2:	8d 70 ff             	lea    esi,[rax-0x1]
    22a5:	48 8b 45 e8          	mov    rax,QWORD PTR [rbp-0x18]
    22a9:	48 8d 88 00 01 00 00 	lea    rcx,[rax+0x100]
    22b0:	8b 45 e0             	mov    eax,DWORD PTR [rbp-0x20]
    22b3:	89 c2                	mov    edx,eax
    22b5:	48 89 cf             	mov    rdi,rcx
    22b8:	e8 00 00 00 00       	call   22bd <_ZN9simulator14calcVelocitiesEii+0x7ff>
    22bd:	f3 0f 58 45 d4       	addss  xmm0,DWORD PTR [rbp-0x2c]
    22c2:	48 8b 45 e8          	mov    rax,QWORD PTR [rbp-0x18]
    22c6:	f3 0f 10 48 18       	movss  xmm1,DWORD PTR [rax+0x18]
    22cb:	f3 0f 59 c1          	mulss  xmm0,xmm1
    22cf:	48 8b 45 e8          	mov    rax,QWORD PTR [rbp-0x18]
    22d3:	f3 0f 10 48 18       	movss  xmm1,DWORD PTR [rax+0x18]
    22d8:	f3 0f 59 c1          	mulss  xmm0,xmm1
    22dc:	f3 0f 11 45 d4       	movss  DWORD PTR [rbp-0x2c],xmm0
    22e1:	8b 45 e0             	mov    eax,DWORD PTR [rbp-0x20]
    22e4:	8d 50 01             	lea    edx,[rax+0x1]
    22e7:	48 8b 45 e8          	mov    rax,QWORD PTR [rbp-0x18]
    22eb:	48 8d 88 00 01 00 00 	lea    rcx,[rax+0x100]
    22f2:	8b 45 e4             	mov    eax,DWORD PTR [rbp-0x1c]
    22f5:	89 c6                	mov    esi,eax
    22f7:	48 89 cf             	mov    rdi,rcx
    22fa:	e8 00 00 00 00       	call   22ff <_ZN9simulator14calcVelocitiesEii+0x841>
    22ff:	f3 0f 11 45 d0       	movss  DWORD PTR [rbp-0x30],xmm0
    2304:	8b 45 e0             	mov    eax,DWORD PTR [rbp-0x20]
    2307:	8d 50 ff             	lea    edx,[rax-0x1]
    230a:	48 8b 45 e8          	mov    rax,QWORD PTR [rbp-0x18]
    230e:	48 8d 88 00 01 00 00 	lea    rcx,[rax+0x100]
    2315:	8b 45 e4             	mov    eax,DWORD PTR [rbp-0x1c]
    2318:	89 c6                	mov    esi,eax
    231a:	48 89 cf             	mov    rdi,rcx
    231d:	e8 00 00 00 00       	call   2322 <_ZN9simulator14calcVelocitiesEii+0x864>
    2322:	f3 0f 58 45 d0       	addss  xmm0,DWORD PTR [rbp-0x30]
    2327:	48 8b 45 e8          	mov    rax,QWORD PTR [rbp-0x18]
    232b:	f3 0f 10 48 14       	movss  xmm1,DWORD PTR [rax+0x14]
    2330:	f3 0f 59 c1          	mulss  xmm0,xmm1
    2334:	48 8b 45 e8          	mov    rax,QWORD PTR [rbp-0x18]
    2338:	f3 0f 10 48 14       	movss  xmm1,DWORD PTR [rax+0x14]
    233d:	f3 0f 59 c1          	mulss  xmm0,xmm1
    2341:	f3 0f 58 45 d4       	addss  xmm0,DWORD PTR [rbp-0x2c]
    2346:	f3 0f 5a c0          	cvtss2sd xmm0,xmm0
    234a:	f2 0f 10 4d d8       	movsd  xmm1,QWORD PTR [rbp-0x28]
    234f:	f2 0f 59 c8          	mulsd  xmm1,xmm0
    2353:	48 8b 45 e8          	mov    rax,QWORD PTR [rbp-0x18]
    2357:	f3 0f 10 50 10       	movss  xmm2,DWORD PTR [rax+0x10]
    235c:	48 8b 45 e8          	mov    rax,QWORD PTR [rbp-0x18]
    2360:	f3 0f 10 40 14       	movss  xmm0,DWORD PTR [rax+0x14]
    2365:	f3 0f 59 c2          	mulss  xmm0,xmm2
    2369:	48 8b 45 e8          	mov    rax,QWORD PTR [rbp-0x18]
    236d:	f3 0f 10 50 14       	movss  xmm2,DWORD PTR [rax+0x14]
    2372:	f3 0f 59 c2          	mulss  xmm0,xmm2
    2376:	48 8b 45 e8          	mov    rax,QWORD PTR [rbp-0x18]
    237a:	f3 0f 10 50 18       	movss  xmm2,DWORD PTR [rax+0x18]
    237f:	f3 0f 59 c2          	mulss  xmm0,xmm2
    2383:	48 8b 45 e8          	mov    rax,QWORD PTR [rbp-0x18]
    2387:	f3 0f 10 50 18       	movss  xmm2,DWORD PTR [rax+0x18]
    238c:	f3 0f 59 d0          	mulss  xmm2,xmm0
    2390:	48 8b 45 e8          	mov    rax,QWORD PTR [rbp-0x18]
    2394:	f3 0f 10 40 14       	movss  xmm0,DWORD PTR [rax+0x14]
    2399:	f3 0f 58 c0          	addss  xmm0,xmm0
    239d:	48 8b 45 e8          	mov    rax,QWORD PTR [rbp-0x18]
    23a1:	f3 0f 10 58 14       	movss  xmm3,DWORD PTR [rax+0x14]
    23a6:	f3 0f 59 d8          	mulss  xmm3,xmm0
    23aa:	48 8b 45 e8          	mov    rax,QWORD PTR [rbp-0x18]
    23ae:	f3 0f 10 40 18       	movss  xmm0,DWORD PTR [rax+0x18]
    23b3:	f3 0f 58 c0          	addss  xmm0,xmm0
    23b7:	48 8b 45 e8          	mov    rax,QWORD PTR [rbp-0x18]
    23bb:	f3 0f 10 60 18       	movss  xmm4,DWORD PTR [rax+0x18]
    23c0:	f3 0f 59 c4          	mulss  xmm0,xmm4
    23c4:	f3 0f 58 c3          	addss  xmm0,xmm3
    23c8:	f3 0f 5e d0          	divss  xmm2,xmm0
    23cc:	0f 28 c2             	movaps xmm0,xmm2
    23cf:	f3 0f 59 45 f8       	mulss  xmm0,DWORD PTR [rbp-0x8]
    23d4:	f3 0f 5a c0          	cvtss2sd xmm0,xmm0
    23d8:	f2 0f 5c c8          	subsd  xmm1,xmm0
    23dc:	66 0f 28 c1          	movapd xmm0,xmm1
    23e0:	f2 0f 5a f0          	cvtsd2ss xmm6,xmm0
    23e4:	f3 0f 11 75 fc       	movss  DWORD PTR [rbp-0x4],xmm6
    23e9:	48 8b 45 e8          	mov    rax,QWORD PTR [rbp-0x18]
    23ed:	48 8d b8 30 01 00 00 	lea    rdi,[rax+0x130]
    23f4:	8b 4d fc             	mov    ecx,DWORD PTR [rbp-0x4]
    23f7:	8b 55 e0             	mov    edx,DWORD PTR [rbp-0x20]
    23fa:	8b 45 e4             	mov    eax,DWORD PTR [rbp-0x1c]
    23fd:	89 4d d8             	mov    DWORD PTR [rbp-0x28],ecx
    2400:	f3 0f 10 45 d8       	movss  xmm0,DWORD PTR [rbp-0x28]
    2405:	89 c6                	mov    esi,eax
    2407:	e8 00 00 00 00       	call   240c <_ZN9simulator14calcVelocitiesEii+0x94e>
    240c:	90                   	nop
    240d:	c9                   	leave  
    240e:	c3                   	ret    
    240f:	90                   	nop

0000000000002410 <_ZN9simulator9calcTermsEii>:
    2410:	55                   	push   rbp
    2411:	48 89 e5             	mov    rbp,rsp
    2414:	48 83 ec 18          	sub    rsp,0x18
    2418:	48 89 7d f8          	mov    QWORD PTR [rbp-0x8],rdi
    241c:	89 75 f4             	mov    DWORD PTR [rbp-0xc],esi
    241f:	89 55 f0             	mov    DWORD PTR [rbp-0x10],edx
    2422:	8b 45 f4             	mov    eax,DWORD PTR [rbp-0xc]
    2425:	8d 70 01             	lea    esi,[rax+0x1]
    2428:	48 8b 45 f8          	mov    rax,QWORD PTR [rbp-0x8]
    242c:	48 8d 88 e0 00 00 00 	lea    rcx,[rax+0xe0]
    2433:	8b 45 f0             	mov    eax,DWORD PTR [rbp-0x10]
    2436:	89 c2                	mov    edx,eax
    2438:	48 89 cf             	mov    rdi,rcx
    243b:	e8 00 00 00 00       	call   2440 <_ZN9simulator9calcTermsEii+0x30>
    2440:	f3 0f 11 45 e8       	movss  DWORD PTR [rbp-0x18],xmm0
    2445:	8b 45 f4             	mov    eax,DWORD PTR [rbp-0xc]
    2448:	8d 70 ff             	lea    esi,[rax-0x1]
    244b:	48 8b 45 f8          	mov    rax,QWORD PTR [rbp-0x8]
    244f:	48 8d 88 e0 00 00 00 	lea    rcx,[rax+0xe0]
    2456:	8b 45 f0             	mov    eax,DWORD PTR [rbp-0x10]
    2459:	89 c2                	mov    edx,eax
    245b:	48 89 cf             	mov    rdi,rcx
    245e:	e8 00 00 00 00       	call   2463 <_ZN9simulator9calcTermsEii+0x53>
    2463:	f3 0f 10 5d e8       	movss  xmm3,DWORD PTR [rbp-0x18]
    2468:	f3 0f 5c d8          	subss  xmm3,xmm0
    246c:	0f 28 c3             	movaps xmm0,xmm3
    246f:	f3 0f 5a c8          	cvtss2sd xmm1,xmm0
    2473:	48 8b 45 f8          	mov    rax,QWORD PTR [rbp-0x8]
    2477:	f3 0f 10 40 14       	movss  xmm0,DWORD PTR [rax+0x14]
    247c:	f3 0f 5a c0          	cvtss2sd xmm0,xmm0
    2480:	f2 0f 58 c0          	addsd  xmm0,xmm0
    2484:	f2 0f 5e c8          	divsd  xmm1,xmm0
    2488:	66 0f 28 c1          	movapd xmm0,xmm1
    248c:	f2 0f 5a c0          	cvtsd2ss xmm0,xmm0
    2490:	48 8b 45 f8          	mov    rax,QWORD PTR [rbp-0x8]
    2494:	f3 0f 11 40 44       	movss  DWORD PTR [rax+0x44],xmm0
    2499:	8b 45 f4             	mov    eax,DWORD PTR [rbp-0xc]
    249c:	8d 70 01             	lea    esi,[rax+0x1]
    249f:	48 8b 45 f8          	mov    rax,QWORD PTR [rbp-0x8]
    24a3:	48 8d 88 10 01 00 00 	lea    rcx,[rax+0x110]
    24aa:	8b 45 f0             	mov    eax,DWORD PTR [rbp-0x10]
    24ad:	89 c2                	mov    edx,eax
    24af:	48 89 cf             	mov    rdi,rcx
    24b2:	e8 00 00 00 00       	call   24b7 <_ZN9simulator9calcTermsEii+0xa7>
    24b7:	f3 0f 11 45 e8       	movss  DWORD PTR [rbp-0x18],xmm0
    24bc:	8b 45 f4             	mov    eax,DWORD PTR [rbp-0xc]
    24bf:	8d 70 ff             	lea    esi,[rax-0x1]
    24c2:	48 8b 45 f8          	mov    rax,QWORD PTR [rbp-0x8]
    24c6:	48 8d 88 10 01 00 00 	lea    rcx,[rax+0x110]
    24cd:	8b 45 f0             	mov    eax,DWORD PTR [rbp-0x10]
    24d0:	89 c2                	mov    edx,eax
    24d2:	48 89 cf             	mov    rdi,rcx
    24d5:	e8 00 00 00 00       	call   24da <_ZN9simulator9calcTermsEii+0xca>
    24da:	f3 0f 10 65 e8       	movss  xmm4,DWORD PTR [rbp-0x18]
    24df:	f3 0f 5c e0          	subss  xmm4,xmm0
    24e3:	0f 28 c4             	movaps xmm0,xmm4
    24e6:	f3 0f 5a c8          	cvtss2sd xmm1,xmm0
    24ea:	48 8b 45 f8          	mov    rax,QWORD PTR [rbp-0x8]
    24ee:	f3 0f 10 40 14       	movss  xmm0,DWORD PTR [rax+0x14]
    24f3:	f3 0f 5a c0          	cvtss2sd xmm0,xmm0
    24f7:	f2 0f 58 c0          	addsd  xmm0,xmm0
    24fb:	f2 0f 5e c8          	divsd  xmm1,xmm0
    24ff:	66 0f 28 c1          	movapd xmm0,xmm1
    2503:	f2 0f 5a c0          	cvtsd2ss xmm0,xmm0
    2507:	48 8b 45 f8          	mov    rax,QWORD PTR [rbp-0x8]
    250b:	f3 0f 11 40 48       	movss  DWORD PTR [rax+0x48],xmm0
    2510:	8b 45 f0             	mov    eax,DWORD PTR [rbp-0x10]
    2513:	8d 50 01             	lea    edx,[rax+0x1]
    2516:	48 8b 45 f8          	mov    rax,QWORD PTR [rbp-0x8]
    251a:	48 8d 88 e0 00 00 00 	lea    rcx,[rax+0xe0]
    2521:	8b 45 f4             	mov    eax,DWORD PTR [rbp-0xc]
    2524:	89 c6                	mov    esi,eax
    2526:	48 89 cf             	mov    rdi,rcx
    2529:	e8 00 00 00 00       	call   252e <_ZN9simulator9calcTermsEii+0x11e>
    252e:	f3 0f 11 45 e8       	movss  DWORD PTR [rbp-0x18],xmm0
    2533:	8b 45 f0             	mov    eax,DWORD PTR [rbp-0x10]
    2536:	8d 50 ff             	lea    edx,[rax-0x1]
    2539:	48 8b 45 f8          	mov    rax,QWORD PTR [rbp-0x8]
    253d:	48 8d 88 e0 00 00 00 	lea    rcx,[rax+0xe0]
    2544:	8b 45 f4             	mov    eax,DWORD PTR [rbp-0xc]
    2547:	89 c6                	mov    esi,eax
    2549:	48 89 cf             	mov    rdi,rcx
    254c:	e8 00 00 00 00       	call   2551 <_ZN9simulator9calcTermsEii+0x141>
    2551:	f3 0f 10 6d e8       	movss  xmm5,DWORD PTR [rbp-0x18]
    2556:	f3 0f 5c e8          	subss  xmm5,xmm0
    255a:	0f 28 c5             	movaps xmm0,xmm5
    255d:	f3 0f 5a c8          	cvtss2sd xmm1,xmm0
    2561:	48 8b 45 f8          	mov    rax,QWORD PTR [rbp-0x8]
    2565:	f3 0f 10 40 18       	movss  xmm0,DWORD PTR [rax+0x18]
    256a:	f3 0f 5a c0          	cvtss2sd xmm0,xmm0
    256e:	f2 0f 58 c0          	addsd  xmm0,xmm0
    2572:	f2 0f 5e c8          	divsd  xmm1,xmm0
    2576:	66 0f 28 c1          	movapd xmm0,xmm1
    257a:	f2 0f 5a c0          	cvtsd2ss xmm0,xmm0
    257e:	48 8b 45 f8          	mov    rax,QWORD PTR [rbp-0x8]
    2582:	f3 0f 11 40 50       	movss  DWORD PTR [rax+0x50],xmm0
    2587:	8b 45 f0             	mov    eax,DWORD PTR [rbp-0x10]
    258a:	8d 50 01             	lea    edx,[rax+0x1]
    258d:	48 8b 45 f8          	mov    rax,QWORD PTR [rbp-0x8]
    2591:	48 8d 88 10 01 00 00 	lea    rcx,[rax+0x110]
    2598:	8b 45 f4             	mov    eax,DWORD PTR [rbp-0xc]
    259b:	89 c6                	mov    esi,eax
    259d:	48 89 cf             	mov    rdi,rcx
    25a0:	e8 00 00 00 00       	call   25a5 <_ZN9simulator9calcTermsEii+0x195>
    25a5:	f3 0f 11 45 e8       	movss  DWORD PTR [rbp-0x18],xmm0
    25aa:	8b 45 f0             	mov    eax,DWORD PTR [rbp-0x10]
    25ad:	8d 50 ff             	lea    edx,[rax-0x1]
    25b0:	48 8b 45 f8          	mov    rax,QWORD PTR [rbp-0x8]
    25b4:	48 8d 88 10 01 00 00 	lea    rcx,[rax+0x110]
    25bb:	8b 45 f4             	mov    eax,DWORD PTR [rbp-0xc]
    25be:	89 c6                	mov    esi,eax
    25c0:	48 89 cf             	mov    rdi,rcx
    25c3:	e8 00 00 00 00       	call   25c8 <_ZN9simulator9calcTermsEii+0x1b8>
    25c8:	f3 0f 10 75 e8       	movss  xmm6,DWORD PTR [rbp-0x18]
    25cd:	f3 0f 5c f0          	subss  xmm6,xmm0
    25d1:	0f 28 c6             	movaps xmm0,xmm6
    25d4:	f3 0f 5a c8          	cvtss2sd xmm1,xmm0
    25d8:	48 8b 45 f8          	mov    rax,QWORD PTR [rbp-0x8]
    25dc:	f3 0f 10 40 18       	movss  xmm0,DWORD PTR [rax+0x18]
    25e1:	f3 0f 5a c0          	cvtss2sd xmm0,xmm0
    25e5:	f2 0f 58 c0          	addsd  xmm0,xmm0
    25e9:	f2 0f 5e c8          	divsd  xmm1,xmm0
    25ed:	66 0f 28 c1          	movapd xmm0,xmm1
    25f1:	f2 0f 5a c0          	cvtsd2ss xmm0,xmm0
    25f5:	48 8b 45 f8          	mov    rax,QWORD PTR [rbp-0x8]
    25f9:	f3 0f 11 40 4c       	movss  DWORD PTR [rax+0x4c],xmm0
    25fe:	8b 45 f4             	mov    eax,DWORD PTR [rbp-0xc]
    2601:	8d 70 01             	lea    esi,[rax+0x1]
    2604:	48 8b 45 f8          	mov    rax,QWORD PTR [rbp-0x8]
    2608:	48 8d 88 e0 00 00 00 	lea    rcx,[rax+0xe0]
    260f:	8b 45 f0             	mov    eax,DWORD PTR [rbp-0x10]
    2612:	89 c2                	mov    edx,eax
    2614:	48 89 cf             	mov    rdi,rcx
    2617:	e8 00 00 00 00       	call   261c <_ZN9simulator9calcTermsEii+0x20c>
    261c:	f3 0f 5a f8          	cvtss2sd xmm7,xmm0
    2620:	f2 0f 11 7d e8       	movsd  QWORD PTR [rbp-0x18],xmm7
    2625:	48 8b 45 f8          	mov    rax,QWORD PTR [rbp-0x8]
    2629:	48 8d 88 e0 00 00 00 	lea    rcx,[rax+0xe0]
    2630:	8b 55 f0             	mov    edx,DWORD PTR [rbp-0x10]
    2633:	8b 45 f4             	mov    eax,DWORD PTR [rbp-0xc]
    2636:	89 c6                	mov    esi,eax
    2638:	48 89 cf             	mov    rdi,rcx
    263b:	e8 00 00 00 00       	call   2640 <_ZN9simulator9calcTermsEii+0x230>
    2640:	f3 0f 5a c0          	cvtss2sd xmm0,xmm0
    2644:	f2 0f 58 c0          	addsd  xmm0,xmm0
    2648:	f2 0f 10 7d e8       	movsd  xmm7,QWORD PTR [rbp-0x18]
    264d:	f2 0f 5c f8          	subsd  xmm7,xmm0
    2651:	f2 0f 11 7d e8       	movsd  QWORD PTR [rbp-0x18],xmm7
    2656:	8b 45 f4             	mov    eax,DWORD PTR [rbp-0xc]
    2659:	8d 70 ff             	lea    esi,[rax-0x1]
    265c:	48 8b 45 f8          	mov    rax,QWORD PTR [rbp-0x8]
    2660:	48 8d 88 e0 00 00 00 	lea    rcx,[rax+0xe0]
    2667:	8b 45 f0             	mov    eax,DWORD PTR [rbp-0x10]
    266a:	89 c2                	mov    edx,eax
    266c:	48 89 cf             	mov    rdi,rcx
    266f:	e8 00 00 00 00       	call   2674 <_ZN9simulator9calcTermsEii+0x264>
    2674:	f3 0f 5a c0          	cvtss2sd xmm0,xmm0
    2678:	f2 0f 58 45 e8       	addsd  xmm0,QWORD PTR [rbp-0x18]
    267d:	48 8b 45 f8          	mov    rax,QWORD PTR [rbp-0x8]
    2681:	f3 0f 10 50 14       	movss  xmm2,DWORD PTR [rax+0x14]
    2686:	48 8b 45 f8          	mov    rax,QWORD PTR [rbp-0x8]
    268a:	f3 0f 10 48 14       	movss  xmm1,DWORD PTR [rax+0x14]
    268f:	f3 0f 59 ca          	mulss  xmm1,xmm2
    2693:	f3 0f 5a c9          	cvtss2sd xmm1,xmm1
    2697:	f2 0f 5e c1          	divsd  xmm0,xmm1
    269b:	f2 0f 5a c0          	cvtsd2ss xmm0,xmm0
    269f:	48 8b 45 f8          	mov    rax,QWORD PTR [rbp-0x8]
    26a3:	f3 0f 11 40 54       	movss  DWORD PTR [rax+0x54],xmm0
    26a8:	8b 45 f4             	mov    eax,DWORD PTR [rbp-0xc]
    26ab:	8d 70 01             	lea    esi,[rax+0x1]
    26ae:	48 8b 45 f8          	mov    rax,QWORD PTR [rbp-0x8]
    26b2:	48 8d 88 10 01 00 00 	lea    rcx,[rax+0x110]
    26b9:	8b 45 f0             	mov    eax,DWORD PTR [rbp-0x10]
    26bc:	89 c2                	mov    edx,eax
    26be:	48 89 cf             	mov    rdi,rcx
    26c1:	e8 00 00 00 00       	call   26c6 <_ZN9simulator9calcTermsEii+0x2b6>
    26c6:	f3 0f 5a d8          	cvtss2sd xmm3,xmm0
    26ca:	f2 0f 11 5d e8       	movsd  QWORD PTR [rbp-0x18],xmm3
    26cf:	48 8b 45 f8          	mov    rax,QWORD PTR [rbp-0x8]
    26d3:	48 8d 88 10 01 00 00 	lea    rcx,[rax+0x110]
    26da:	8b 55 f0             	mov    edx,DWORD PTR [rbp-0x10]
    26dd:	8b 45 f4             	mov    eax,DWORD PTR [rbp-0xc]
    26e0:	89 c6                	mov    esi,eax
    26e2:	48 89 cf             	mov    rdi,rcx
    26e5:	e8 00 00 00 00       	call   26ea <_ZN9simulator9calcTermsEii+0x2da>
    26ea:	f3 0f 5a c0          	cvtss2sd xmm0,xmm0
    26ee:	f2 0f 58 c0          	addsd  xmm0,xmm0
    26f2:	f2 0f 10 5d e8       	movsd  xmm3,QWORD PTR [rbp-0x18]
    26f7:	f2 0f 5c d8          	subsd  xmm3,xmm0
    26fb:	f2 0f 11 5d e8       	movsd  QWORD PTR [rbp-0x18],xmm3
    2700:	8b 45 f4             	mov    eax,DWORD PTR [rbp-0xc]
    2703:	8d 70 ff             	lea    esi,[rax-0x1]
    2706:	48 8b 45 f8          	mov    rax,QWORD PTR [rbp-0x8]
    270a:	48 8d 88 10 01 00 00 	lea    rcx,[rax+0x110]
    2711:	8b 45 f0             	mov    eax,DWORD PTR [rbp-0x10]
    2714:	89 c2                	mov    edx,eax
    2716:	48 89 cf             	mov    rdi,rcx
    2719:	e8 00 00 00 00       	call   271e <_ZN9simulator9calcTermsEii+0x30e>
    271e:	f3 0f 5a c0          	cvtss2sd xmm0,xmm0
    2722:	f2 0f 58 45 e8       	addsd  xmm0,QWORD PTR [rbp-0x18]
    2727:	48 8b 45 f8          	mov    rax,QWORD PTR [rbp-0x8]
    272b:	f3 0f 10 50 14       	movss  xmm2,DWORD PTR [rax+0x14]
    2730:	48 8b 45 f8          	mov    rax,QWORD PTR [rbp-0x8]
    2734:	f3 0f 10 48 14       	movss  xmm1,DWORD PTR [rax+0x14]
    2739:	f3 0f 59 ca          	mulss  xmm1,xmm2
    273d:	f3 0f 5a c9          	cvtss2sd xmm1,xmm1
    2741:	f2 0f 5e c1          	divsd  xmm0,xmm1
    2745:	f2 0f 5a c0          	cvtsd2ss xmm0,xmm0
    2749:	48 8b 45 f8          	mov    rax,QWORD PTR [rbp-0x8]
    274d:	f3 0f 11 40 58       	movss  DWORD PTR [rax+0x58],xmm0
    2752:	8b 45 f0             	mov    eax,DWORD PTR [rbp-0x10]
    2755:	8d 50 01             	lea    edx,[rax+0x1]
    2758:	48 8b 45 f8          	mov    rax,QWORD PTR [rbp-0x8]
    275c:	48 8d 88 e0 00 00 00 	lea    rcx,[rax+0xe0]
    2763:	8b 45 f4             	mov    eax,DWORD PTR [rbp-0xc]
    2766:	89 c6                	mov    esi,eax
    2768:	48 89 cf             	mov    rdi,rcx
    276b:	e8 00 00 00 00       	call   2770 <_ZN9simulator9calcTermsEii+0x360>
    2770:	f3 0f 5a e0          	cvtss2sd xmm4,xmm0
    2774:	f2 0f 11 65 e8       	movsd  QWORD PTR [rbp-0x18],xmm4
    2779:	48 8b 45 f8          	mov    rax,QWORD PTR [rbp-0x8]
    277d:	48 8d 88 e0 00 00 00 	lea    rcx,[rax+0xe0]
    2784:	8b 55 f0             	mov    edx,DWORD PTR [rbp-0x10]
    2787:	8b 45 f4             	mov    eax,DWORD PTR [rbp-0xc]
    278a:	89 c6                	mov    esi,eax
    278c:	48 89 cf             	mov    rdi,rcx
    278f:	e8 00 00 00 00       	call   2794 <_ZN9simulator9calcTermsEii+0x384>
    2794:	f3 0f 5a c0          	cvtss2sd xmm0,xmm0
    2798:	f2 0f 58 c0          	addsd  xmm0,xmm0
    279c:	f2 0f 10 65 e8       	movsd  xmm4,QWORD PTR [rbp-0x18]
    27a1:	f2 0f 5c e0          	subsd  xmm4,xmm0
    27a5:	f2 0f 11 65 e8       	movsd  QWORD PTR [rbp-0x18],xmm4
    27aa:	8b 45 f0             	mov    eax,DWORD PTR [rbp-0x10]
    27ad:	8d 50 ff             	lea    edx,[rax-0x1]
    27b0:	48 8b 45 f8          	mov    rax,QWORD PTR [rbp-0x8]
    27b4:	48 8d 88 e0 00 00 00 	lea    rcx,[rax+0xe0]
    27bb:	8b 45 f4             	mov    eax,DWORD PTR [rbp-0xc]
    27be:	89 c6                	mov    esi,eax
    27c0:	48 89 cf             	mov    rdi,rcx
    27c3:	e8 00 00 00 00       	call   27c8 <_ZN9simulator9calcTermsEii+0x3b8>
    27c8:	f3 0f 5a c0          	cvtss2sd xmm0,xmm0
    27cc:	f2 0f 58 45 e8       	addsd  xmm0,QWORD PTR [rbp-0x18]
    27d1:	48 8b 45 f8          	mov    rax,QWORD PTR [rbp-0x8]
    27d5:	f3 0f 10 50 18       	movss  xmm2,DWORD PTR [rax+0x18]
    27da:	48 8b 45 f8          	mov    rax,QWORD PTR [rbp-0x8]
    27de:	f3 0f 10 48 18       	movss  xmm1,DWORD PTR [rax+0x18]
    27e3:	f3 0f 59 ca          	mulss  xmm1,xmm2
    27e7:	f3 0f 5a c9          	cvtss2sd xmm1,xmm1
    27eb:	f2 0f 5e c1          	divsd  xmm0,xmm1
    27ef:	f2 0f 5a c0          	cvtsd2ss xmm0,xmm0
    27f3:	48 8b 45 f8          	mov    rax,QWORD PTR [rbp-0x8]
    27f7:	f3 0f 11 40 5c       	movss  DWORD PTR [rax+0x5c],xmm0
    27fc:	8b 45 f0             	mov    eax,DWORD PTR [rbp-0x10]
    27ff:	8d 50 01             	lea    edx,[rax+0x1]
    2802:	48 8b 45 f8          	mov    rax,QWORD PTR [rbp-0x8]
    2806:	48 8d 88 10 01 00 00 	lea    rcx,[rax+0x110]
    280d:	8b 45 f4             	mov    eax,DWORD PTR [rbp-0xc]
    2810:	89 c6                	mov    esi,eax
    2812:	48 89 cf             	mov    rdi,rcx
    2815:	e8 00 00 00 00       	call   281a <_ZN9simulator9calcTermsEii+0x40a>
    281a:	f3 0f 5a e8          	cvtss2sd xmm5,xmm0
    281e:	f2 0f 11 6d e8       	movsd  QWORD PTR [rbp-0x18],xmm5
    2823:	48 8b 45 f8          	mov    rax,QWORD PTR [rbp-0x8]
    2827:	48 8d 88 10 01 00 00 	lea    rcx,[rax+0x110]
    282e:	8b 55 f0             	mov    edx,DWORD PTR [rbp-0x10]
    2831:	8b 45 f4             	mov    eax,DWORD PTR [rbp-0xc]
    2834:	89 c6                	mov    esi,eax
    2836:	48 89 cf             	mov    rdi,rcx
    2839:	e8 00 00 00 00       	call   283e <_ZN9simulator9calcTermsEii+0x42e>
    283e:	f3 0f 5a c0          	cvtss2sd xmm0,xmm0
    2842:	f2 0f 58 c0          	addsd  xmm0,xmm0
    2846:	f2 0f 10 6d e8       	movsd  xmm5,QWORD PTR [rbp-0x18]
    284b:	f2 0f 5c e8          	subsd  xmm5,xmm0
    284f:	f2 0f 11 6d e8       	movsd  QWORD PTR [rbp-0x18],xmm5
    2854:	8b 45 f0             	mov    eax,DWORD PTR [rbp-0x10]
    2857:	8d 50 ff             	lea    edx,[rax-0x1]
    285a:	48 8b 45 f8          	mov    rax,QWORD PTR [rbp-0x8]
    285e:	48 8d 88 10 01 00 00 	lea    rcx,[rax+0x110]
    2865:	8b 45 f4             	mov    eax,DWORD PTR [rbp-0xc]
    2868:	89 c6                	mov    esi,eax
    286a:	48 89 cf             	mov    rdi,rcx
    286d:	e8 00 00 00 00       	call   2872 <_ZN9simulator9calcTermsEii+0x462>
    2872:	f3 0f 5a c0          	cvtss2sd xmm0,xmm0
    2876:	f2 0f 58 45 e8       	addsd  xmm0,QWORD PTR [rbp-0x18]
    287b:	48 8b 45 f8          	mov    rax,QWORD PTR [rbp-0x8]
    287f:	f3 0f 10 50 18       	movss  xmm2,DWORD PTR [rax+0x18]
    2884:	48 8b 45 f8          	mov    rax,QWORD PTR [rbp-0x8]
    2888:	f3 0f 10 48 18       	movss  xmm1,DWORD PTR [rax+0x18]
    288d:	f3 0f 59 ca          	mulss  xmm1,xmm2
    2891:	f3 0f 5a c9          	cvtss2sd xmm1,xmm1
    2895:	f2 0f 5e c1          	divsd  xmm0,xmm1
    2899:	f2 0f 5a c0          	cvtsd2ss xmm0,xmm0
    289d:	48 8b 45 f8          	mov    rax,QWORD PTR [rbp-0x8]
    28a1:	f3 0f 11 40 60       	movss  DWORD PTR [rax+0x60],xmm0
    28a6:	8b 45 f4             	mov    eax,DWORD PTR [rbp-0xc]
    28a9:	8d 70 01             	lea    esi,[rax+0x1]
    28ac:	48 8b 45 f8          	mov    rax,QWORD PTR [rbp-0x8]
    28b0:	48 8d 88 00 01 00 00 	lea    rcx,[rax+0x100]
    28b7:	8b 45 f0             	mov    eax,DWORD PTR [rbp-0x10]
    28ba:	89 c2                	mov    edx,eax
    28bc:	48 89 cf             	mov    rdi,rcx
    28bf:	e8 00 00 00 00       	call   28c4 <_ZN9simulator9calcTermsEii+0x4b4>
    28c4:	f3 0f 11 45 e8       	movss  DWORD PTR [rbp-0x18],xmm0
    28c9:	8b 45 f4             	mov    eax,DWORD PTR [rbp-0xc]
    28cc:	8d 70 ff             	lea    esi,[rax-0x1]
    28cf:	48 8b 45 f8          	mov    rax,QWORD PTR [rbp-0x8]
    28d3:	48 8d 88 00 01 00 00 	lea    rcx,[rax+0x100]
    28da:	8b 45 f0             	mov    eax,DWORD PTR [rbp-0x10]
    28dd:	89 c2                	mov    edx,eax
    28df:	48 89 cf             	mov    rdi,rcx
    28e2:	e8 00 00 00 00       	call   28e7 <_ZN9simulator9calcTermsEii+0x4d7>
    28e7:	f3 0f 10 75 e8       	movss  xmm6,DWORD PTR [rbp-0x18]
    28ec:	f3 0f 5c f0          	subss  xmm6,xmm0
    28f0:	0f 28 c6             	movaps xmm0,xmm6
    28f3:	f3 0f 5a c8          	cvtss2sd xmm1,xmm0
    28f7:	48 8b 45 f8          	mov    rax,QWORD PTR [rbp-0x8]
    28fb:	f3 0f 10 40 14       	movss  xmm0,DWORD PTR [rax+0x14]
    2900:	f3 0f 5a c0          	cvtss2sd xmm0,xmm0
    2904:	f2 0f 58 c0          	addsd  xmm0,xmm0
    2908:	f2 0f 5e c8          	divsd  xmm1,xmm0
    290c:	66 0f 28 c1          	movapd xmm0,xmm1
    2910:	f2 0f 5a c0          	cvtsd2ss xmm0,xmm0
    2914:	48 8b 45 f8          	mov    rax,QWORD PTR [rbp-0x8]
    2918:	f3 0f 11 40 64       	movss  DWORD PTR [rax+0x64],xmm0
    291d:	8b 45 f4             	mov    eax,DWORD PTR [rbp-0xc]
    2920:	8d 70 01             	lea    esi,[rax+0x1]
    2923:	48 8b 45 f8          	mov    rax,QWORD PTR [rbp-0x8]
    2927:	48 8d 88 30 01 00 00 	lea    rcx,[rax+0x130]
    292e:	8b 45 f0             	mov    eax,DWORD PTR [rbp-0x10]
    2931:	89 c2                	mov    edx,eax
    2933:	48 89 cf             	mov    rdi,rcx
    2936:	e8 00 00 00 00       	call   293b <_ZN9simulator9calcTermsEii+0x52b>
    293b:	f3 0f 11 45 e8       	movss  DWORD PTR [rbp-0x18],xmm0
    2940:	8b 45 f4             	mov    eax,DWORD PTR [rbp-0xc]
    2943:	8d 70 ff             	lea    esi,[rax-0x1]
    2946:	48 8b 45 f8          	mov    rax,QWORD PTR [rbp-0x8]
    294a:	48 8d 88 30 01 00 00 	lea    rcx,[rax+0x130]
    2951:	8b 45 f0             	mov    eax,DWORD PTR [rbp-0x10]
    2954:	89 c2                	mov    edx,eax
    2956:	48 89 cf             	mov    rdi,rcx
    2959:	e8 00 00 00 00       	call   295e <_ZN9simulator9calcTermsEii+0x54e>
    295e:	f3 0f 10 75 e8       	movss  xmm6,DWORD PTR [rbp-0x18]
    2963:	f3 0f 5c f0          	subss  xmm6,xmm0
    2967:	0f 28 c6             	movaps xmm0,xmm6
    296a:	f3 0f 5a c8          	cvtss2sd xmm1,xmm0
    296e:	48 8b 45 f8          	mov    rax,QWORD PTR [rbp-0x8]
    2972:	f3 0f 10 40 14       	movss  xmm0,DWORD PTR [rax+0x14]
    2977:	f3 0f 5a c0          	cvtss2sd xmm0,xmm0
    297b:	f2 0f 58 c0          	addsd  xmm0,xmm0
    297f:	f2 0f 5e c8          	divsd  xmm1,xmm0
    2983:	66 0f 28 c1          	movapd xmm0,xmm1
    2987:	f2 0f 5a c0          	cvtsd2ss xmm0,xmm0
    298b:	48 8b 45 f8          	mov    rax,QWORD PTR [rbp-0x8]
    298f:	f3 0f 11 40 68       	movss  DWORD PTR [rax+0x68],xmm0
    2994:	8b 45 f0             	mov    eax,DWORD PTR [rbp-0x10]
    2997:	8d 50 01             	lea    edx,[rax+0x1]
    299a:	48 8b 45 f8          	mov    rax,QWORD PTR [rbp-0x8]
    299e:	48 8d 88 00 01 00 00 	lea    rcx,[rax+0x100]
    29a5:	8b 45 f4             	mov    eax,DWORD PTR [rbp-0xc]
    29a8:	89 c6                	mov    esi,eax
    29aa:	48 89 cf             	mov    rdi,rcx
    29ad:	e8 00 00 00 00       	call   29b2 <_ZN9simulator9calcTermsEii+0x5a2>
    29b2:	f3 0f 11 45 e8       	movss  DWORD PTR [rbp-0x18],xmm0
    29b7:	8b 45 f0             	mov    eax,DWORD PTR [rbp-0x10]
    29ba:	8d 50 ff             	lea    edx,[rax-0x1]
    29bd:	48 8b 45 f8          	mov    rax,QWORD PTR [rbp-0x8]
    29c1:	48 8d 88 00 01 00 00 	lea    rcx,[rax+0x100]
    29c8:	8b 45 f4             	mov    eax,DWORD PTR [rbp-0xc]
    29cb:	89 c6                	mov    esi,eax
    29cd:	48 89 cf             	mov    rdi,rcx
    29d0:	e8 00 00 00 00       	call   29d5 <_ZN9simulator9calcTermsEii+0x5c5>
    29d5:	f3 0f 10 7d e8       	movss  xmm7,DWORD PTR [rbp-0x18]
    29da:	f3 0f 5c f8          	subss  xmm7,xmm0
    29de:	0f 28 c7             	movaps xmm0,xmm7
    29e1:	f3 0f 5a c8          	cvtss2sd xmm1,xmm0
    29e5:	48 8b 45 f8          	mov    rax,QWORD PTR [rbp-0x8]
    29e9:	f3 0f 10 40 18       	movss  xmm0,DWORD PTR [rax+0x18]
    29ee:	f3 0f 5a c0          	cvtss2sd xmm0,xmm0
    29f2:	f2 0f 58 c0          	addsd  xmm0,xmm0
    29f6:	f2 0f 5e c8          	divsd  xmm1,xmm0
    29fa:	66 0f 28 c1          	movapd xmm0,xmm1
    29fe:	f2 0f 5a c0          	cvtsd2ss xmm0,xmm0
    2a02:	48 8b 45 f8          	mov    rax,QWORD PTR [rbp-0x8]
    2a06:	f3 0f 11 40 6c       	movss  DWORD PTR [rax+0x6c],xmm0
    2a0b:	8b 45 f0             	mov    eax,DWORD PTR [rbp-0x10]
    2a0e:	8d 50 01             	lea    edx,[rax+0x1]
    2a11:	48 8b 45 f8          	mov    rax,QWORD PTR [rbp-0x8]
    2a15:	48 8d 88 30 01 00 00 	lea    rcx,[rax+0x130]
    2a1c:	8b 45 f4             	mov    eax,DWORD PTR [rbp-0xc]
    2a1f:	89 c6                	mov    esi,eax
    2a21:	48 89 cf             	mov    rdi,rcx
    2a24:	e8 00 00 00 00       	call   2a29 <_ZN9simulator9calcTermsEii+0x619>
    2a29:	f3 0f 11 45 e8       	movss  DWORD PTR [rbp-0x18],xmm0
    2a2e:	8b 45 f0             	mov    eax,DWORD PTR [rbp-0x10]
    2a31:	8d 50 ff             	lea    edx,[rax-0x1]
    2a34:	48 8b 45 f8          	mov    rax,QWORD PTR [rbp-0x8]
    2a38:	48 8d 88 30 01 00 00 	lea    rcx,[rax+0x130]
    2a3f:	8b 45 f4             	mov    eax,DWORD PTR [rbp-0xc]
    2a42:	89 c6                	mov    esi,eax
    2a44:	48 89 cf             	mov    rdi,rcx
    2a47:	e8 00 00 00 00       	call   2a4c <_ZN9simulator9calcTermsEii+0x63c>
    2a4c:	f3 0f 10 75 e8       	movss  xmm6,DWORD PTR [rbp-0x18]
    2a51:	f3 0f 5c f0          	subss  xmm6,xmm0
    2a55:	0f 28 c6             	movaps xmm0,xmm6
    2a58:	f3 0f 5a c8          	cvtss2sd xmm1,xmm0
    2a5c:	48 8b 45 f8          	mov    rax,QWORD PTR [rbp-0x8]
    2a60:	f3 0f 10 40 18       	movss  xmm0,DWORD PTR [rax+0x18]
    2a65:	f3 0f 5a c0          	cvtss2sd xmm0,xmm0
    2a69:	f2 0f 58 c0          	addsd  xmm0,xmm0
    2a6d:	f2 0f 5e c8          	divsd  xmm1,xmm0
    2a71:	66 0f 28 c1          	movapd xmm0,xmm1
    2a75:	f2 0f 5a c0          	cvtsd2ss xmm0,xmm0
    2a79:	48 8b 45 f8          	mov    rax,QWORD PTR [rbp-0x8]
    2a7d:	f3 0f 11 40 70       	movss  DWORD PTR [rax+0x70],xmm0
    2a82:	8b 45 f4             	mov    eax,DWORD PTR [rbp-0xc]
    2a85:	8d 70 01             	lea    esi,[rax+0x1]
    2a88:	48 8b 45 f8          	mov    rax,QWORD PTR [rbp-0x8]
    2a8c:	48 8d 88 f0 00 00 00 	lea    rcx,[rax+0xf0]
    2a93:	8b 45 f0             	mov    eax,DWORD PTR [rbp-0x10]
    2a96:	89 c2                	mov    edx,eax
    2a98:	48 89 cf             	mov    rdi,rcx
    2a9b:	e8 00 00 00 00       	call   2aa0 <_ZN9simulator9calcTermsEii+0x690>
    2aa0:	f3 0f 11 45 e8       	movss  DWORD PTR [rbp-0x18],xmm0
    2aa5:	8b 45 f4             	mov    eax,DWORD PTR [rbp-0xc]
    2aa8:	8d 70 ff             	lea    esi,[rax-0x1]
    2aab:	48 8b 45 f8          	mov    rax,QWORD PTR [rbp-0x8]
    2aaf:	48 8d 88 f0 00 00 00 	lea    rcx,[rax+0xf0]
    2ab6:	8b 45 f0             	mov    eax,DWORD PTR [rbp-0x10]
    2ab9:	89 c2                	mov    edx,eax
    2abb:	48 89 cf             	mov    rdi,rcx
    2abe:	e8 00 00 00 00       	call   2ac3 <_ZN9simulator9calcTermsEii+0x6b3>
    2ac3:	f3 0f 10 5d e8       	movss  xmm3,DWORD PTR [rbp-0x18]
    2ac8:	f3 0f 5c d8          	subss  xmm3,xmm0
    2acc:	0f 28 c3             	movaps xmm0,xmm3
    2acf:	f3 0f 5a c8          	cvtss2sd xmm1,xmm0
    2ad3:	48 8b 45 f8          	mov    rax,QWORD PTR [rbp-0x8]
    2ad7:	f3 0f 10 40 14       	movss  xmm0,DWORD PTR [rax+0x14]
    2adc:	f3 0f 5a c0          	cvtss2sd xmm0,xmm0
    2ae0:	f2 0f 58 c0          	addsd  xmm0,xmm0
    2ae4:	f2 0f 5e c8          	divsd  xmm1,xmm0
    2ae8:	66 0f 28 c1          	movapd xmm0,xmm1
    2aec:	f2 0f 5a c0          	cvtsd2ss xmm0,xmm0
    2af0:	48 8b 45 f8          	mov    rax,QWORD PTR [rbp-0x8]
    2af4:	f3 0f 11 40 74       	movss  DWORD PTR [rax+0x74],xmm0
    2af9:	8b 45 f4             	mov    eax,DWORD PTR [rbp-0xc]
    2afc:	8d 70 01             	lea    esi,[rax+0x1]
    2aff:	48 8b 45 f8          	mov    rax,QWORD PTR [rbp-0x8]
    2b03:	48 8d 88 20 01 00 00 	lea    rcx,[rax+0x120]
    2b0a:	8b 45 f0             	mov    eax,DWORD PTR [rbp-0x10]
    2b0d:	89 c2                	mov    edx,eax
    2b0f:	48 89 cf             	mov    rdi,rcx
    2b12:	e8 00 00 00 00       	call   2b17 <_ZN9simulator9calcTermsEii+0x707>
    2b17:	f3 0f 11 45 e8       	movss  DWORD PTR [rbp-0x18],xmm0
    2b1c:	8b 45 f4             	mov    eax,DWORD PTR [rbp-0xc]
    2b1f:	8d 70 ff             	lea    esi,[rax-0x1]
    2b22:	48 8b 45 f8          	mov    rax,QWORD PTR [rbp-0x8]
    2b26:	48 8d 88 20 01 00 00 	lea    rcx,[rax+0x120]
    2b2d:	8b 45 f0             	mov    eax,DWORD PTR [rbp-0x10]
    2b30:	89 c2                	mov    edx,eax
    2b32:	48 89 cf             	mov    rdi,rcx
    2b35:	e8 00 00 00 00       	call   2b3a <_ZN9simulator9calcTermsEii+0x72a>
    2b3a:	f3 0f 10 65 e8       	movss  xmm4,DWORD PTR [rbp-0x18]
    2b3f:	f3 0f 5c e0          	subss  xmm4,xmm0
    2b43:	0f 28 c4             	movaps xmm0,xmm4
    2b46:	f3 0f 5a c8          	cvtss2sd xmm1,xmm0
    2b4a:	48 8b 45 f8          	mov    rax,QWORD PTR [rbp-0x8]
    2b4e:	f3 0f 10 40 14       	movss  xmm0,DWORD PTR [rax+0x14]
    2b53:	f3 0f 5a c0          	cvtss2sd xmm0,xmm0
    2b57:	f2 0f 58 c0          	addsd  xmm0,xmm0
    2b5b:	f2 0f 5e c8          	divsd  xmm1,xmm0
    2b5f:	66 0f 28 c1          	movapd xmm0,xmm1
    2b63:	f2 0f 5a c0          	cvtsd2ss xmm0,xmm0
    2b67:	48 8b 45 f8          	mov    rax,QWORD PTR [rbp-0x8]
    2b6b:	f3 0f 11 40 78       	movss  DWORD PTR [rax+0x78],xmm0
    2b70:	8b 45 f0             	mov    eax,DWORD PTR [rbp-0x10]
    2b73:	8d 50 01             	lea    edx,[rax+0x1]
    2b76:	48 8b 45 f8          	mov    rax,QWORD PTR [rbp-0x8]
    2b7a:	48 8d 88 f0 00 00 00 	lea    rcx,[rax+0xf0]
    2b81:	8b 45 f4             	mov    eax,DWORD PTR [rbp-0xc]
    2b84:	89 c6                	mov    esi,eax
    2b86:	48 89 cf             	mov    rdi,rcx
    2b89:	e8 00 00 00 00       	call   2b8e <_ZN9simulator9calcTermsEii+0x77e>
    2b8e:	f3 0f 11 45 e8       	movss  DWORD PTR [rbp-0x18],xmm0
    2b93:	8b 45 f0             	mov    eax,DWORD PTR [rbp-0x10]
    2b96:	8d 50 ff             	lea    edx,[rax-0x1]
    2b99:	48 8b 45 f8          	mov    rax,QWORD PTR [rbp-0x8]
    2b9d:	48 8d 88 f0 00 00 00 	lea    rcx,[rax+0xf0]
    2ba4:	8b 45 f4             	mov    eax,DWORD PTR [rbp-0xc]
    2ba7:	89 c6                	mov    esi,eax
    2ba9:	48 89 cf             	mov    rdi,rcx
    2bac:	e8 00 00 00 00       	call   2bb1 <_ZN9simulator9calcTermsEii+0x7a1>
    2bb1:	f3 0f 10 6d e8       	movss  xmm5,DWORD PTR [rbp-0x18]
    2bb6:	f3 0f 5c e8          	subss  xmm5,xmm0
    2bba:	0f 28 c5             	movaps xmm0,xmm5
    2bbd:	f3 0f 5a c8          	cvtss2sd xmm1,xmm0
    2bc1:	48 8b 45 f8          	mov    rax,QWORD PTR [rbp-0x8]
    2bc5:	f3 0f 10 40 18       	movss  xmm0,DWORD PTR [rax+0x18]
    2bca:	f3 0f 5a c0          	cvtss2sd xmm0,xmm0
    2bce:	f2 0f 58 c0          	addsd  xmm0,xmm0
    2bd2:	f2 0f 5e c8          	divsd  xmm1,xmm0
    2bd6:	66 0f 28 c1          	movapd xmm0,xmm1
    2bda:	f2 0f 5a c0          	cvtsd2ss xmm0,xmm0
    2bde:	48 8b 45 f8          	mov    rax,QWORD PTR [rbp-0x8]
    2be2:	f3 0f 11 40 7c       	movss  DWORD PTR [rax+0x7c],xmm0
    2be7:	8b 45 f0             	mov    eax,DWORD PTR [rbp-0x10]
    2bea:	8d 50 01             	lea    edx,[rax+0x1]
    2bed:	48 8b 45 f8          	mov    rax,QWORD PTR [rbp-0x8]
    2bf1:	48 8d 88 20 01 00 00 	lea    rcx,[rax+0x120]
    2bf8:	8b 45 f4             	mov    eax,DWORD PTR [rbp-0xc]
    2bfb:	89 c6                	mov    esi,eax
    2bfd:	48 89 cf             	mov    rdi,rcx
    2c00:	e8 00 00 00 00       	call   2c05 <_ZN9simulator9calcTermsEii+0x7f5>
    2c05:	f3 0f 11 45 e8       	movss  DWORD PTR [rbp-0x18],xmm0
    2c0a:	8b 45 f0             	mov    eax,DWORD PTR [rbp-0x10]
    2c0d:	8d 50 ff             	lea    edx,[rax-0x1]
    2c10:	48 8b 45 f8          	mov    rax,QWORD PTR [rbp-0x8]
    2c14:	48 8d 88 20 01 00 00 	lea    rcx,[rax+0x120]
    2c1b:	8b 45 f4             	mov    eax,DWORD PTR [rbp-0xc]
    2c1e:	89 c6                	mov    esi,eax
    2c20:	48 89 cf             	mov    rdi,rcx
    2c23:	e8 00 00 00 00       	call   2c28 <_ZN9simulator9calcTermsEii+0x818>
    2c28:	f3 0f 10 7d e8       	movss  xmm7,DWORD PTR [rbp-0x18]
    2c2d:	f3 0f 5c f8          	subss  xmm7,xmm0
    2c31:	0f 28 c7             	movaps xmm0,xmm7
    2c34:	f3 0f 5a c8          	cvtss2sd xmm1,xmm0
    2c38:	48 8b 45 f8          	mov    rax,QWORD PTR [rbp-0x8]
    2c3c:	f3 0f 10 40 18       	movss  xmm0,DWORD PTR [rax+0x18]
    2c41:	f3 0f 5a c0          	cvtss2sd xmm0,xmm0
    2c45:	f2 0f 58 c0          	addsd  xmm0,xmm0
    2c49:	f2 0f 5e c8          	divsd  xmm1,xmm0
    2c4d:	66 0f 28 c1          	movapd xmm0,xmm1
    2c51:	f2 0f 5a c0          	cvtsd2ss xmm0,xmm0
    2c55:	48 8b 45 f8          	mov    rax,QWORD PTR [rbp-0x8]
    2c59:	f3 0f 11 80 80 00 00 	movss  DWORD PTR [rax+0x80],xmm0
    2c60:	00 
    2c61:	8b 45 f4             	mov    eax,DWORD PTR [rbp-0xc]
    2c64:	8d 70 01             	lea    esi,[rax+0x1]
    2c67:	48 8b 45 f8          	mov    rax,QWORD PTR [rbp-0x8]
    2c6b:	48 8d 88 f0 00 00 00 	lea    rcx,[rax+0xf0]
    2c72:	8b 45 f0             	mov    eax,DWORD PTR [rbp-0x10]
    2c75:	89 c2                	mov    edx,eax
    2c77:	48 89 cf             	mov    rdi,rcx
    2c7a:	e8 00 00 00 00       	call   2c7f <_ZN9simulator9calcTermsEii+0x86f>
    2c7f:	f3 0f 5a f0          	cvtss2sd xmm6,xmm0
    2c83:	f2 0f 11 75 e8       	movsd  QWORD PTR [rbp-0x18],xmm6
    2c88:	48 8b 45 f8          	mov    rax,QWORD PTR [rbp-0x8]
    2c8c:	48 8d 88 f0 00 00 00 	lea    rcx,[rax+0xf0]
    2c93:	8b 55 f0             	mov    edx,DWORD PTR [rbp-0x10]
    2c96:	8b 45 f4             	mov    eax,DWORD PTR [rbp-0xc]
    2c99:	89 c6                	mov    esi,eax
    2c9b:	48 89 cf             	mov    rdi,rcx
    2c9e:	e8 00 00 00 00       	call   2ca3 <_ZN9simulator9calcTermsEii+0x893>
    2ca3:	f3 0f 5a c0          	cvtss2sd xmm0,xmm0
    2ca7:	f2 0f 58 c0          	addsd  xmm0,xmm0
    2cab:	f2 0f 10 75 e8       	movsd  xmm6,QWORD PTR [rbp-0x18]
    2cb0:	f2 0f 5c f0          	subsd  xmm6,xmm0
    2cb4:	f2 0f 11 75 e8       	movsd  QWORD PTR [rbp-0x18],xmm6
    2cb9:	8b 45 f4             	mov    eax,DWORD PTR [rbp-0xc]
    2cbc:	8d 70 ff             	lea    esi,[rax-0x1]
    2cbf:	48 8b 45 f8          	mov    rax,QWORD PTR [rbp-0x8]
    2cc3:	48 8d 88 f0 00 00 00 	lea    rcx,[rax+0xf0]
    2cca:	8b 45 f0             	mov    eax,DWORD PTR [rbp-0x10]
    2ccd:	89 c2                	mov    edx,eax
    2ccf:	48 89 cf             	mov    rdi,rcx
    2cd2:	e8 00 00 00 00       	call   2cd7 <_ZN9simulator9calcTermsEii+0x8c7>
    2cd7:	f3 0f 5a c0          	cvtss2sd xmm0,xmm0
    2cdb:	f2 0f 58 45 e8       	addsd  xmm0,QWORD PTR [rbp-0x18]
    2ce0:	48 8b 45 f8          	mov    rax,QWORD PTR [rbp-0x8]
    2ce4:	f3 0f 10 50 14       	movss  xmm2,DWORD PTR [rax+0x14]
    2ce9:	48 8b 45 f8          	mov    rax,QWORD PTR [rbp-0x8]
    2ced:	f3 0f 10 48 14       	movss  xmm1,DWORD PTR [rax+0x14]
    2cf2:	f3 0f 59 ca          	mulss  xmm1,xmm2
    2cf6:	f3 0f 5a c9          	cvtss2sd xmm1,xmm1
    2cfa:	f2 0f 5e c1          	divsd  xmm0,xmm1
    2cfe:	f2 0f 5a c0          	cvtsd2ss xmm0,xmm0
    2d02:	48 8b 45 f8          	mov    rax,QWORD PTR [rbp-0x8]
    2d06:	f3 0f 11 80 84 00 00 	movss  DWORD PTR [rax+0x84],xmm0
    2d0d:	00 
    2d0e:	8b 45 f4             	mov    eax,DWORD PTR [rbp-0xc]
    2d11:	8d 70 01             	lea    esi,[rax+0x1]
    2d14:	48 8b 45 f8          	mov    rax,QWORD PTR [rbp-0x8]
    2d18:	48 8d 88 20 01 00 00 	lea    rcx,[rax+0x120]
    2d1f:	8b 45 f0             	mov    eax,DWORD PTR [rbp-0x10]
    2d22:	89 c2                	mov    edx,eax
    2d24:	48 89 cf             	mov    rdi,rcx
    2d27:	e8 00 00 00 00       	call   2d2c <_ZN9simulator9calcTermsEii+0x91c>
    2d2c:	f3 0f 5a d8          	cvtss2sd xmm3,xmm0
    2d30:	f2 0f 11 5d e8       	movsd  QWORD PTR [rbp-0x18],xmm3
    2d35:	48 8b 45 f8          	mov    rax,QWORD PTR [rbp-0x8]
    2d39:	48 8d 88 20 01 00 00 	lea    rcx,[rax+0x120]
    2d40:	8b 55 f0             	mov    edx,DWORD PTR [rbp-0x10]
    2d43:	8b 45 f4             	mov    eax,DWORD PTR [rbp-0xc]
    2d46:	89 c6                	mov    esi,eax
    2d48:	48 89 cf             	mov    rdi,rcx
    2d4b:	e8 00 00 00 00       	call   2d50 <_ZN9simulator9calcTermsEii+0x940>
    2d50:	f3 0f 5a c0          	cvtss2sd xmm0,xmm0
    2d54:	f2 0f 58 c0          	addsd  xmm0,xmm0
    2d58:	f2 0f 10 5d e8       	movsd  xmm3,QWORD PTR [rbp-0x18]
    2d5d:	f2 0f 5c d8          	subsd  xmm3,xmm0
    2d61:	f2 0f 11 5d e8       	movsd  QWORD PTR [rbp-0x18],xmm3
    2d66:	8b 45 f4             	mov    eax,DWORD PTR [rbp-0xc]
    2d69:	8d 70 ff             	lea    esi,[rax-0x1]
    2d6c:	48 8b 45 f8          	mov    rax,QWORD PTR [rbp-0x8]
    2d70:	48 8d 88 20 01 00 00 	lea    rcx,[rax+0x120]
    2d77:	8b 45 f0             	mov    eax,DWORD PTR [rbp-0x10]
    2d7a:	89 c2                	mov    edx,eax
    2d7c:	48 89 cf             	mov    rdi,rcx
    2d7f:	e8 00 00 00 00       	call   2d84 <_ZN9simulator9calcTermsEii+0x974>
    2d84:	f3 0f 5a c0          	cvtss2sd xmm0,xmm0
    2d88:	f2 0f 58 45 e8       	addsd  xmm0,QWORD PTR [rbp-0x18]
    2d8d:	48 8b 45 f8          	mov    rax,QWORD PTR [rbp-0x8]
    2d91:	f3 0f 10 50 14       	movss  xmm2,DWORD PTR [rax+0x14]
    2d96:	48 8b 45 f8          	mov    rax,QWORD PTR [rbp-0x8]
    2d9a:	f3 0f 10 48 14       	movss  xmm1,DWORD PTR [rax+0x14]
    2d9f:	f3 0f 59 ca          	mulss  xmm1,xmm2
    2da3:	f3 0f 5a c9          	cvtss2sd xmm1,xmm1
    2da7:	f2 0f 5e c1          	divsd  xmm0,xmm1
    2dab:	f2 0f 5a c0          	cvtsd2ss xmm0,xmm0
    2daf:	48 8b 45 f8          	mov    rax,QWORD PTR [rbp-0x8]
    2db3:	f3 0f 11 80 88 00 00 	movss  DWORD PTR [rax+0x88],xmm0
    2dba:	00 
    2dbb:	8b 45 f0             	mov    eax,DWORD PTR [rbp-0x10]
    2dbe:	8d 50 01             	lea    edx,[rax+0x1]
    2dc1:	48 8b 45 f8          	mov    rax,QWORD PTR [rbp-0x8]
    2dc5:	48 8d 88 f0 00 00 00 	lea    rcx,[rax+0xf0]
    2dcc:	8b 45 f4             	mov    eax,DWORD PTR [rbp-0xc]
    2dcf:	89 c6                	mov    esi,eax
    2dd1:	48 89 cf             	mov    rdi,rcx
    2dd4:	e8 00 00 00 00       	call   2dd9 <_ZN9simulator9calcTermsEii+0x9c9>
    2dd9:	f3 0f 5a e0          	cvtss2sd xmm4,xmm0
    2ddd:	f2 0f 11 65 e8       	movsd  QWORD PTR [rbp-0x18],xmm4
    2de2:	48 8b 45 f8          	mov    rax,QWORD PTR [rbp-0x8]
    2de6:	48 8d 88 f0 00 00 00 	lea    rcx,[rax+0xf0]
    2ded:	8b 55 f0             	mov    edx,DWORD PTR [rbp-0x10]
    2df0:	8b 45 f4             	mov    eax,DWORD PTR [rbp-0xc]
    2df3:	89 c6                	mov    esi,eax
    2df5:	48 89 cf             	mov    rdi,rcx
    2df8:	e8 00 00 00 00       	call   2dfd <_ZN9simulator9calcTermsEii+0x9ed>
    2dfd:	f3 0f 5a c0          	cvtss2sd xmm0,xmm0
    2e01:	f2 0f 58 c0          	addsd  xmm0,xmm0
    2e05:	f2 0f 10 65 e8       	movsd  xmm4,QWORD PTR [rbp-0x18]
    2e0a:	f2 0f 5c e0          	subsd  xmm4,xmm0
    2e0e:	f2 0f 11 65 e8       	movsd  QWORD PTR [rbp-0x18],xmm4
    2e13:	8b 45 f0             	mov    eax,DWORD PTR [rbp-0x10]
    2e16:	8d 50 ff             	lea    edx,[rax-0x1]
    2e19:	48 8b 45 f8          	mov    rax,QWORD PTR [rbp-0x8]
    2e1d:	48 8d 88 f0 00 00 00 	lea    rcx,[rax+0xf0]
    2e24:	8b 45 f4             	mov    eax,DWORD PTR [rbp-0xc]
    2e27:	89 c6                	mov    esi,eax
    2e29:	48 89 cf             	mov    rdi,rcx
    2e2c:	e8 00 00 00 00       	call   2e31 <_ZN9simulator9calcTermsEii+0xa21>
    2e31:	f3 0f 5a c0          	cvtss2sd xmm0,xmm0
    2e35:	f2 0f 58 45 e8       	addsd  xmm0,QWORD PTR [rbp-0x18]
    2e3a:	48 8b 45 f8          	mov    rax,QWORD PTR [rbp-0x8]
    2e3e:	f3 0f 10 50 18       	movss  xmm2,DWORD PTR [rax+0x18]
    2e43:	48 8b 45 f8          	mov    rax,QWORD PTR [rbp-0x8]
    2e47:	f3 0f 10 48 18       	movss  xmm1,DWORD PTR [rax+0x18]
    2e4c:	f3 0f 59 ca          	mulss  xmm1,xmm2
    2e50:	f3 0f 5a c9          	cvtss2sd xmm1,xmm1
    2e54:	f2 0f 5e c1          	divsd  xmm0,xmm1
    2e58:	f2 0f 5a c0          	cvtsd2ss xmm0,xmm0
    2e5c:	48 8b 45 f8          	mov    rax,QWORD PTR [rbp-0x8]
    2e60:	f3 0f 11 80 8c 00 00 	movss  DWORD PTR [rax+0x8c],xmm0
    2e67:	00 
    2e68:	8b 45 f0             	mov    eax,DWORD PTR [rbp-0x10]
    2e6b:	8d 50 01             	lea    edx,[rax+0x1]
    2e6e:	48 8b 45 f8          	mov    rax,QWORD PTR [rbp-0x8]
    2e72:	48 8d 88 20 01 00 00 	lea    rcx,[rax+0x120]
    2e79:	8b 45 f4             	mov    eax,DWORD PTR [rbp-0xc]
    2e7c:	89 c6                	mov    esi,eax
    2e7e:	48 89 cf             	mov    rdi,rcx
    2e81:	e8 00 00 00 00       	call   2e86 <_ZN9simulator9calcTermsEii+0xa76>
    2e86:	f3 0f 5a e8          	cvtss2sd xmm5,xmm0
    2e8a:	f2 0f 11 6d e8       	movsd  QWORD PTR [rbp-0x18],xmm5
    2e8f:	48 8b 45 f8          	mov    rax,QWORD PTR [rbp-0x8]
    2e93:	48 8d 88 20 01 00 00 	lea    rcx,[rax+0x120]
    2e9a:	8b 55 f0             	mov    edx,DWORD PTR [rbp-0x10]
    2e9d:	8b 45 f4             	mov    eax,DWORD PTR [rbp-0xc]
    2ea0:	89 c6                	mov    esi,eax
    2ea2:	48 89 cf             	mov    rdi,rcx
    2ea5:	e8 00 00 00 00       	call   2eaa <_ZN9simulator9calcTermsEii+0xa9a>
    2eaa:	f3 0f 5a c0          	cvtss2sd xmm0,xmm0
    2eae:	f2 0f 58 c0          	addsd  xmm0,xmm0
    2eb2:	f2 0f 10 6d e8       	movsd  xmm5,QWORD PTR [rbp-0x18]
    2eb7:	f2 0f 5c e8          	subsd  xmm5,xmm0
    2ebb:	f2 0f 11 6d e8       	movsd  QWORD PTR [rbp-0x18],xmm5
    2ec0:	8b 45 f0             	mov    eax,DWORD PTR [rbp-0x10]
    2ec3:	8d 50 ff             	lea    edx,[rax-0x1]
    2ec6:	48 8b 45 f8          	mov    rax,QWORD PTR [rbp-0x8]
    2eca:	48 8d 88 20 01 00 00 	lea    rcx,[rax+0x120]
    2ed1:	8b 45 f4             	mov    eax,DWORD PTR [rbp-0xc]
    2ed4:	89 c6                	mov    esi,eax
    2ed6:	48 89 cf             	mov    rdi,rcx
    2ed9:	e8 00 00 00 00       	call   2ede <_ZN9simulator9calcTermsEii+0xace>
    2ede:	f3 0f 5a c0          	cvtss2sd xmm0,xmm0
    2ee2:	f2 0f 58 45 e8       	addsd  xmm0,QWORD PTR [rbp-0x18]
    2ee7:	48 8b 45 f8          	mov    rax,QWORD PTR [rbp-0x8]
    2eeb:	f3 0f 10 50 18       	movss  xmm2,DWORD PTR [rax+0x18]
    2ef0:	48 8b 45 f8          	mov    rax,QWORD PTR [rbp-0x8]
    2ef4:	f3 0f 10 48 18       	movss  xmm1,DWORD PTR [rax+0x18]
    2ef9:	f3 0f 59 ca          	mulss  xmm1,xmm2
    2efd:	f3 0f 5a c9          	cvtss2sd xmm1,xmm1
    2f01:	f2 0f 5e c1          	divsd  xmm0,xmm1
    2f05:	f2 0f 5a c0          	cvtsd2ss xmm0,xmm0
    2f09:	48 8b 45 f8          	mov    rax,QWORD PTR [rbp-0x8]
    2f0d:	f3 0f 11 80 90 00 00 	movss  DWORD PTR [rax+0x90],xmm0
    2f14:	00 
    2f15:	8b 45 f4             	mov    eax,DWORD PTR [rbp-0xc]
    2f18:	8d 70 01             	lea    esi,[rax+0x1]
    2f1b:	48 8b 45 f8          	mov    rax,QWORD PTR [rbp-0x8]
    2f1f:	48 8d 88 00 01 00 00 	lea    rcx,[rax+0x100]
    2f26:	8b 45 f0             	mov    eax,DWORD PTR [rbp-0x10]
    2f29:	89 c2                	mov    edx,eax
    2f2b:	48 89 cf             	mov    rdi,rcx
    2f2e:	e8 00 00 00 00       	call   2f33 <_ZN9simulator9calcTermsEii+0xb23>
    2f33:	f3 0f 5a f8          	cvtss2sd xmm7,xmm0
    2f37:	f2 0f 11 7d e8       	movsd  QWORD PTR [rbp-0x18],xmm7
    2f3c:	48 8b 45 f8          	mov    rax,QWORD PTR [rbp-0x8]
    2f40:	48 8d 88 00 01 00 00 	lea    rcx,[rax+0x100]
    2f47:	8b 55 f0             	mov    edx,DWORD PTR [rbp-0x10]
    2f4a:	8b 45 f4             	mov    eax,DWORD PTR [rbp-0xc]
    2f4d:	89 c6                	mov    esi,eax
    2f4f:	48 89 cf             	mov    rdi,rcx
    2f52:	e8 00 00 00 00       	call   2f57 <_ZN9simulator9calcTermsEii+0xb47>
    2f57:	f3 0f 5a c0          	cvtss2sd xmm0,xmm0
    2f5b:	f2 0f 58 c0          	addsd  xmm0,xmm0
    2f5f:	f2 0f 10 7d e8       	movsd  xmm7,QWORD PTR [rbp-0x18]
    2f64:	f2 0f 5c f8          	subsd  xmm7,xmm0
    2f68:	f2 0f 11 7d e8       	movsd  QWORD PTR [rbp-0x18],xmm7
    2f6d:	8b 45 f4             	mov    eax,DWORD PTR [rbp-0xc]
    2f70:	8d 70 ff             	lea    esi,[rax-0x1]
    2f73:	48 8b 45 f8          	mov    rax,QWORD PTR [rbp-0x8]
    2f77:	48 8d 88 00 01 00 00 	lea    rcx,[rax+0x100]
    2f7e:	8b 45 f0             	mov    eax,DWORD PTR [rbp-0x10]
    2f81:	89 c2                	mov    edx,eax
    2f83:	48 89 cf             	mov    rdi,rcx
    2f86:	e8 00 00 00 00       	call   2f8b <_ZN9simulator9calcTermsEii+0xb7b>
    2f8b:	f3 0f 5a c0          	cvtss2sd xmm0,xmm0
    2f8f:	f2 0f 58 45 e8       	addsd  xmm0,QWORD PTR [rbp-0x18]
    2f94:	48 8b 45 f8          	mov    rax,QWORD PTR [rbp-0x8]
    2f98:	f3 0f 10 50 14       	movss  xmm2,DWORD PTR [rax+0x14]
    2f9d:	48 8b 45 f8          	mov    rax,QWORD PTR [rbp-0x8]
    2fa1:	f3 0f 10 48 14       	movss  xmm1,DWORD PTR [rax+0x14]
    2fa6:	f3 0f 59 ca          	mulss  xmm1,xmm2
    2faa:	f3 0f 5a c9          	cvtss2sd xmm1,xmm1
    2fae:	f2 0f 5e c1          	divsd  xmm0,xmm1
    2fb2:	f2 0f 5a c0          	cvtsd2ss xmm0,xmm0
    2fb6:	48 8b 45 f8          	mov    rax,QWORD PTR [rbp-0x8]
    2fba:	f3 0f 11 80 94 00 00 	movss  DWORD PTR [rax+0x94],xmm0
    2fc1:	00 
    2fc2:	8b 45 f0             	mov    eax,DWORD PTR [rbp-0x10]
    2fc5:	8d 50 01             	lea    edx,[rax+0x1]
    2fc8:	48 8b 45 f8          	mov    rax,QWORD PTR [rbp-0x8]
    2fcc:	48 8d 88 00 01 00 00 	lea    rcx,[rax+0x100]
    2fd3:	8b 45 f4             	mov    eax,DWORD PTR [rbp-0xc]
    2fd6:	89 c6                	mov    esi,eax
    2fd8:	48 89 cf             	mov    rdi,rcx
    2fdb:	e8 00 00 00 00       	call   2fe0 <_ZN9simulator9calcTermsEii+0xbd0>
    2fe0:	f3 0f 5a f0          	cvtss2sd xmm6,xmm0
    2fe4:	f2 0f 11 75 e8       	movsd  QWORD PTR [rbp-0x18],xmm6
    2fe9:	48 8b 45 f8          	mov    rax,QWORD PTR [rbp-0x8]
    2fed:	48 8d 88 00 01 00 00 	lea    rcx,[rax+0x100]
    2ff4:	8b 55 f0             	mov    edx,DWORD PTR [rbp-0x10]
    2ff7:	8b 45 f4             	mov    eax,DWORD PTR [rbp-0xc]
    2ffa:	89 c6                	mov    esi,eax
    2ffc:	48 89 cf             	mov    rdi,rcx
    2fff:	e8 00 00 00 00       	call   3004 <_ZN9simulator9calcTermsEii+0xbf4>
    3004:	f3 0f 5a c0          	cvtss2sd xmm0,xmm0
    3008:	f2 0f 58 c0          	addsd  xmm0,xmm0
    300c:	f2 0f 10 75 e8       	movsd  xmm6,QWORD PTR [rbp-0x18]
    3011:	f2 0f 5c f0          	subsd  xmm6,xmm0
    3015:	f2 0f 11 75 e8       	movsd  QWORD PTR [rbp-0x18],xmm6
    301a:	8b 45 f0             	mov    eax,DWORD PTR [rbp-0x10]
    301d:	8d 50 ff             	lea    edx,[rax-0x1]
    3020:	48 8b 45 f8          	mov    rax,QWORD PTR [rbp-0x8]
    3024:	48 8d 88 00 01 00 00 	lea    rcx,[rax+0x100]
    302b:	8b 45 f4             	mov    eax,DWORD PTR [rbp-0xc]
    302e:	89 c6                	mov    esi,eax
    3030:	48 89 cf             	mov    rdi,rcx
    3033:	e8 00 00 00 00       	call   3038 <_ZN9simulator9calcTermsEii+0xc28>
    3038:	f3 0f 5a c0          	cvtss2sd xmm0,xmm0
    303c:	f2 0f 58 45 e8       	addsd  xmm0,QWORD PTR [rbp-0x18]
    3041:	48 8b 45 f8          	mov    rax,QWORD PTR [rbp-0x8]
    3045:	f3 0f 10 50 18       	movss  xmm2,DWORD PTR [rax+0x18]
    304a:	48 8b 45 f8          	mov    rax,QWORD PTR [rbp-0x8]
    304e:	f3 0f 10 48 18       	movss  xmm1,DWORD PTR [rax+0x18]
    3053:	f3 0f 59 ca          	mulss  xmm1,xmm2
    3057:	f3 0f 5a c9          	cvtss2sd xmm1,xmm1
    305b:	f2 0f 5e c1          	divsd  xmm0,xmm1
    305f:	f2 0f 5a c0          	cvtsd2ss xmm0,xmm0
    3063:	48 8b 45 f8          	mov    rax,QWORD PTR [rbp-0x8]
    3067:	f3 0f 11 80 98 00 00 	movss  DWORD PTR [rax+0x98],xmm0
    306e:	00 
    306f:	8b 45 f0             	mov    eax,DWORD PTR [rbp-0x10]
    3072:	8d 50 01             	lea    edx,[rax+0x1]
    3075:	48 8b 45 f8          	mov    rax,QWORD PTR [rbp-0x8]
    3079:	48 8d 88 30 01 00 00 	lea    rcx,[rax+0x130]
    3080:	8b 45 f4             	mov    eax,DWORD PTR [rbp-0xc]
    3083:	89 c6                	mov    esi,eax
    3085:	48 89 cf             	mov    rdi,rcx
    3088:	e8 00 00 00 00       	call   308d <_ZN9simulator9calcTermsEii+0xc7d>
    308d:	f3 0f 5a d8          	cvtss2sd xmm3,xmm0
    3091:	f2 0f 11 5d e8       	movsd  QWORD PTR [rbp-0x18],xmm3
    3096:	48 8b 45 f8          	mov    rax,QWORD PTR [rbp-0x8]
    309a:	48 8d 88 30 01 00 00 	lea    rcx,[rax+0x130]
    30a1:	8b 55 f0             	mov    edx,DWORD PTR [rbp-0x10]
    30a4:	8b 45 f4             	mov    eax,DWORD PTR [rbp-0xc]
    30a7:	89 c6                	mov    esi,eax
    30a9:	48 89 cf             	mov    rdi,rcx
    30ac:	e8 00 00 00 00       	call   30b1 <_ZN9simulator9calcTermsEii+0xca1>
    30b1:	f3 0f 5a c0          	cvtss2sd xmm0,xmm0
    30b5:	f2 0f 58 c0          	addsd  xmm0,xmm0
    30b9:	f2 0f 10 5d e8       	movsd  xmm3,QWORD PTR [rbp-0x18]
    30be:	f2 0f 5c d8          	subsd  xmm3,xmm0
    30c2:	f2 0f 11 5d e8       	movsd  QWORD PTR [rbp-0x18],xmm3
    30c7:	8b 45 f0             	mov    eax,DWORD PTR [rbp-0x10]
    30ca:	8d 50 ff             	lea    edx,[rax-0x1]
    30cd:	48 8b 45 f8          	mov    rax,QWORD PTR [rbp-0x8]
    30d1:	48 8d 88 30 01 00 00 	lea    rcx,[rax+0x130]
    30d8:	8b 45 f4             	mov    eax,DWORD PTR [rbp-0xc]
    30db:	89 c6                	mov    esi,eax
    30dd:	48 89 cf             	mov    rdi,rcx
    30e0:	e8 00 00 00 00       	call   30e5 <_ZN9simulator9calcTermsEii+0xcd5>
    30e5:	f3 0f 5a c0          	cvtss2sd xmm0,xmm0
    30e9:	f2 0f 58 45 e8       	addsd  xmm0,QWORD PTR [rbp-0x18]
    30ee:	48 8b 45 f8          	mov    rax,QWORD PTR [rbp-0x8]
    30f2:	f3 0f 10 50 18       	movss  xmm2,DWORD PTR [rax+0x18]
    30f7:	48 8b 45 f8          	mov    rax,QWORD PTR [rbp-0x8]
    30fb:	f3 0f 10 48 18       	movss  xmm1,DWORD PTR [rax+0x18]
    3100:	f3 0f 59 ca          	mulss  xmm1,xmm2
    3104:	f3 0f 5a c9          	cvtss2sd xmm1,xmm1
    3108:	f2 0f 5e c1          	divsd  xmm0,xmm1
    310c:	f2 0f 5a c0          	cvtsd2ss xmm0,xmm0
    3110:	48 8b 45 f8          	mov    rax,QWORD PTR [rbp-0x8]
    3114:	f3 0f 11 80 9c 00 00 	movss  DWORD PTR [rax+0x9c],xmm0
    311b:	00 
    311c:	90                   	nop
    311d:	c9                   	leave  
    311e:	c3                   	ret    
    311f:	90                   	nop

0000000000003120 <_ZN9simulator7saveVtkER4mat2NSt7__cxx1112basic_stringIcSt11char_traitsIcESaIcEEE>:
    3120:	55                   	push   rbp
    3121:	48 89 e5             	mov    rbp,rsp
    3124:	53                   	push   rbx
    3125:	48 81 ec 48 07 00 00 	sub    rsp,0x748
    312c:	48 89 bd c8 f8 ff ff 	mov    QWORD PTR [rbp-0x738],rdi
    3133:	48 89 b5 c0 f8 ff ff 	mov    QWORD PTR [rbp-0x740],rsi
    313a:	48 89 95 b8 f8 ff ff 	mov    QWORD PTR [rbp-0x748],rdx
    3141:	64 48 8b 04 25 28 00 	mov    rax,QWORD PTR fs:0x28
    3148:	00 00 
    314a:	48 89 45 e8          	mov    QWORD PTR [rbp-0x18],rax
    314e:	31 c0                	xor    eax,eax
    3150:	48 8d 85 d7 f8 ff ff 	lea    rax,[rbp-0x729]
    3157:	48 89 c7             	mov    rdi,rax
    315a:	e8 00 00 00 00       	call   315f <_ZN9simulator7saveVtkER4mat2NSt7__cxx1112basic_stringIcSt11char_traitsIcESaIcEEE+0x3f>
    315f:	48 8d 95 d7 f8 ff ff 	lea    rdx,[rbp-0x729]
    3166:	48 8d 85 80 fb ff ff 	lea    rax,[rbp-0x480]
    316d:	be 00 00 00 00       	mov    esi,0x0
    3172:	48 89 c7             	mov    rdi,rax
    3175:	e8 00 00 00 00       	call   317a <_ZN9simulator7saveVtkER4mat2NSt7__cxx1112basic_stringIcSt11char_traitsIcESaIcEEE+0x5a>
    317a:	48 8b 95 b8 f8 ff ff 	mov    rdx,QWORD PTR [rbp-0x748]
    3181:	48 8d 85 60 fb ff ff 	lea    rax,[rbp-0x4a0]
    3188:	48 89 d6             	mov    rsi,rdx
    318b:	48 89 c7             	mov    rdi,rax
    318e:	e8 00 00 00 00       	call   3193 <_ZN9simulator7saveVtkER4mat2NSt7__cxx1112basic_stringIcSt11char_traitsIcESaIcEEE+0x73>
    3193:	48 8d 95 80 fb ff ff 	lea    rdx,[rbp-0x480]
    319a:	48 8d 8d 60 fb ff ff 	lea    rcx,[rbp-0x4a0]
    31a1:	48 8d 85 a0 fb ff ff 	lea    rax,[rbp-0x460]
    31a8:	48 89 ce             	mov    rsi,rcx
    31ab:	48 89 c7             	mov    rdi,rax
    31ae:	e8 00 00 00 00       	call   31b3 <_ZN9simulator7saveVtkER4mat2NSt7__cxx1112basic_stringIcSt11char_traitsIcESaIcEEE+0x93>
    31b3:	48 8d 85 60 fb ff ff 	lea    rax,[rbp-0x4a0]
    31ba:	48 89 c7             	mov    rdi,rax
    31bd:	e8 00 00 00 00       	call   31c2 <_ZN9simulator7saveVtkER4mat2NSt7__cxx1112basic_stringIcSt11char_traitsIcESaIcEEE+0xa2>
    31c2:	48 8d 85 80 fb ff ff 	lea    rax,[rbp-0x480]
    31c9:	48 89 c7             	mov    rdi,rax
    31cc:	e8 00 00 00 00       	call   31d1 <_ZN9simulator7saveVtkER4mat2NSt7__cxx1112basic_stringIcSt11char_traitsIcESaIcEEE+0xb1>
    31d1:	48 8d 85 d7 f8 ff ff 	lea    rax,[rbp-0x729]
    31d8:	48 89 c7             	mov    rdi,rax
    31db:	e8 00 00 00 00       	call   31e0 <_ZN9simulator7saveVtkER4mat2NSt7__cxx1112basic_stringIcSt11char_traitsIcESaIcEEE+0xc0>
    31e0:	48 8d 85 d7 f8 ff ff 	lea    rax,[rbp-0x729]
    31e7:	48 89 c7             	mov    rdi,rax
    31ea:	e8 00 00 00 00       	call   31ef <_ZN9simulator7saveVtkER4mat2NSt7__cxx1112basic_stringIcSt11char_traitsIcESaIcEEE+0xcf>
    31ef:	48 8d 95 d7 f8 ff ff 	lea    rdx,[rbp-0x729]
    31f6:	48 8d 85 e0 f8 ff ff 	lea    rax,[rbp-0x720]
    31fd:	be 00 00 00 00       	mov    esi,0x0
    3202:	48 89 c7             	mov    rdi,rax
    3205:	e8 00 00 00 00       	call   320a <_ZN9simulator7saveVtkER4mat2NSt7__cxx1112basic_stringIcSt11char_traitsIcESaIcEEE+0xea>
    320a:	48 8d 95 e0 f8 ff ff 	lea    rdx,[rbp-0x720]
    3211:	48 8d 85 a0 fb ff ff 	lea    rax,[rbp-0x460]
    3218:	48 89 d6             	mov    rsi,rdx
    321b:	48 89 c7             	mov    rdi,rax
    321e:	e8 00 00 00 00       	call   3223 <_ZN9simulator7saveVtkER4mat2NSt7__cxx1112basic_stringIcSt11char_traitsIcESaIcEEE+0x103>
    3223:	48 8d 85 e0 f8 ff ff 	lea    rax,[rbp-0x720]
    322a:	48 89 c7             	mov    rdi,rax
    322d:	e8 00 00 00 00       	call   3232 <_ZN9simulator7saveVtkER4mat2NSt7__cxx1112basic_stringIcSt11char_traitsIcESaIcEEE+0x112>
    3232:	48 8d 85 d7 f8 ff ff 	lea    rax,[rbp-0x729]
    3239:	48 89 c7             	mov    rdi,rax
    323c:	e8 00 00 00 00       	call   3241 <_ZN9simulator7saveVtkER4mat2NSt7__cxx1112basic_stringIcSt11char_traitsIcESaIcEEE+0x121>
    3241:	48 8d 85 a0 fb ff ff 	lea    rax,[rbp-0x460]
    3248:	48 89 c7             	mov    rdi,rax
    324b:	e8 00 00 00 00       	call   3250 <_ZN9simulator7saveVtkER4mat2NSt7__cxx1112basic_stringIcSt11char_traitsIcESaIcEEE+0x130>
    3250:	48 8d 85 d7 f8 ff ff 	lea    rax,[rbp-0x729]
    3257:	48 89 c7             	mov    rdi,rax
    325a:	e8 00 00 00 00       	call   325f <_ZN9simulator7saveVtkER4mat2NSt7__cxx1112basic_stringIcSt11char_traitsIcESaIcEEE+0x13f>
    325f:	48 8d 95 d7 f8 ff ff 	lea    rdx,[rbp-0x729]
    3266:	48 8d 85 00 f9 ff ff 	lea    rax,[rbp-0x700]
    326d:	be 00 00 00 00       	mov    esi,0x0
    3272:	48 89 c7             	mov    rdi,rax
    3275:	e8 00 00 00 00       	call   327a <_ZN9simulator7saveVtkER4mat2NSt7__cxx1112basic_stringIcSt11char_traitsIcESaIcEEE+0x15a>
    327a:	48 8d 95 00 f9 ff ff 	lea    rdx,[rbp-0x700]
    3281:	48 8d 85 a0 fb ff ff 	lea    rax,[rbp-0x460]
    3288:	48 89 d6             	mov    rsi,rdx
    328b:	48 89 c7             	mov    rdi,rax
    328e:	e8 00 00 00 00       	call   3293 <_ZN9simulator7saveVtkER4mat2NSt7__cxx1112basic_stringIcSt11char_traitsIcESaIcEEE+0x173>
    3293:	48 8d 85 00 f9 ff ff 	lea    rax,[rbp-0x700]
    329a:	48 89 c7             	mov    rdi,rax
    329d:	e8 00 00 00 00       	call   32a2 <_ZN9simulator7saveVtkER4mat2NSt7__cxx1112basic_stringIcSt11char_traitsIcESaIcEEE+0x182>
    32a2:	48 8d 85 d7 f8 ff ff 	lea    rax,[rbp-0x729]
    32a9:	48 89 c7             	mov    rdi,rax
    32ac:	e8 00 00 00 00       	call   32b1 <_ZN9simulator7saveVtkER4mat2NSt7__cxx1112basic_stringIcSt11char_traitsIcESaIcEEE+0x191>
    32b1:	48 8d 85 a0 fb ff ff 	lea    rax,[rbp-0x460]
    32b8:	48 89 c7             	mov    rdi,rax
    32bb:	e8 00 00 00 00       	call   32c0 <_ZN9simulator7saveVtkER4mat2NSt7__cxx1112basic_stringIcSt11char_traitsIcESaIcEEE+0x1a0>
    32c0:	48 8d 85 d7 f8 ff ff 	lea    rax,[rbp-0x729]
    32c7:	48 89 c7             	mov    rdi,rax
    32ca:	e8 00 00 00 00       	call   32cf <_ZN9simulator7saveVtkER4mat2NSt7__cxx1112basic_stringIcSt11char_traitsIcESaIcEEE+0x1af>
    32cf:	48 8d 95 d7 f8 ff ff 	lea    rdx,[rbp-0x729]
    32d6:	48 8d 85 20 f9 ff ff 	lea    rax,[rbp-0x6e0]
    32dd:	be 00 00 00 00       	mov    esi,0x0
    32e2:	48 89 c7             	mov    rdi,rax
    32e5:	e8 00 00 00 00       	call   32ea <_ZN9simulator7saveVtkER4mat2NSt7__cxx1112basic_stringIcSt11char_traitsIcESaIcEEE+0x1ca>
    32ea:	48 8d 95 20 f9 ff ff 	lea    rdx,[rbp-0x6e0]
    32f1:	48 8d 85 a0 fb ff ff 	lea    rax,[rbp-0x460]
    32f8:	48 89 d6             	mov    rsi,rdx
    32fb:	48 89 c7             	mov    rdi,rax
    32fe:	e8 00 00 00 00       	call   3303 <_ZN9simulator7saveVtkER4mat2NSt7__cxx1112basic_stringIcSt11char_traitsIcESaIcEEE+0x1e3>
    3303:	48 8d 85 20 f9 ff ff 	lea    rax,[rbp-0x6e0]
    330a:	48 89 c7             	mov    rdi,rax
    330d:	e8 00 00 00 00       	call   3312 <_ZN9simulator7saveVtkER4mat2NSt7__cxx1112basic_stringIcSt11char_traitsIcESaIcEEE+0x1f2>
    3312:	48 8d 85 d7 f8 ff ff 	lea    rax,[rbp-0x729]
    3319:	48 89 c7             	mov    rdi,rax
    331c:	e8 00 00 00 00       	call   3321 <_ZN9simulator7saveVtkER4mat2NSt7__cxx1112basic_stringIcSt11char_traitsIcESaIcEEE+0x201>
    3321:	48 8d 85 a0 fb ff ff 	lea    rax,[rbp-0x460]
    3328:	48 89 c7             	mov    rdi,rax
    332b:	e8 00 00 00 00       	call   3330 <_ZN9simulator7saveVtkER4mat2NSt7__cxx1112basic_stringIcSt11char_traitsIcESaIcEEE+0x210>
    3330:	48 8d 85 d7 f8 ff ff 	lea    rax,[rbp-0x729]
    3337:	48 89 c7             	mov    rdi,rax
    333a:	e8 00 00 00 00       	call   333f <_ZN9simulator7saveVtkER4mat2NSt7__cxx1112basic_stringIcSt11char_traitsIcESaIcEEE+0x21f>
    333f:	48 8d 95 d7 f8 ff ff 	lea    rdx,[rbp-0x729]
    3346:	48 8d 85 40 f9 ff ff 	lea    rax,[rbp-0x6c0]
    334d:	be 00 00 00 00       	mov    esi,0x0
    3352:	48 89 c7             	mov    rdi,rax
    3355:	e8 00 00 00 00       	call   335a <_ZN9simulator7saveVtkER4mat2NSt7__cxx1112basic_stringIcSt11char_traitsIcESaIcEEE+0x23a>
    335a:	48 8d 95 40 f9 ff ff 	lea    rdx,[rbp-0x6c0]
    3361:	48 8d 85 a0 fb ff ff 	lea    rax,[rbp-0x460]
    3368:	48 89 d6             	mov    rsi,rdx
    336b:	48 89 c7             	mov    rdi,rax
    336e:	e8 00 00 00 00       	call   3373 <_ZN9simulator7saveVtkER4mat2NSt7__cxx1112basic_stringIcSt11char_traitsIcESaIcEEE+0x253>
    3373:	48 8d 85 40 f9 ff ff 	lea    rax,[rbp-0x6c0]
    337a:	48 89 c7             	mov    rdi,rax
    337d:	e8 00 00 00 00       	call   3382 <_ZN9simulator7saveVtkER4mat2NSt7__cxx1112basic_stringIcSt11char_traitsIcESaIcEEE+0x262>
    3382:	48 8d 85 d7 f8 ff ff 	lea    rax,[rbp-0x729]
    3389:	48 89 c7             	mov    rdi,rax
    338c:	e8 00 00 00 00       	call   3391 <_ZN9simulator7saveVtkER4mat2NSt7__cxx1112basic_stringIcSt11char_traitsIcESaIcEEE+0x271>
    3391:	48 8d 85 a0 fb ff ff 	lea    rax,[rbp-0x460]
    3398:	48 89 c7             	mov    rdi,rax
    339b:	e8 00 00 00 00       	call   33a0 <_ZN9simulator7saveVtkER4mat2NSt7__cxx1112basic_stringIcSt11char_traitsIcESaIcEEE+0x280>
    33a0:	48 8b 85 c8 f8 ff ff 	mov    rax,QWORD PTR [rbp-0x738]
    33a7:	8b 50 28             	mov    edx,DWORD PTR [rax+0x28]
    33aa:	48 8d 85 c0 f9 ff ff 	lea    rax,[rbp-0x640]
    33b1:	89 d6                	mov    esi,edx
    33b3:	48 89 c7             	mov    rdi,rax
    33b6:	e8 00 00 00 00       	call   33bb <_ZN9simulator7saveVtkER4mat2NSt7__cxx1112basic_stringIcSt11char_traitsIcESaIcEEE+0x29b>
    33bb:	48 8b 85 c8 f8 ff ff 	mov    rax,QWORD PTR [rbp-0x738]
    33c2:	8b 50 24             	mov    edx,DWORD PTR [rax+0x24]
    33c5:	48 8d 85 60 f9 ff ff 	lea    rax,[rbp-0x6a0]
    33cc:	89 d6                	mov    esi,edx
    33ce:	48 89 c7             	mov    rdi,rax
    33d1:	e8 00 00 00 00       	call   33d6 <_ZN9simulator7saveVtkER4mat2NSt7__cxx1112basic_stringIcSt11char_traitsIcESaIcEEE+0x2b6>
    33d6:	48 8d 85 80 f9 ff ff 	lea    rax,[rbp-0x680]
    33dd:	48 8d 95 60 f9 ff ff 	lea    rdx,[rbp-0x6a0]
    33e4:	be 00 00 00 00       	mov    esi,0x0
    33e9:	48 89 c7             	mov    rdi,rax
    33ec:	e8 00 00 00 00       	call   33f1 <_ZN9simulator7saveVtkER4mat2NSt7__cxx1112basic_stringIcSt11char_traitsIcESaIcEEE+0x2d1>
    33f1:	48 8d 85 a0 f9 ff ff 	lea    rax,[rbp-0x660]
    33f8:	48 8d 8d 80 f9 ff ff 	lea    rcx,[rbp-0x680]
    33ff:	ba 00 00 00 00       	mov    edx,0x0
    3404:	48 89 ce             	mov    rsi,rcx
    3407:	48 89 c7             	mov    rdi,rax
    340a:	e8 00 00 00 00       	call   340f <_ZN9simulator7saveVtkER4mat2NSt7__cxx1112basic_stringIcSt11char_traitsIcESaIcEEE+0x2ef>
    340f:	48 8d 85 e0 f9 ff ff 	lea    rax,[rbp-0x620]
    3416:	48 8d 95 c0 f9 ff ff 	lea    rdx,[rbp-0x640]
    341d:	48 8d 8d a0 f9 ff ff 	lea    rcx,[rbp-0x660]
    3424:	48 89 ce             	mov    rsi,rcx
    3427:	48 89 c7             	mov    rdi,rax
    342a:	e8 00 00 00 00       	call   342f <_ZN9simulator7saveVtkER4mat2NSt7__cxx1112basic_stringIcSt11char_traitsIcESaIcEEE+0x30f>
    342f:	48 8d 85 00 fa ff ff 	lea    rax,[rbp-0x600]
    3436:	48 8d 8d e0 f9 ff ff 	lea    rcx,[rbp-0x620]
    343d:	ba 00 00 00 00       	mov    edx,0x0
    3442:	48 89 ce             	mov    rsi,rcx
    3445:	48 89 c7             	mov    rdi,rax
    3448:	e8 00 00 00 00       	call   344d <_ZN9simulator7saveVtkER4mat2NSt7__cxx1112basic_stringIcSt11char_traitsIcESaIcEEE+0x32d>
    344d:	48 8d 95 00 fa ff ff 	lea    rdx,[rbp-0x600]
    3454:	48 8d 85 a0 fb ff ff 	lea    rax,[rbp-0x460]
    345b:	48 89 d6             	mov    rsi,rdx
    345e:	48 89 c7             	mov    rdi,rax
    3461:	e8 00 00 00 00       	call   3466 <_ZN9simulator7saveVtkER4mat2NSt7__cxx1112basic_stringIcSt11char_traitsIcESaIcEEE+0x346>
    3466:	48 8d 85 00 fa ff ff 	lea    rax,[rbp-0x600]
    346d:	48 89 c7             	mov    rdi,rax
    3470:	e8 00 00 00 00       	call   3475 <_ZN9simulator7saveVtkER4mat2NSt7__cxx1112basic_stringIcSt11char_traitsIcESaIcEEE+0x355>
    3475:	48 8d 85 e0 f9 ff ff 	lea    rax,[rbp-0x620]
    347c:	48 89 c7             	mov    rdi,rax
    347f:	e8 00 00 00 00       	call   3484 <_ZN9simulator7saveVtkER4mat2NSt7__cxx1112basic_stringIcSt11char_traitsIcESaIcEEE+0x364>
    3484:	48 8d 85 a0 f9 ff ff 	lea    rax,[rbp-0x660]
    348b:	48 89 c7             	mov    rdi,rax
    348e:	e8 00 00 00 00       	call   3493 <_ZN9simulator7saveVtkER4mat2NSt7__cxx1112basic_stringIcSt11char_traitsIcESaIcEEE+0x373>
    3493:	48 8d 85 80 f9 ff ff 	lea    rax,[rbp-0x680]
    349a:	48 89 c7             	mov    rdi,rax
    349d:	e8 00 00 00 00       	call   34a2 <_ZN9simulator7saveVtkER4mat2NSt7__cxx1112basic_stringIcSt11char_traitsIcESaIcEEE+0x382>
    34a2:	48 8d 85 60 f9 ff ff 	lea    rax,[rbp-0x6a0]
    34a9:	48 89 c7             	mov    rdi,rax
    34ac:	e8 00 00 00 00       	call   34b1 <_ZN9simulator7saveVtkER4mat2NSt7__cxx1112basic_stringIcSt11char_traitsIcESaIcEEE+0x391>
    34b1:	48 8d 85 c0 f9 ff ff 	lea    rax,[rbp-0x640]
    34b8:	48 89 c7             	mov    rdi,rax
    34bb:	e8 00 00 00 00       	call   34c0 <_ZN9simulator7saveVtkER4mat2NSt7__cxx1112basic_stringIcSt11char_traitsIcESaIcEEE+0x3a0>
    34c0:	48 8d 85 a0 fb ff ff 	lea    rax,[rbp-0x460]
    34c7:	48 89 c7             	mov    rdi,rax
    34ca:	e8 00 00 00 00       	call   34cf <_ZN9simulator7saveVtkER4mat2NSt7__cxx1112basic_stringIcSt11char_traitsIcESaIcEEE+0x3af>
    34cf:	48 8d 85 d7 f8 ff ff 	lea    rax,[rbp-0x729]
    34d6:	48 89 c7             	mov    rdi,rax
    34d9:	e8 00 00 00 00       	call   34de <_ZN9simulator7saveVtkER4mat2NSt7__cxx1112basic_stringIcSt11char_traitsIcESaIcEEE+0x3be>
    34de:	48 8d 95 d7 f8 ff ff 	lea    rdx,[rbp-0x729]
    34e5:	48 8d 85 20 fa ff ff 	lea    rax,[rbp-0x5e0]
    34ec:	be 00 00 00 00       	mov    esi,0x0
    34f1:	48 89 c7             	mov    rdi,rax
    34f4:	e8 00 00 00 00       	call   34f9 <_ZN9simulator7saveVtkER4mat2NSt7__cxx1112basic_stringIcSt11char_traitsIcESaIcEEE+0x3d9>
    34f9:	48 8d 95 20 fa ff ff 	lea    rdx,[rbp-0x5e0]
    3500:	48 8d 85 a0 fb ff ff 	lea    rax,[rbp-0x460]
    3507:	48 89 d6             	mov    rsi,rdx
    350a:	48 89 c7             	mov    rdi,rax
    350d:	e8 00 00 00 00       	call   3512 <_ZN9simulator7saveVtkER4mat2NSt7__cxx1112basic_stringIcSt11char_traitsIcESaIcEEE+0x3f2>
    3512:	48 8d 85 20 fa ff ff 	lea    rax,[rbp-0x5e0]
    3519:	48 89 c7             	mov    rdi,rax
    351c:	e8 00 00 00 00       	call   3521 <_ZN9simulator7saveVtkER4mat2NSt7__cxx1112basic_stringIcSt11char_traitsIcESaIcEEE+0x401>
    3521:	48 8d 85 d7 f8 ff ff 	lea    rax,[rbp-0x729]
    3528:	48 89 c7             	mov    rdi,rax
    352b:	e8 00 00 00 00       	call   3530 <_ZN9simulator7saveVtkER4mat2NSt7__cxx1112basic_stringIcSt11char_traitsIcESaIcEEE+0x410>
    3530:	48 8d 85 a0 fb ff ff 	lea    rax,[rbp-0x460]
    3537:	48 89 c7             	mov    rdi,rax
    353a:	e8 00 00 00 00       	call   353f <_ZN9simulator7saveVtkER4mat2NSt7__cxx1112basic_stringIcSt11char_traitsIcESaIcEEE+0x41f>
    353f:	48 8b 85 c8 f8 ff ff 	mov    rax,QWORD PTR [rbp-0x738]
    3546:	8b 50 18             	mov    edx,DWORD PTR [rax+0x18]
    3549:	48 8d 85 a0 fa ff ff 	lea    rax,[rbp-0x560]
    3550:	89 95 b4 f8 ff ff    	mov    DWORD PTR [rbp-0x74c],edx
    3556:	f3 0f 10 85 b4 f8 ff 	movss  xmm0,DWORD PTR [rbp-0x74c]
    355d:	ff 
    355e:	48 89 c7             	mov    rdi,rax
    3561:	e8 00 00 00 00       	call   3566 <_ZN9simulator7saveVtkER4mat2NSt7__cxx1112basic_stringIcSt11char_traitsIcESaIcEEE+0x446>
    3566:	48 8b 85 c8 f8 ff ff 	mov    rax,QWORD PTR [rbp-0x738]
    356d:	8b 50 14             	mov    edx,DWORD PTR [rax+0x14]
    3570:	48 8d 85 40 fa ff ff 	lea    rax,[rbp-0x5c0]
    3577:	89 95 b4 f8 ff ff    	mov    DWORD PTR [rbp-0x74c],edx
    357d:	f3 0f 10 85 b4 f8 ff 	movss  xmm0,DWORD PTR [rbp-0x74c]
    3584:	ff 
    3585:	48 89 c7             	mov    rdi,rax
    3588:	e8 00 00 00 00       	call   358d <_ZN9simulator7saveVtkER4mat2NSt7__cxx1112basic_stringIcSt11char_traitsIcESaIcEEE+0x46d>
    358d:	48 8d 85 60 fa ff ff 	lea    rax,[rbp-0x5a0]
    3594:	48 8d 95 40 fa ff ff 	lea    rdx,[rbp-0x5c0]
    359b:	be 00 00 00 00       	mov    esi,0x0
    35a0:	48 89 c7             	mov    rdi,rax
    35a3:	e8 00 00 00 00       	call   35a8 <_ZN9simulator7saveVtkER4mat2NSt7__cxx1112basic_stringIcSt11char_traitsIcESaIcEEE+0x488>
    35a8:	48 8d 85 80 fa ff ff 	lea    rax,[rbp-0x580]
    35af:	48 8d 8d 60 fa ff ff 	lea    rcx,[rbp-0x5a0]
    35b6:	ba 00 00 00 00       	mov    edx,0x0
    35bb:	48 89 ce             	mov    rsi,rcx
    35be:	48 89 c7             	mov    rdi,rax
    35c1:	e8 00 00 00 00       	call   35c6 <_ZN9simulator7saveVtkER4mat2NSt7__cxx1112basic_stringIcSt11char_traitsIcESaIcEEE+0x4a6>
    35c6:	48 8d 85 c0 fa ff ff 	lea    rax,[rbp-0x540]
    35cd:	48 8d 95 a0 fa ff ff 	lea    rdx,[rbp-0x560]
    35d4:	48 8d 8d 80 fa ff ff 	lea    rcx,[rbp-0x580]
    35db:	48 89 ce             	mov    rsi,rcx
    35de:	48 89 c7             	mov    rdi,rax
    35e1:	e8 00 00 00 00       	call   35e6 <_ZN9simulator7saveVtkER4mat2NSt7__cxx1112basic_stringIcSt11char_traitsIcESaIcEEE+0x4c6>
    35e6:	48 8d 85 e0 fa ff ff 	lea    rax,[rbp-0x520]
    35ed:	48 8d 8d c0 fa ff ff 	lea    rcx,[rbp-0x540]
    35f4:	ba 00 00 00 00       	mov    edx,0x0
    35f9:	48 89 ce             	mov    rsi,rcx
    35fc:	48 89 c7             	mov    rdi,rax
    35ff:	e8 00 00 00 00       	call   3604 <_ZN9simulator7saveVtkER4mat2NSt7__cxx1112basic_stringIcSt11char_traitsIcESaIcEEE+0x4e4>
    3604:	48 8d 95 e0 fa ff ff 	lea    rdx,[rbp-0x520]
    360b:	48 8d 85 a0 fb ff ff 	lea    rax,[rbp-0x460]
    3612:	48 89 d6             	mov    rsi,rdx
    3615:	48 89 c7             	mov    rdi,rax
    3618:	e8 00 00 00 00       	call   361d <_ZN9simulator7saveVtkER4mat2NSt7__cxx1112basic_stringIcSt11char_traitsIcESaIcEEE+0x4fd>
    361d:	48 8d 85 e0 fa ff ff 	lea    rax,[rbp-0x520]
    3624:	48 89 c7             	mov    rdi,rax
    3627:	e8 00 00 00 00       	call   362c <_ZN9simulator7saveVtkER4mat2NSt7__cxx1112basic_stringIcSt11char_traitsIcESaIcEEE+0x50c>
    362c:	48 8d 85 c0 fa ff ff 	lea    rax,[rbp-0x540]
    3633:	48 89 c7             	mov    rdi,rax
    3636:	e8 00 00 00 00       	call   363b <_ZN9simulator7saveVtkER4mat2NSt7__cxx1112basic_stringIcSt11char_traitsIcESaIcEEE+0x51b>
    363b:	48 8d 85 80 fa ff ff 	lea    rax,[rbp-0x580]
    3642:	48 89 c7             	mov    rdi,rax
    3645:	e8 00 00 00 00       	call   364a <_ZN9simulator7saveVtkER4mat2NSt7__cxx1112basic_stringIcSt11char_traitsIcESaIcEEE+0x52a>
    364a:	48 8d 85 60 fa ff ff 	lea    rax,[rbp-0x5a0]
    3651:	48 89 c7             	mov    rdi,rax
    3654:	e8 00 00 00 00       	call   3659 <_ZN9simulator7saveVtkER4mat2NSt7__cxx1112basic_stringIcSt11char_traitsIcESaIcEEE+0x539>
    3659:	48 8d 85 40 fa ff ff 	lea    rax,[rbp-0x5c0]
    3660:	48 89 c7             	mov    rdi,rax
    3663:	e8 00 00 00 00       	call   3668 <_ZN9simulator7saveVtkER4mat2NSt7__cxx1112basic_stringIcSt11char_traitsIcESaIcEEE+0x548>
    3668:	48 8d 85 a0 fa ff ff 	lea    rax,[rbp-0x560]
    366f:	48 89 c7             	mov    rdi,rax
    3672:	e8 00 00 00 00       	call   3677 <_ZN9simulator7saveVtkER4mat2NSt7__cxx1112basic_stringIcSt11char_traitsIcESaIcEEE+0x557>
    3677:	48 8d 85 a0 fb ff ff 	lea    rax,[rbp-0x460]
    367e:	48 89 c7             	mov    rdi,rax
    3681:	e8 00 00 00 00       	call   3686 <_ZN9simulator7saveVtkER4mat2NSt7__cxx1112basic_stringIcSt11char_traitsIcESaIcEEE+0x566>
    3686:	48 8b 85 c8 f8 ff ff 	mov    rax,QWORD PTR [rbp-0x738]
    368d:	8b 50 24             	mov    edx,DWORD PTR [rax+0x24]
    3690:	48 8b 85 c8 f8 ff ff 	mov    rax,QWORD PTR [rbp-0x738]
    3697:	8b 40 28             	mov    eax,DWORD PTR [rax+0x28]
    369a:	0f af d0             	imul   edx,eax
    369d:	48 8d 85 00 fb ff ff 	lea    rax,[rbp-0x500]
    36a4:	89 d6                	mov    esi,edx
    36a6:	48 89 c7             	mov    rdi,rax
    36a9:	e8 00 00 00 00       	call   36ae <_ZN9simulator7saveVtkER4mat2NSt7__cxx1112basic_stringIcSt11char_traitsIcESaIcEEE+0x58e>
    36ae:	48 8d 85 20 fb ff ff 	lea    rax,[rbp-0x4e0]
    36b5:	48 8d 95 00 fb ff ff 	lea    rdx,[rbp-0x500]
    36bc:	be 00 00 00 00       	mov    esi,0x0
    36c1:	48 89 c7             	mov    rdi,rax
    36c4:	e8 00 00 00 00       	call   36c9 <_ZN9simulator7saveVtkER4mat2NSt7__cxx1112basic_stringIcSt11char_traitsIcESaIcEEE+0x5a9>
    36c9:	48 8d 95 20 fb ff ff 	lea    rdx,[rbp-0x4e0]
    36d0:	48 8d 85 a0 fb ff ff 	lea    rax,[rbp-0x460]
    36d7:	48 89 d6             	mov    rsi,rdx
    36da:	48 89 c7             	mov    rdi,rax
    36dd:	e8 00 00 00 00       	call   36e2 <_ZN9simulator7saveVtkER4mat2NSt7__cxx1112basic_stringIcSt11char_traitsIcESaIcEEE+0x5c2>
    36e2:	48 8d 85 20 fb ff ff 	lea    rax,[rbp-0x4e0]
    36e9:	48 89 c7             	mov    rdi,rax
    36ec:	e8 00 00 00 00       	call   36f1 <_ZN9simulator7saveVtkER4mat2NSt7__cxx1112basic_stringIcSt11char_traitsIcESaIcEEE+0x5d1>
    36f1:	48 8d 85 00 fb ff ff 	lea    rax,[rbp-0x500]
    36f8:	48 89 c7             	mov    rdi,rax
    36fb:	e8 00 00 00 00       	call   3700 <_ZN9simulator7saveVtkER4mat2NSt7__cxx1112basic_stringIcSt11char_traitsIcESaIcEEE+0x5e0>
    3700:	48 8d 85 a0 fb ff ff 	lea    rax,[rbp-0x460]
    3707:	48 89 c7             	mov    rdi,rax
    370a:	e8 00 00 00 00       	call   370f <_ZN9simulator7saveVtkER4mat2NSt7__cxx1112basic_stringIcSt11char_traitsIcESaIcEEE+0x5ef>
    370f:	48 8d 85 d7 f8 ff ff 	lea    rax,[rbp-0x729]
    3716:	48 89 c7             	mov    rdi,rax
    3719:	e8 00 00 00 00       	call   371e <_ZN9simulator7saveVtkER4mat2NSt7__cxx1112basic_stringIcSt11char_traitsIcESaIcEEE+0x5fe>
    371e:	48 8d 95 d7 f8 ff ff 	lea    rdx,[rbp-0x729]
    3725:	48 8d 85 40 fb ff ff 	lea    rax,[rbp-0x4c0]
    372c:	be 00 00 00 00       	mov    esi,0x0
    3731:	48 89 c7             	mov    rdi,rax
    3734:	e8 00 00 00 00       	call   3739 <_ZN9simulator7saveVtkER4mat2NSt7__cxx1112basic_stringIcSt11char_traitsIcESaIcEEE+0x619>
    3739:	48 8d 95 40 fb ff ff 	lea    rdx,[rbp-0x4c0]
    3740:	48 8d 85 a0 fb ff ff 	lea    rax,[rbp-0x460]
    3747:	48 89 d6             	mov    rsi,rdx
    374a:	48 89 c7             	mov    rdi,rax
    374d:	e8 00 00 00 00       	call   3752 <_ZN9simulator7saveVtkER4mat2NSt7__cxx1112basic_stringIcSt11char_traitsIcESaIcEEE+0x632>
    3752:	48 8d 85 40 fb ff ff 	lea    rax,[rbp-0x4c0]
    3759:	48 89 c7             	mov    rdi,rax
    375c:	e8 00 00 00 00       	call   3761 <_ZN9simulator7saveVtkER4mat2NSt7__cxx1112basic_stringIcSt11char_traitsIcESaIcEEE+0x641>
    3761:	48 8d 85 d7 f8 ff ff 	lea    rax,[rbp-0x729]
    3768:	48 89 c7             	mov    rdi,rax
    376b:	e8 00 00 00 00       	call   3770 <_ZN9simulator7saveVtkER4mat2NSt7__cxx1112basic_stringIcSt11char_traitsIcESaIcEEE+0x650>
    3770:	48 8d 85 a0 fb ff ff 	lea    rax,[rbp-0x460]
    3777:	48 89 c7             	mov    rdi,rax
    377a:	e8 00 00 00 00       	call   377f <_ZN9simulator7saveVtkER4mat2NSt7__cxx1112basic_stringIcSt11char_traitsIcESaIcEEE+0x65f>
    377f:	48 8d 85 d7 f8 ff ff 	lea    rax,[rbp-0x729]
    3786:	48 89 c7             	mov    rdi,rax
    3789:	e8 00 00 00 00       	call   378e <_ZN9simulator7saveVtkER4mat2NSt7__cxx1112basic_stringIcSt11char_traitsIcESaIcEEE+0x66e>
    378e:	48 8d 95 d7 f8 ff ff 	lea    rdx,[rbp-0x729]
    3795:	48 8d 85 60 fb ff ff 	lea    rax,[rbp-0x4a0]
    379c:	be 00 00 00 00       	mov    esi,0x0
    37a1:	48 89 c7             	mov    rdi,rax
    37a4:	e8 00 00 00 00       	call   37a9 <_ZN9simulator7saveVtkER4mat2NSt7__cxx1112basic_stringIcSt11char_traitsIcESaIcEEE+0x689>
    37a9:	48 8d 95 60 fb ff ff 	lea    rdx,[rbp-0x4a0]
    37b0:	48 8d 85 a0 fb ff ff 	lea    rax,[rbp-0x460]
    37b7:	48 89 d6             	mov    rsi,rdx
    37ba:	48 89 c7             	mov    rdi,rax
    37bd:	e8 00 00 00 00       	call   37c2 <_ZN9simulator7saveVtkER4mat2NSt7__cxx1112basic_stringIcSt11char_traitsIcESaIcEEE+0x6a2>
    37c2:	48 8d 85 60 fb ff ff 	lea    rax,[rbp-0x4a0]
    37c9:	48 89 c7             	mov    rdi,rax
    37cc:	e8 00 00 00 00       	call   37d1 <_ZN9simulator7saveVtkER4mat2NSt7__cxx1112basic_stringIcSt11char_traitsIcESaIcEEE+0x6b1>
    37d1:	48 8d 85 d7 f8 ff ff 	lea    rax,[rbp-0x729]
    37d8:	48 89 c7             	mov    rdi,rax
    37db:	e8 00 00 00 00       	call   37e0 <_ZN9simulator7saveVtkER4mat2NSt7__cxx1112basic_stringIcSt11char_traitsIcESaIcEEE+0x6c0>
    37e0:	48 8d 85 a0 fb ff ff 	lea    rax,[rbp-0x460]
    37e7:	48 89 c7             	mov    rdi,rax
    37ea:	e8 00 00 00 00       	call   37ef <_ZN9simulator7saveVtkER4mat2NSt7__cxx1112basic_stringIcSt11char_traitsIcESaIcEEE+0x6cf>
    37ef:	c7 85 d8 f8 ff ff 00 	mov    DWORD PTR [rbp-0x728],0x0
    37f6:	00 00 00 
    37f9:	48 8b 85 c8 f8 ff ff 	mov    rax,QWORD PTR [rbp-0x738]
    3800:	8b 40 24             	mov    eax,DWORD PTR [rax+0x24]
    3803:	3b 85 d8 f8 ff ff    	cmp    eax,DWORD PTR [rbp-0x728]
    3809:	0f 8e c5 00 00 00    	jle    38d4 <_ZN9simulator7saveVtkER4mat2NSt7__cxx1112basic_stringIcSt11char_traitsIcESaIcEEE+0x7b4>
    380f:	c7 85 dc f8 ff ff 00 	mov    DWORD PTR [rbp-0x724],0x0
    3816:	00 00 00 
    3819:	48 8b 85 c8 f8 ff ff 	mov    rax,QWORD PTR [rbp-0x738]
    3820:	8b 40 28             	mov    eax,DWORD PTR [rax+0x28]
    3823:	3b 85 dc f8 ff ff    	cmp    eax,DWORD PTR [rbp-0x724]
    3829:	0f 8e 99 00 00 00    	jle    38c8 <_ZN9simulator7saveVtkER4mat2NSt7__cxx1112basic_stringIcSt11char_traitsIcESaIcEEE+0x7a8>
    382f:	8b 95 dc f8 ff ff    	mov    edx,DWORD PTR [rbp-0x724]
    3835:	8b 8d d8 f8 ff ff    	mov    ecx,DWORD PTR [rbp-0x728]
    383b:	48 8b 85 c0 f8 ff ff 	mov    rax,QWORD PTR [rbp-0x740]
    3842:	89 ce                	mov    esi,ecx
    3844:	48 89 c7             	mov    rdi,rax
    3847:	e8 00 00 00 00       	call   384c <_ZN9simulator7saveVtkER4mat2NSt7__cxx1112basic_stringIcSt11char_traitsIcESaIcEEE+0x72c>
    384c:	48 8d 85 a0 fb ff ff 	lea    rax,[rbp-0x460]
    3853:	48 89 c7             	mov    rdi,rax
    3856:	e8 00 00 00 00       	call   385b <_ZN9simulator7saveVtkER4mat2NSt7__cxx1112basic_stringIcSt11char_traitsIcESaIcEEE+0x73b>
    385b:	48 8d 85 d7 f8 ff ff 	lea    rax,[rbp-0x729]
    3862:	48 89 c7             	mov    rdi,rax
    3865:	e8 00 00 00 00       	call   386a <_ZN9simulator7saveVtkER4mat2NSt7__cxx1112basic_stringIcSt11char_traitsIcESaIcEEE+0x74a>
    386a:	48 8d 95 d7 f8 ff ff 	lea    rdx,[rbp-0x729]
    3871:	48 8d 85 80 fb ff ff 	lea    rax,[rbp-0x480]
    3878:	be 00 00 00 00       	mov    esi,0x0
    387d:	48 89 c7             	mov    rdi,rax
    3880:	e8 00 00 00 00       	call   3885 <_ZN9simulator7saveVtkER4mat2NSt7__cxx1112basic_stringIcSt11char_traitsIcESaIcEEE+0x765>
    3885:	48 8d 95 80 fb ff ff 	lea    rdx,[rbp-0x480]
    388c:	48 8d 85 a0 fb ff ff 	lea    rax,[rbp-0x460]
    3893:	48 89 d6             	mov    rsi,rdx
    3896:	48 89 c7             	mov    rdi,rax
    3899:	e8 00 00 00 00       	call   389e <_ZN9simulator7saveVtkER4mat2NSt7__cxx1112basic_stringIcSt11char_traitsIcESaIcEEE+0x77e>
    389e:	48 8d 85 80 fb ff ff 	lea    rax,[rbp-0x480]
    38a5:	48 89 c7             	mov    rdi,rax
    38a8:	e8 00 00 00 00       	call   38ad <_ZN9simulator7saveVtkER4mat2NSt7__cxx1112basic_stringIcSt11char_traitsIcESaIcEEE+0x78d>
    38ad:	48 8d 85 d7 f8 ff ff 	lea    rax,[rbp-0x729]
    38b4:	48 89 c7             	mov    rdi,rax
    38b7:	e8 00 00 00 00       	call   38bc <_ZN9simulator7saveVtkER4mat2NSt7__cxx1112basic_stringIcSt11char_traitsIcESaIcEEE+0x79c>
    38bc:	83 85 dc f8 ff ff 01 	add    DWORD PTR [rbp-0x724],0x1
    38c3:	e9 51 ff ff ff       	jmp    3819 <_ZN9simulator7saveVtkER4mat2NSt7__cxx1112basic_stringIcSt11char_traitsIcESaIcEEE+0x6f9>
    38c8:	83 85 d8 f8 ff ff 01 	add    DWORD PTR [rbp-0x728],0x1
    38cf:	e9 25 ff ff ff       	jmp    37f9 <_ZN9simulator7saveVtkER4mat2NSt7__cxx1112basic_stringIcSt11char_traitsIcESaIcEEE+0x6d9>
    38d4:	48 8d 85 a0 fb ff ff 	lea    rax,[rbp-0x460]
    38db:	48 89 c7             	mov    rdi,rax
    38de:	e8 00 00 00 00       	call   38e3 <_ZN9simulator7saveVtkER4mat2NSt7__cxx1112basic_stringIcSt11char_traitsIcESaIcEEE+0x7c3>
    38e3:	48 8d 85 a0 fb ff ff 	lea    rax,[rbp-0x460]
    38ea:	48 89 c7             	mov    rdi,rax
    38ed:	e8 00 00 00 00       	call   38f2 <_ZN9simulator7saveVtkER4mat2NSt7__cxx1112basic_stringIcSt11char_traitsIcESaIcEEE+0x7d2>
    38f2:	90                   	nop
    38f3:	48 8b 45 e8          	mov    rax,QWORD PTR [rbp-0x18]
    38f7:	64 48 33 04 25 28 00 	xor    rax,QWORD PTR fs:0x28
    38fe:	00 00 
    3900:	0f 84 d9 02 00 00    	je     3bdf <_ZN9simulator7saveVtkER4mat2NSt7__cxx1112basic_stringIcSt11char_traitsIcESaIcEEE+0xabf>
    3906:	e9 cf 02 00 00       	jmp    3bda <_ZN9simulator7saveVtkER4mat2NSt7__cxx1112basic_stringIcSt11char_traitsIcESaIcEEE+0xaba>
    390b:	48 89 c3             	mov    rbx,rax
    390e:	48 8d 85 60 fb ff ff 	lea    rax,[rbp-0x4a0]
    3915:	48 89 c7             	mov    rdi,rax
    3918:	e8 00 00 00 00       	call   391d <_ZN9simulator7saveVtkER4mat2NSt7__cxx1112basic_stringIcSt11char_traitsIcESaIcEEE+0x7fd>
    391d:	eb 03                	jmp    3922 <_ZN9simulator7saveVtkER4mat2NSt7__cxx1112basic_stringIcSt11char_traitsIcESaIcEEE+0x802>
    391f:	48 89 c3             	mov    rbx,rax
    3922:	48 8d 85 80 fb ff ff 	lea    rax,[rbp-0x480]
    3929:	48 89 c7             	mov    rdi,rax
    392c:	e8 00 00 00 00       	call   3931 <_ZN9simulator7saveVtkER4mat2NSt7__cxx1112basic_stringIcSt11char_traitsIcESaIcEEE+0x811>
    3931:	eb 03                	jmp    3936 <_ZN9simulator7saveVtkER4mat2NSt7__cxx1112basic_stringIcSt11char_traitsIcESaIcEEE+0x816>
    3933:	48 89 c3             	mov    rbx,rax
    3936:	48 8d 85 d7 f8 ff ff 	lea    rax,[rbp-0x729]
    393d:	48 89 c7             	mov    rdi,rax
    3940:	e8 00 00 00 00       	call   3945 <_ZN9simulator7saveVtkER4mat2NSt7__cxx1112basic_stringIcSt11char_traitsIcESaIcEEE+0x825>
    3945:	48 89 d8             	mov    rax,rbx
    3948:	48 89 c7             	mov    rdi,rax
    394b:	e8 00 00 00 00       	call   3950 <_ZN9simulator7saveVtkER4mat2NSt7__cxx1112basic_stringIcSt11char_traitsIcESaIcEEE+0x830>
    3950:	48 89 c3             	mov    rbx,rax
    3953:	48 8d 85 e0 f8 ff ff 	lea    rax,[rbp-0x720]
    395a:	48 89 c7             	mov    rdi,rax
    395d:	e8 00 00 00 00       	call   3962 <_ZN9simulator7saveVtkER4mat2NSt7__cxx1112basic_stringIcSt11char_traitsIcESaIcEEE+0x842>
    3962:	eb 03                	jmp    3967 <_ZN9simulator7saveVtkER4mat2NSt7__cxx1112basic_stringIcSt11char_traitsIcESaIcEEE+0x847>
    3964:	48 89 c3             	mov    rbx,rax
    3967:	48 8d 85 d7 f8 ff ff 	lea    rax,[rbp-0x729]
    396e:	48 89 c7             	mov    rdi,rax
    3971:	e8 00 00 00 00       	call   3976 <_ZN9simulator7saveVtkER4mat2NSt7__cxx1112basic_stringIcSt11char_traitsIcESaIcEEE+0x856>
    3976:	e9 45 02 00 00       	jmp    3bc0 <_ZN9simulator7saveVtkER4mat2NSt7__cxx1112basic_stringIcSt11char_traitsIcESaIcEEE+0xaa0>
    397b:	48 89 c3             	mov    rbx,rax
    397e:	48 8d 85 00 f9 ff ff 	lea    rax,[rbp-0x700]
    3985:	48 89 c7             	mov    rdi,rax
    3988:	e8 00 00 00 00       	call   398d <_ZN9simulator7saveVtkER4mat2NSt7__cxx1112basic_stringIcSt11char_traitsIcESaIcEEE+0x86d>
    398d:	eb 03                	jmp    3992 <_ZN9simulator7saveVtkER4mat2NSt7__cxx1112basic_stringIcSt11char_traitsIcESaIcEEE+0x872>
    398f:	48 89 c3             	mov    rbx,rax
    3992:	48 8d 85 d7 f8 ff ff 	lea    rax,[rbp-0x729]
    3999:	48 89 c7             	mov    rdi,rax
    399c:	e8 00 00 00 00       	call   39a1 <_ZN9simulator7saveVtkER4mat2NSt7__cxx1112basic_stringIcSt11char_traitsIcESaIcEEE+0x881>
    39a1:	e9 1a 02 00 00       	jmp    3bc0 <_ZN9simulator7saveVtkER4mat2NSt7__cxx1112basic_stringIcSt11char_traitsIcESaIcEEE+0xaa0>
    39a6:	48 89 c3             	mov    rbx,rax
    39a9:	48 8d 85 20 f9 ff ff 	lea    rax,[rbp-0x6e0]
    39b0:	48 89 c7             	mov    rdi,rax
    39b3:	e8 00 00 00 00       	call   39b8 <_ZN9simulator7saveVtkER4mat2NSt7__cxx1112basic_stringIcSt11char_traitsIcESaIcEEE+0x898>
    39b8:	eb 03                	jmp    39bd <_ZN9simulator7saveVtkER4mat2NSt7__cxx1112basic_stringIcSt11char_traitsIcESaIcEEE+0x89d>
    39ba:	48 89 c3             	mov    rbx,rax
    39bd:	48 8d 85 d7 f8 ff ff 	lea    rax,[rbp-0x729]
    39c4:	48 89 c7             	mov    rdi,rax
    39c7:	e8 00 00 00 00       	call   39cc <_ZN9simulator7saveVtkER4mat2NSt7__cxx1112basic_stringIcSt11char_traitsIcESaIcEEE+0x8ac>
    39cc:	e9 ef 01 00 00       	jmp    3bc0 <_ZN9simulator7saveVtkER4mat2NSt7__cxx1112basic_stringIcSt11char_traitsIcESaIcEEE+0xaa0>
    39d1:	48 89 c3             	mov    rbx,rax
    39d4:	48 8d 85 40 f9 ff ff 	lea    rax,[rbp-0x6c0]
    39db:	48 89 c7             	mov    rdi,rax
    39de:	e8 00 00 00 00       	call   39e3 <_ZN9simulator7saveVtkER4mat2NSt7__cxx1112basic_stringIcSt11char_traitsIcESaIcEEE+0x8c3>
    39e3:	eb 03                	jmp    39e8 <_ZN9simulator7saveVtkER4mat2NSt7__cxx1112basic_stringIcSt11char_traitsIcESaIcEEE+0x8c8>
    39e5:	48 89 c3             	mov    rbx,rax
    39e8:	48 8d 85 d7 f8 ff ff 	lea    rax,[rbp-0x729]
    39ef:	48 89 c7             	mov    rdi,rax
    39f2:	e8 00 00 00 00       	call   39f7 <_ZN9simulator7saveVtkER4mat2NSt7__cxx1112basic_stringIcSt11char_traitsIcESaIcEEE+0x8d7>
    39f7:	e9 c4 01 00 00       	jmp    3bc0 <_ZN9simulator7saveVtkER4mat2NSt7__cxx1112basic_stringIcSt11char_traitsIcESaIcEEE+0xaa0>
    39fc:	48 89 c3             	mov    rbx,rax
    39ff:	48 8d 85 00 fa ff ff 	lea    rax,[rbp-0x600]
    3a06:	48 89 c7             	mov    rdi,rax
    3a09:	e8 00 00 00 00       	call   3a0e <_ZN9simulator7saveVtkER4mat2NSt7__cxx1112basic_stringIcSt11char_traitsIcESaIcEEE+0x8ee>
    3a0e:	eb 03                	jmp    3a13 <_ZN9simulator7saveVtkER4mat2NSt7__cxx1112basic_stringIcSt11char_traitsIcESaIcEEE+0x8f3>
    3a10:	48 89 c3             	mov    rbx,rax
    3a13:	48 8d 85 e0 f9 ff ff 	lea    rax,[rbp-0x620]
    3a1a:	48 89 c7             	mov    rdi,rax
    3a1d:	e8 00 00 00 00       	call   3a22 <_ZN9simulator7saveVtkER4mat2NSt7__cxx1112basic_stringIcSt11char_traitsIcESaIcEEE+0x902>
    3a22:	eb 03                	jmp    3a27 <_ZN9simulator7saveVtkER4mat2NSt7__cxx1112basic_stringIcSt11char_traitsIcESaIcEEE+0x907>
    3a24:	48 89 c3             	mov    rbx,rax
    3a27:	48 8d 85 a0 f9 ff ff 	lea    rax,[rbp-0x660]
    3a2e:	48 89 c7             	mov    rdi,rax
    3a31:	e8 00 00 00 00       	call   3a36 <_ZN9simulator7saveVtkER4mat2NSt7__cxx1112basic_stringIcSt11char_traitsIcESaIcEEE+0x916>
    3a36:	eb 03                	jmp    3a3b <_ZN9simulator7saveVtkER4mat2NSt7__cxx1112basic_stringIcSt11char_traitsIcESaIcEEE+0x91b>
    3a38:	48 89 c3             	mov    rbx,rax
    3a3b:	48 8d 85 80 f9 ff ff 	lea    rax,[rbp-0x680]
    3a42:	48 89 c7             	mov    rdi,rax
    3a45:	e8 00 00 00 00       	call   3a4a <_ZN9simulator7saveVtkER4mat2NSt7__cxx1112basic_stringIcSt11char_traitsIcESaIcEEE+0x92a>
    3a4a:	eb 03                	jmp    3a4f <_ZN9simulator7saveVtkER4mat2NSt7__cxx1112basic_stringIcSt11char_traitsIcESaIcEEE+0x92f>
    3a4c:	48 89 c3             	mov    rbx,rax
    3a4f:	48 8d 85 60 f9 ff ff 	lea    rax,[rbp-0x6a0]
    3a56:	48 89 c7             	mov    rdi,rax
    3a59:	e8 00 00 00 00       	call   3a5e <_ZN9simulator7saveVtkER4mat2NSt7__cxx1112basic_stringIcSt11char_traitsIcESaIcEEE+0x93e>
    3a5e:	eb 03                	jmp    3a63 <_ZN9simulator7saveVtkER4mat2NSt7__cxx1112basic_stringIcSt11char_traitsIcESaIcEEE+0x943>
    3a60:	48 89 c3             	mov    rbx,rax
    3a63:	48 8d 85 c0 f9 ff ff 	lea    rax,[rbp-0x640]
    3a6a:	48 89 c7             	mov    rdi,rax
    3a6d:	e8 00 00 00 00       	call   3a72 <_ZN9simulator7saveVtkER4mat2NSt7__cxx1112basic_stringIcSt11char_traitsIcESaIcEEE+0x952>
    3a72:	e9 49 01 00 00       	jmp    3bc0 <_ZN9simulator7saveVtkER4mat2NSt7__cxx1112basic_stringIcSt11char_traitsIcESaIcEEE+0xaa0>
    3a77:	48 89 c3             	mov    rbx,rax
    3a7a:	48 8d 85 20 fa ff ff 	lea    rax,[rbp-0x5e0]
    3a81:	48 89 c7             	mov    rdi,rax
    3a84:	e8 00 00 00 00       	call   3a89 <_ZN9simulator7saveVtkER4mat2NSt7__cxx1112basic_stringIcSt11char_traitsIcESaIcEEE+0x969>
    3a89:	eb 03                	jmp    3a8e <_ZN9simulator7saveVtkER4mat2NSt7__cxx1112basic_stringIcSt11char_traitsIcESaIcEEE+0x96e>
    3a8b:	48 89 c3             	mov    rbx,rax
    3a8e:	48 8d 85 d7 f8 ff ff 	lea    rax,[rbp-0x729]
    3a95:	48 89 c7             	mov    rdi,rax
    3a98:	e8 00 00 00 00       	call   3a9d <_ZN9simulator7saveVtkER4mat2NSt7__cxx1112basic_stringIcSt11char_traitsIcESaIcEEE+0x97d>
    3a9d:	e9 1e 01 00 00       	jmp    3bc0 <_ZN9simulator7saveVtkER4mat2NSt7__cxx1112basic_stringIcSt11char_traitsIcESaIcEEE+0xaa0>
    3aa2:	48 89 c3             	mov    rbx,rax
    3aa5:	48 8d 85 e0 fa ff ff 	lea    rax,[rbp-0x520]
    3aac:	48 89 c7             	mov    rdi,rax
    3aaf:	e8 00 00 00 00       	call   3ab4 <_ZN9simulator7saveVtkER4mat2NSt7__cxx1112basic_stringIcSt11char_traitsIcESaIcEEE+0x994>
    3ab4:	eb 03                	jmp    3ab9 <_ZN9simulator7saveVtkER4mat2NSt7__cxx1112basic_stringIcSt11char_traitsIcESaIcEEE+0x999>
    3ab6:	48 89 c3             	mov    rbx,rax
    3ab9:	48 8d 85 c0 fa ff ff 	lea    rax,[rbp-0x540]
    3ac0:	48 89 c7             	mov    rdi,rax
    3ac3:	e8 00 00 00 00       	call   3ac8 <_ZN9simulator7saveVtkER4mat2NSt7__cxx1112basic_stringIcSt11char_traitsIcESaIcEEE+0x9a8>
    3ac8:	eb 03                	jmp    3acd <_ZN9simulator7saveVtkER4mat2NSt7__cxx1112basic_stringIcSt11char_traitsIcESaIcEEE+0x9ad>
    3aca:	48 89 c3             	mov    rbx,rax
    3acd:	48 8d 85 80 fa ff ff 	lea    rax,[rbp-0x580]
    3ad4:	48 89 c7             	mov    rdi,rax
    3ad7:	e8 00 00 00 00       	call   3adc <_ZN9simulator7saveVtkER4mat2NSt7__cxx1112basic_stringIcSt11char_traitsIcESaIcEEE+0x9bc>
    3adc:	eb 03                	jmp    3ae1 <_ZN9simulator7saveVtkER4mat2NSt7__cxx1112basic_stringIcSt11char_traitsIcESaIcEEE+0x9c1>
    3ade:	48 89 c3             	mov    rbx,rax
    3ae1:	48 8d 85 60 fa ff ff 	lea    rax,[rbp-0x5a0]
    3ae8:	48 89 c7             	mov    rdi,rax
    3aeb:	e8 00 00 00 00       	call   3af0 <_ZN9simulator7saveVtkER4mat2NSt7__cxx1112basic_stringIcSt11char_traitsIcESaIcEEE+0x9d0>
    3af0:	eb 03                	jmp    3af5 <_ZN9simulator7saveVtkER4mat2NSt7__cxx1112basic_stringIcSt11char_traitsIcESaIcEEE+0x9d5>
    3af2:	48 89 c3             	mov    rbx,rax
    3af5:	48 8d 85 40 fa ff ff 	lea    rax,[rbp-0x5c0]
    3afc:	48 89 c7             	mov    rdi,rax
    3aff:	e8 00 00 00 00       	call   3b04 <_ZN9simulator7saveVtkER4mat2NSt7__cxx1112basic_stringIcSt11char_traitsIcESaIcEEE+0x9e4>
    3b04:	eb 03                	jmp    3b09 <_ZN9simulator7saveVtkER4mat2NSt7__cxx1112basic_stringIcSt11char_traitsIcESaIcEEE+0x9e9>
    3b06:	48 89 c3             	mov    rbx,rax
    3b09:	48 8d 85 a0 fa ff ff 	lea    rax,[rbp-0x560]
    3b10:	48 89 c7             	mov    rdi,rax
    3b13:	e8 00 00 00 00       	call   3b18 <_ZN9simulator7saveVtkER4mat2NSt7__cxx1112basic_stringIcSt11char_traitsIcESaIcEEE+0x9f8>
    3b18:	e9 a3 00 00 00       	jmp    3bc0 <_ZN9simulator7saveVtkER4mat2NSt7__cxx1112basic_stringIcSt11char_traitsIcESaIcEEE+0xaa0>
    3b1d:	48 89 c3             	mov    rbx,rax
    3b20:	48 8d 85 20 fb ff ff 	lea    rax,[rbp-0x4e0]
    3b27:	48 89 c7             	mov    rdi,rax
    3b2a:	e8 00 00 00 00       	call   3b2f <_ZN9simulator7saveVtkER4mat2NSt7__cxx1112basic_stringIcSt11char_traitsIcESaIcEEE+0xa0f>
    3b2f:	eb 03                	jmp    3b34 <_ZN9simulator7saveVtkER4mat2NSt7__cxx1112basic_stringIcSt11char_traitsIcESaIcEEE+0xa14>
    3b31:	48 89 c3             	mov    rbx,rax
    3b34:	48 8d 85 00 fb ff ff 	lea    rax,[rbp-0x500]
    3b3b:	48 89 c7             	mov    rdi,rax
    3b3e:	e8 00 00 00 00       	call   3b43 <_ZN9simulator7saveVtkER4mat2NSt7__cxx1112basic_stringIcSt11char_traitsIcESaIcEEE+0xa23>
    3b43:	eb 7b                	jmp    3bc0 <_ZN9simulator7saveVtkER4mat2NSt7__cxx1112basic_stringIcSt11char_traitsIcESaIcEEE+0xaa0>
    3b45:	48 89 c3             	mov    rbx,rax
    3b48:	48 8d 85 40 fb ff ff 	lea    rax,[rbp-0x4c0]
    3b4f:	48 89 c7             	mov    rdi,rax
    3b52:	e8 00 00 00 00       	call   3b57 <_ZN9simulator7saveVtkER4mat2NSt7__cxx1112basic_stringIcSt11char_traitsIcESaIcEEE+0xa37>
    3b57:	eb 03                	jmp    3b5c <_ZN9simulator7saveVtkER4mat2NSt7__cxx1112basic_stringIcSt11char_traitsIcESaIcEEE+0xa3c>
    3b59:	48 89 c3             	mov    rbx,rax
    3b5c:	48 8d 85 d7 f8 ff ff 	lea    rax,[rbp-0x729]
    3b63:	48 89 c7             	mov    rdi,rax
    3b66:	e8 00 00 00 00       	call   3b6b <_ZN9simulator7saveVtkER4mat2NSt7__cxx1112basic_stringIcSt11char_traitsIcESaIcEEE+0xa4b>
    3b6b:	eb 53                	jmp    3bc0 <_ZN9simulator7saveVtkER4mat2NSt7__cxx1112basic_stringIcSt11char_traitsIcESaIcEEE+0xaa0>
    3b6d:	48 89 c3             	mov    rbx,rax
    3b70:	48 8d 85 60 fb ff ff 	lea    rax,[rbp-0x4a0]
    3b77:	48 89 c7             	mov    rdi,rax
    3b7a:	e8 00 00 00 00       	call   3b7f <_ZN9simulator7saveVtkER4mat2NSt7__cxx1112basic_stringIcSt11char_traitsIcESaIcEEE+0xa5f>
    3b7f:	eb 03                	jmp    3b84 <_ZN9simulator7saveVtkER4mat2NSt7__cxx1112basic_stringIcSt11char_traitsIcESaIcEEE+0xa64>
    3b81:	48 89 c3             	mov    rbx,rax
    3b84:	48 8d 85 d7 f8 ff ff 	lea    rax,[rbp-0x729]
    3b8b:	48 89 c7             	mov    rdi,rax
    3b8e:	e8 00 00 00 00       	call   3b93 <_ZN9simulator7saveVtkER4mat2NSt7__cxx1112basic_stringIcSt11char_traitsIcESaIcEEE+0xa73>
    3b93:	eb 2b                	jmp    3bc0 <_ZN9simulator7saveVtkER4mat2NSt7__cxx1112basic_stringIcSt11char_traitsIcESaIcEEE+0xaa0>
    3b95:	48 89 c3             	mov    rbx,rax
    3b98:	48 8d 85 80 fb ff ff 	lea    rax,[rbp-0x480]
    3b9f:	48 89 c7             	mov    rdi,rax
    3ba2:	e8 00 00 00 00       	call   3ba7 <_ZN9simulator7saveVtkER4mat2NSt7__cxx1112basic_stringIcSt11char_traitsIcESaIcEEE+0xa87>
    3ba7:	eb 03                	jmp    3bac <_ZN9simulator7saveVtkER4mat2NSt7__cxx1112basic_stringIcSt11char_traitsIcESaIcEEE+0xa8c>
    3ba9:	48 89 c3             	mov    rbx,rax
    3bac:	48 8d 85 d7 f8 ff ff 	lea    rax,[rbp-0x729]
    3bb3:	48 89 c7             	mov    rdi,rax
    3bb6:	e8 00 00 00 00       	call   3bbb <_ZN9simulator7saveVtkER4mat2NSt7__cxx1112basic_stringIcSt11char_traitsIcESaIcEEE+0xa9b>
    3bbb:	eb 03                	jmp    3bc0 <_ZN9simulator7saveVtkER4mat2NSt7__cxx1112basic_stringIcSt11char_traitsIcESaIcEEE+0xaa0>
    3bbd:	48 89 c3             	mov    rbx,rax
    3bc0:	48 8d 85 a0 fb ff ff 	lea    rax,[rbp-0x460]
    3bc7:	48 89 c7             	mov    rdi,rax
    3bca:	e8 00 00 00 00       	call   3bcf <_ZN9simulator7saveVtkER4mat2NSt7__cxx1112basic_stringIcSt11char_traitsIcESaIcEEE+0xaaf>
    3bcf:	48 89 d8             	mov    rax,rbx
    3bd2:	48 89 c7             	mov    rdi,rax
    3bd5:	e8 00 00 00 00       	call   3bda <_ZN9simulator7saveVtkER4mat2NSt7__cxx1112basic_stringIcSt11char_traitsIcESaIcEEE+0xaba>
    3bda:	e8 00 00 00 00       	call   3bdf <_ZN9simulator7saveVtkER4mat2NSt7__cxx1112basic_stringIcSt11char_traitsIcESaIcEEE+0xabf>
    3bdf:	48 81 c4 48 07 00 00 	add    rsp,0x748
    3be6:	5b                   	pop    rbx
    3be7:	5d                   	pop    rbp
    3be8:	c3                   	ret    
    3be9:	90                   	nop

0000000000003bea <_ZN9simulator20saveVelocitiesToFileEv>:
    3bea:	55                   	push   rbp
    3beb:	48 89 e5             	mov    rbp,rsp
    3bee:	53                   	push   rbx
    3bef:	48 81 ec b8 06 00 00 	sub    rsp,0x6b8
    3bf6:	48 89 bd 48 f9 ff ff 	mov    QWORD PTR [rbp-0x6b8],rdi
    3bfd:	64 48 8b 04 25 28 00 	mov    rax,QWORD PTR fs:0x28
    3c04:	00 00 
    3c06:	48 89 45 e8          	mov    QWORD PTR [rbp-0x18],rax
    3c0a:	31 c0                	xor    eax,eax
    3c0c:	48 8d 85 f0 f9 ff ff 	lea    rax,[rbp-0x610]
    3c13:	be 10 00 00 00       	mov    esi,0x10
    3c18:	48 89 c7             	mov    rdi,rax
    3c1b:	e8 00 00 00 00       	call   3c20 <_ZN9simulator20saveVelocitiesToFileEv+0x36>
    3c20:	48 8d 85 70 fb ff ff 	lea    rax,[rbp-0x490]
    3c27:	be 10 00 00 00       	mov    esi,0x10
    3c2c:	48 89 c7             	mov    rdi,rax
    3c2f:	e8 00 00 00 00       	call   3c34 <_ZN9simulator20saveVelocitiesToFileEv+0x4a>
    3c34:	48 8d 85 f0 fc ff ff 	lea    rax,[rbp-0x310]
    3c3b:	be 10 00 00 00       	mov    esi,0x10
    3c40:	48 89 c7             	mov    rdi,rax
    3c43:	e8 00 00 00 00       	call   3c48 <_ZN9simulator20saveVelocitiesToFileEv+0x5e>
    3c48:	48 8d 85 70 fe ff ff 	lea    rax,[rbp-0x190]
    3c4f:	be 10 00 00 00       	mov    esi,0x10
    3c54:	48 89 c7             	mov    rdi,rax
    3c57:	e8 00 00 00 00       	call   3c5c <_ZN9simulator20saveVelocitiesToFileEv+0x72>
    3c5c:	48 8b 85 48 f9 ff ff 	mov    rax,QWORD PTR [rbp-0x6b8]
    3c63:	8b 58 30             	mov    ebx,DWORD PTR [rax+0x30]
    3c66:	48 8d 85 70 fe ff ff 	lea    rax,[rbp-0x190]
    3c6d:	be 00 00 00 00       	mov    esi,0x0
    3c72:	48 89 c7             	mov    rdi,rax
    3c75:	e8 00 00 00 00       	call   3c7a <_ZN9simulator20saveVelocitiesToFileEv+0x90>
    3c7a:	89 de                	mov    esi,ebx
    3c7c:	48 89 c7             	mov    rdi,rax
    3c7f:	e8 00 00 00 00       	call   3c84 <_ZN9simulator20saveVelocitiesToFileEv+0x9a>
    3c84:	be 00 00 00 00       	mov    esi,0x0
    3c89:	48 89 c7             	mov    rdi,rax
    3c8c:	e8 00 00 00 00       	call   3c91 <_ZN9simulator20saveVelocitiesToFileEv+0xa7>
    3c91:	48 8b 85 48 f9 ff ff 	mov    rax,QWORD PTR [rbp-0x6b8]
    3c98:	8b 58 30             	mov    ebx,DWORD PTR [rax+0x30]
    3c9b:	48 8d 85 f0 f9 ff ff 	lea    rax,[rbp-0x610]
    3ca2:	be 00 00 00 00       	mov    esi,0x0
    3ca7:	48 89 c7             	mov    rdi,rax
    3caa:	e8 00 00 00 00       	call   3caf <_ZN9simulator20saveVelocitiesToFileEv+0xc5>
    3caf:	89 de                	mov    esi,ebx
    3cb1:	48 89 c7             	mov    rdi,rax
    3cb4:	e8 00 00 00 00       	call   3cb9 <_ZN9simulator20saveVelocitiesToFileEv+0xcf>
    3cb9:	be 00 00 00 00       	mov    esi,0x0
    3cbe:	48 89 c7             	mov    rdi,rax
    3cc1:	e8 00 00 00 00       	call   3cc6 <_ZN9simulator20saveVelocitiesToFileEv+0xdc>
    3cc6:	48 8b 85 48 f9 ff ff 	mov    rax,QWORD PTR [rbp-0x6b8]
    3ccd:	8b 58 30             	mov    ebx,DWORD PTR [rax+0x30]
    3cd0:	48 8d 85 70 fb ff ff 	lea    rax,[rbp-0x490]
    3cd7:	be 00 00 00 00       	mov    esi,0x0
    3cdc:	48 89 c7             	mov    rdi,rax
    3cdf:	e8 00 00 00 00       	call   3ce4 <_ZN9simulator20saveVelocitiesToFileEv+0xfa>
    3ce4:	89 de                	mov    esi,ebx
    3ce6:	48 89 c7             	mov    rdi,rax
    3ce9:	e8 00 00 00 00       	call   3cee <_ZN9simulator20saveVelocitiesToFileEv+0x104>
    3cee:	be 00 00 00 00       	mov    esi,0x0
    3cf3:	48 89 c7             	mov    rdi,rax
    3cf6:	e8 00 00 00 00       	call   3cfb <_ZN9simulator20saveVelocitiesToFileEv+0x111>
    3cfb:	48 8b 85 48 f9 ff ff 	mov    rax,QWORD PTR [rbp-0x6b8]
    3d02:	8b 58 30             	mov    ebx,DWORD PTR [rax+0x30]
    3d05:	48 8d 85 f0 fc ff ff 	lea    rax,[rbp-0x310]
    3d0c:	be 00 00 00 00       	mov    esi,0x0
    3d11:	48 89 c7             	mov    rdi,rax
    3d14:	e8 00 00 00 00       	call   3d19 <_ZN9simulator20saveVelocitiesToFileEv+0x12f>
    3d19:	89 de                	mov    esi,ebx
    3d1b:	48 89 c7             	mov    rdi,rax
    3d1e:	e8 00 00 00 00       	call   3d23 <_ZN9simulator20saveVelocitiesToFileEv+0x139>
    3d23:	be 00 00 00 00       	mov    esi,0x0
    3d28:	48 89 c7             	mov    rdi,rax
    3d2b:	e8 00 00 00 00       	call   3d30 <_ZN9simulator20saveVelocitiesToFileEv+0x146>
    3d30:	48 8b 85 48 f9 ff ff 	mov    rax,QWORD PTR [rbp-0x6b8]
    3d37:	48 05 10 01 00 00    	add    rax,0x110
    3d3d:	48 89 c7             	mov    rdi,rax
    3d40:	e8 00 00 00 00       	call   3d45 <_ZN9simulator20saveVelocitiesToFileEv+0x15b>
    3d45:	f3 0f 2c d8          	cvttss2si ebx,xmm0
    3d49:	48 8b 85 48 f9 ff ff 	mov    rax,QWORD PTR [rbp-0x6b8]
    3d50:	48 05 10 01 00 00    	add    rax,0x110
    3d56:	48 89 c7             	mov    rdi,rax
    3d59:	e8 00 00 00 00       	call   3d5e <_ZN9simulator20saveVelocitiesToFileEv+0x174>
    3d5e:	f3 0f 2c c8          	cvttss2si ecx,xmm0
    3d62:	48 8d 85 60 f9 ff ff 	lea    rax,[rbp-0x6a0]
    3d69:	89 da                	mov    edx,ebx
    3d6b:	89 ce                	mov    esi,ecx
    3d6d:	48 89 c7             	mov    rdi,rax
    3d70:	e8 00 00 00 00       	call   3d75 <_ZN9simulator20saveVelocitiesToFileEv+0x18b>
    3d75:	c7 85 58 f9 ff ff 00 	mov    DWORD PTR [rbp-0x6a8],0x0
    3d7c:	00 00 00 
    3d7f:	66 0f ef d2          	pxor   xmm2,xmm2
    3d83:	f3 0f 2a 95 58 f9 ff 	cvtsi2ss xmm2,DWORD PTR [rbp-0x6a8]
    3d8a:	ff 
    3d8b:	f3 0f 11 95 44 f9 ff 	movss  DWORD PTR [rbp-0x6bc],xmm2
    3d92:	ff 
    3d93:	48 8d 85 60 f9 ff ff 	lea    rax,[rbp-0x6a0]
    3d9a:	48 89 c7             	mov    rdi,rax
    3d9d:	e8 00 00 00 00       	call   3da2 <_ZN9simulator20saveVelocitiesToFileEv+0x1b8>
    3da2:	0f 2e 85 44 f9 ff ff 	ucomiss xmm0,DWORD PTR [rbp-0x6bc]
    3da9:	0f 97 c0             	seta   al
    3dac:	84 c0                	test   al,al
    3dae:	0f 84 3c 01 00 00    	je     3ef0 <_ZN9simulator20saveVelocitiesToFileEv+0x306>
    3db4:	c7 85 5c f9 ff ff 00 	mov    DWORD PTR [rbp-0x6a4],0x0
    3dbb:	00 00 00 
    3dbe:	66 0f ef db          	pxor   xmm3,xmm3
    3dc2:	f3 0f 2a 9d 5c f9 ff 	cvtsi2ss xmm3,DWORD PTR [rbp-0x6a4]
    3dc9:	ff 
    3dca:	f3 0f 11 9d 44 f9 ff 	movss  DWORD PTR [rbp-0x6bc],xmm3
    3dd1:	ff 
    3dd2:	48 8d 85 60 f9 ff ff 	lea    rax,[rbp-0x6a0]
    3dd9:	48 89 c7             	mov    rdi,rax
    3ddc:	e8 00 00 00 00       	call   3de1 <_ZN9simulator20saveVelocitiesToFileEv+0x1f7>
    3de1:	0f 2e 85 44 f9 ff ff 	ucomiss xmm0,DWORD PTR [rbp-0x6bc]
    3de8:	0f 97 c0             	seta   al
    3deb:	84 c0                	test   al,al
    3ded:	0f 84 f1 00 00 00    	je     3ee4 <_ZN9simulator20saveVelocitiesToFileEv+0x2fa>
    3df3:	48 8b 85 48 f9 ff ff 	mov    rax,QWORD PTR [rbp-0x6b8]
    3dfa:	48 8d 88 10 01 00 00 	lea    rcx,[rax+0x110]
    3e01:	8b 95 5c f9 ff ff    	mov    edx,DWORD PTR [rbp-0x6a4]
    3e07:	8b 85 58 f9 ff ff    	mov    eax,DWORD PTR [rbp-0x6a8]
    3e0d:	89 c6                	mov    esi,eax
    3e0f:	48 89 cf             	mov    rdi,rcx
    3e12:	e8 00 00 00 00       	call   3e17 <_ZN9simulator20saveVelocitiesToFileEv+0x22d>
    3e17:	f3 0f 11 85 44 f9 ff 	movss  DWORD PTR [rbp-0x6bc],xmm0
    3e1e:	ff 
    3e1f:	48 8b 85 48 f9 ff ff 	mov    rax,QWORD PTR [rbp-0x6b8]
    3e26:	48 8d 88 10 01 00 00 	lea    rcx,[rax+0x110]
    3e2d:	8b 95 5c f9 ff ff    	mov    edx,DWORD PTR [rbp-0x6a4]
    3e33:	8b 85 58 f9 ff ff    	mov    eax,DWORD PTR [rbp-0x6a8]
    3e39:	89 c6                	mov    esi,eax
    3e3b:	48 89 cf             	mov    rdi,rcx
    3e3e:	e8 00 00 00 00       	call   3e43 <_ZN9simulator20saveVelocitiesToFileEv+0x259>
    3e43:	0f 28 c8             	movaps xmm1,xmm0
    3e46:	f3 0f 59 8d 44 f9 ff 	mulss  xmm1,DWORD PTR [rbp-0x6bc]
    3e4d:	ff 
    3e4e:	f3 0f 11 8d 44 f9 ff 	movss  DWORD PTR [rbp-0x6bc],xmm1
    3e55:	ff 
    3e56:	48 8b 85 48 f9 ff ff 	mov    rax,QWORD PTR [rbp-0x6b8]
    3e5d:	48 8d 88 20 01 00 00 	lea    rcx,[rax+0x120]
    3e64:	8b 95 5c f9 ff ff    	mov    edx,DWORD PTR [rbp-0x6a4]
    3e6a:	8b 85 58 f9 ff ff    	mov    eax,DWORD PTR [rbp-0x6a8]
    3e70:	89 c6                	mov    esi,eax
    3e72:	48 89 cf             	mov    rdi,rcx
    3e75:	e8 00 00 00 00       	call   3e7a <_ZN9simulator20saveVelocitiesToFileEv+0x290>
    3e7a:	f3 0f 11 85 40 f9 ff 	movss  DWORD PTR [rbp-0x6c0],xmm0
    3e81:	ff 
    3e82:	48 8b 85 48 f9 ff ff 	mov    rax,QWORD PTR [rbp-0x6b8]
    3e89:	48 8d 88 20 01 00 00 	lea    rcx,[rax+0x120]
    3e90:	8b 95 5c f9 ff ff    	mov    edx,DWORD PTR [rbp-0x6a4]
    3e96:	8b 85 58 f9 ff ff    	mov    eax,DWORD PTR [rbp-0x6a8]
    3e9c:	89 c6                	mov    esi,eax
    3e9e:	48 89 cf             	mov    rdi,rcx
    3ea1:	e8 00 00 00 00       	call   3ea6 <_ZN9simulator20saveVelocitiesToFileEv+0x2bc>
    3ea6:	f3 0f 59 85 40 f9 ff 	mulss  xmm0,DWORD PTR [rbp-0x6c0]
    3ead:	ff 
    3eae:	f3 0f 58 85 44 f9 ff 	addss  xmm0,DWORD PTR [rbp-0x6bc]
    3eb5:	ff 
    3eb6:	e8 00 00 00 00       	call   3ebb <_ZN9simulator20saveVelocitiesToFileEv+0x2d1>
    3ebb:	8b 95 5c f9 ff ff    	mov    edx,DWORD PTR [rbp-0x6a4]
    3ec1:	8b 8d 58 f9 ff ff    	mov    ecx,DWORD PTR [rbp-0x6a8]
    3ec7:	48 8d 85 60 f9 ff ff 	lea    rax,[rbp-0x6a0]
    3ece:	89 ce                	mov    esi,ecx
    3ed0:	48 89 c7             	mov    rdi,rax
    3ed3:	e8 00 00 00 00       	call   3ed8 <_ZN9simulator20saveVelocitiesToFileEv+0x2ee>
    3ed8:	83 85 5c f9 ff ff 01 	add    DWORD PTR [rbp-0x6a4],0x1
    3edf:	e9 da fe ff ff       	jmp    3dbe <_ZN9simulator20saveVelocitiesToFileEv+0x1d4>
    3ee4:	83 85 58 f9 ff ff 01 	add    DWORD PTR [rbp-0x6a8],0x1
    3eeb:	e9 8f fe ff ff       	jmp    3d7f <_ZN9simulator20saveVelocitiesToFileEv+0x195>
    3ef0:	48 8d 85 70 f9 ff ff 	lea    rax,[rbp-0x690]
    3ef7:	48 8d 95 f0 f9 ff ff 	lea    rdx,[rbp-0x610]
    3efe:	48 89 d6             	mov    rsi,rdx
    3f01:	48 89 c7             	mov    rdi,rax
    3f04:	e8 00 00 00 00       	call   3f09 <_ZN9simulator20saveVelocitiesToFileEv+0x31f>
    3f09:	48 8b 85 48 f9 ff ff 	mov    rax,QWORD PTR [rbp-0x6b8]
    3f10:	48 8d 88 10 01 00 00 	lea    rcx,[rax+0x110]
    3f17:	48 8d 95 70 f9 ff ff 	lea    rdx,[rbp-0x690]
    3f1e:	48 8b 85 48 f9 ff ff 	mov    rax,QWORD PTR [rbp-0x6b8]
    3f25:	48 89 ce             	mov    rsi,rcx
    3f28:	48 89 c7             	mov    rdi,rax
    3f2b:	e8 00 00 00 00       	call   3f30 <_ZN9simulator20saveVelocitiesToFileEv+0x346>
    3f30:	48 8d 85 70 f9 ff ff 	lea    rax,[rbp-0x690]
    3f37:	48 89 c7             	mov    rdi,rax
    3f3a:	e8 00 00 00 00       	call   3f3f <_ZN9simulator20saveVelocitiesToFileEv+0x355>
    3f3f:	48 8d 85 90 f9 ff ff 	lea    rax,[rbp-0x670]
    3f46:	48 8d 95 70 fb ff ff 	lea    rdx,[rbp-0x490]
    3f4d:	48 89 d6             	mov    rsi,rdx
    3f50:	48 89 c7             	mov    rdi,rax
    3f53:	e8 00 00 00 00       	call   3f58 <_ZN9simulator20saveVelocitiesToFileEv+0x36e>
    3f58:	48 8b 85 48 f9 ff ff 	mov    rax,QWORD PTR [rbp-0x6b8]
    3f5f:	48 8d 88 20 01 00 00 	lea    rcx,[rax+0x120]
    3f66:	48 8d 95 90 f9 ff ff 	lea    rdx,[rbp-0x670]
    3f6d:	48 8b 85 48 f9 ff ff 	mov    rax,QWORD PTR [rbp-0x6b8]
    3f74:	48 89 ce             	mov    rsi,rcx
    3f77:	48 89 c7             	mov    rdi,rax
    3f7a:	e8 00 00 00 00       	call   3f7f <_ZN9simulator20saveVelocitiesToFileEv+0x395>
    3f7f:	48 8d 85 90 f9 ff ff 	lea    rax,[rbp-0x670]
    3f86:	48 89 c7             	mov    rdi,rax
    3f89:	e8 00 00 00 00       	call   3f8e <_ZN9simulator20saveVelocitiesToFileEv+0x3a4>
    3f8e:	48 8d 85 b0 f9 ff ff 	lea    rax,[rbp-0x650]
    3f95:	48 8d 95 f0 fc ff ff 	lea    rdx,[rbp-0x310]
    3f9c:	48 89 d6             	mov    rsi,rdx
    3f9f:	48 89 c7             	mov    rdi,rax
    3fa2:	e8 00 00 00 00       	call   3fa7 <_ZN9simulator20saveVelocitiesToFileEv+0x3bd>
    3fa7:	48 8b 85 48 f9 ff ff 	mov    rax,QWORD PTR [rbp-0x6b8]
    3fae:	48 8d 88 30 01 00 00 	lea    rcx,[rax+0x130]
    3fb5:	48 8d 95 b0 f9 ff ff 	lea    rdx,[rbp-0x650]
    3fbc:	48 8b 85 48 f9 ff ff 	mov    rax,QWORD PTR [rbp-0x6b8]
    3fc3:	48 89 ce             	mov    rsi,rcx
    3fc6:	48 89 c7             	mov    rdi,rax
    3fc9:	e8 00 00 00 00       	call   3fce <_ZN9simulator20saveVelocitiesToFileEv+0x3e4>
    3fce:	48 8d 85 b0 f9 ff ff 	lea    rax,[rbp-0x650]
    3fd5:	48 89 c7             	mov    rdi,rax
    3fd8:	e8 00 00 00 00       	call   3fdd <_ZN9simulator20saveVelocitiesToFileEv+0x3f3>
    3fdd:	48 8d 85 d0 f9 ff ff 	lea    rax,[rbp-0x630]
    3fe4:	48 8d 95 70 fe ff ff 	lea    rdx,[rbp-0x190]
    3feb:	48 89 d6             	mov    rsi,rdx
    3fee:	48 89 c7             	mov    rdi,rax
    3ff1:	e8 00 00 00 00       	call   3ff6 <_ZN9simulator20saveVelocitiesToFileEv+0x40c>
    3ff6:	48 8d 95 d0 f9 ff ff 	lea    rdx,[rbp-0x630]
    3ffd:	48 8d 8d 60 f9 ff ff 	lea    rcx,[rbp-0x6a0]
    4004:	48 8b 85 48 f9 ff ff 	mov    rax,QWORD PTR [rbp-0x6b8]
    400b:	48 89 ce             	mov    rsi,rcx
    400e:	48 89 c7             	mov    rdi,rax
    4011:	e8 00 00 00 00       	call   4016 <_ZN9simulator20saveVelocitiesToFileEv+0x42c>
    4016:	48 8d 85 d0 f9 ff ff 	lea    rax,[rbp-0x630]
    401d:	48 89 c7             	mov    rdi,rax
    4020:	e8 00 00 00 00       	call   4025 <_ZN9simulator20saveVelocitiesToFileEv+0x43b>
    4025:	48 8d 85 60 f9 ff ff 	lea    rax,[rbp-0x6a0]
    402c:	48 89 c7             	mov    rdi,rax
    402f:	e8 00 00 00 00       	call   4034 <_ZN9simulator20saveVelocitiesToFileEv+0x44a>
    4034:	48 8d 85 70 fe ff ff 	lea    rax,[rbp-0x190]
    403b:	48 89 c7             	mov    rdi,rax
    403e:	e8 00 00 00 00       	call   4043 <_ZN9simulator20saveVelocitiesToFileEv+0x459>
    4043:	48 8d 85 f0 fc ff ff 	lea    rax,[rbp-0x310]
    404a:	48 89 c7             	mov    rdi,rax
    404d:	e8 00 00 00 00       	call   4052 <_ZN9simulator20saveVelocitiesToFileEv+0x468>
    4052:	48 8d 85 70 fb ff ff 	lea    rax,[rbp-0x490]
    4059:	48 89 c7             	mov    rdi,rax
    405c:	e8 00 00 00 00       	call   4061 <_ZN9simulator20saveVelocitiesToFileEv+0x477>
    4061:	48 8d 85 f0 f9 ff ff 	lea    rax,[rbp-0x610]
    4068:	48 89 c7             	mov    rdi,rax
    406b:	e8 00 00 00 00       	call   4070 <_ZN9simulator20saveVelocitiesToFileEv+0x486>
    4070:	90                   	nop
    4071:	48 8b 45 e8          	mov    rax,QWORD PTR [rbp-0x18]
    4075:	64 48 33 04 25 28 00 	xor    rax,QWORD PTR fs:0x28
    407c:	00 00 
    407e:	0f 84 c7 00 00 00    	je     414b <_ZN9simulator20saveVelocitiesToFileEv+0x561>
    4084:	e9 bd 00 00 00       	jmp    4146 <_ZN9simulator20saveVelocitiesToFileEv+0x55c>
    4089:	48 89 c3             	mov    rbx,rax
    408c:	48 8d 85 70 f9 ff ff 	lea    rax,[rbp-0x690]
    4093:	48 89 c7             	mov    rdi,rax
    4096:	e8 00 00 00 00       	call   409b <_ZN9simulator20saveVelocitiesToFileEv+0x4b1>
    409b:	eb 3f                	jmp    40dc <_ZN9simulator20saveVelocitiesToFileEv+0x4f2>
    409d:	48 89 c3             	mov    rbx,rax
    40a0:	48 8d 85 90 f9 ff ff 	lea    rax,[rbp-0x670]
    40a7:	48 89 c7             	mov    rdi,rax
    40aa:	e8 00 00 00 00       	call   40af <_ZN9simulator20saveVelocitiesToFileEv+0x4c5>
    40af:	eb 2b                	jmp    40dc <_ZN9simulator20saveVelocitiesToFileEv+0x4f2>
    40b1:	48 89 c3             	mov    rbx,rax
    40b4:	48 8d 85 b0 f9 ff ff 	lea    rax,[rbp-0x650]
    40bb:	48 89 c7             	mov    rdi,rax
    40be:	e8 00 00 00 00       	call   40c3 <_ZN9simulator20saveVelocitiesToFileEv+0x4d9>
    40c3:	eb 17                	jmp    40dc <_ZN9simulator20saveVelocitiesToFileEv+0x4f2>
    40c5:	48 89 c3             	mov    rbx,rax
    40c8:	48 8d 85 d0 f9 ff ff 	lea    rax,[rbp-0x630]
    40cf:	48 89 c7             	mov    rdi,rax
    40d2:	e8 00 00 00 00       	call   40d7 <_ZN9simulator20saveVelocitiesToFileEv+0x4ed>
    40d7:	eb 03                	jmp    40dc <_ZN9simulator20saveVelocitiesToFileEv+0x4f2>
    40d9:	48 89 c3             	mov    rbx,rax
    40dc:	48 8d 85 60 f9 ff ff 	lea    rax,[rbp-0x6a0]
    40e3:	48 89 c7             	mov    rdi,rax
    40e6:	e8 00 00 00 00       	call   40eb <_ZN9simulator20saveVelocitiesToFileEv+0x501>
    40eb:	eb 03                	jmp    40f0 <_ZN9simulator20saveVelocitiesToFileEv+0x506>
    40ed:	48 89 c3             	mov    rbx,rax
    40f0:	48 8d 85 70 fe ff ff 	lea    rax,[rbp-0x190]
    40f7:	48 89 c7             	mov    rdi,rax
    40fa:	e8 00 00 00 00       	call   40ff <_ZN9simulator20saveVelocitiesToFileEv+0x515>
    40ff:	eb 03                	jmp    4104 <_ZN9simulator20saveVelocitiesToFileEv+0x51a>
    4101:	48 89 c3             	mov    rbx,rax
    4104:	48 8d 85 f0 fc ff ff 	lea    rax,[rbp-0x310]
    410b:	48 89 c7             	mov    rdi,rax
    410e:	e8 00 00 00 00       	call   4113 <_ZN9simulator20saveVelocitiesToFileEv+0x529>
    4113:	eb 03                	jmp    4118 <_ZN9simulator20saveVelocitiesToFileEv+0x52e>
    4115:	48 89 c3             	mov    rbx,rax
    4118:	48 8d 85 70 fb ff ff 	lea    rax,[rbp-0x490]
    411f:	48 89 c7             	mov    rdi,rax
    4122:	e8 00 00 00 00       	call   4127 <_ZN9simulator20saveVelocitiesToFileEv+0x53d>
    4127:	eb 03                	jmp    412c <_ZN9simulator20saveVelocitiesToFileEv+0x542>
    4129:	48 89 c3             	mov    rbx,rax
    412c:	48 8d 85 f0 f9 ff ff 	lea    rax,[rbp-0x610]
    4133:	48 89 c7             	mov    rdi,rax
    4136:	e8 00 00 00 00       	call   413b <_ZN9simulator20saveVelocitiesToFileEv+0x551>
    413b:	48 89 d8             	mov    rax,rbx
    413e:	48 89 c7             	mov    rdi,rax
    4141:	e8 00 00 00 00       	call   4146 <_ZN9simulator20saveVelocitiesToFileEv+0x55c>
    4146:	e8 00 00 00 00       	call   414b <_ZN9simulator20saveVelocitiesToFileEv+0x561>
    414b:	48 81 c4 b8 06 00 00 	add    rsp,0x6b8
    4152:	5b                   	pop    rbx
    4153:	5d                   	pop    rbp
    4154:	c3                   	ret    
    4155:	90                   	nop

0000000000004156 <_ZN9simulator12centralSpeedEv>:
    4156:	55                   	push   rbp
    4157:	48 89 e5             	mov    rbp,rsp
    415a:	48 83 ec 30          	sub    rsp,0x30
    415e:	48 89 7d d8          	mov    QWORD PTR [rbp-0x28],rdi
    4162:	64 48 8b 04 25 28 00 	mov    rax,QWORD PTR fs:0x28
    4169:	00 00 
    416b:	48 89 45 f8          	mov    QWORD PTR [rbp-0x8],rax
    416f:	31 c0                	xor    eax,eax
    4171:	c7 45 ec 00 00 00 00 	mov    DWORD PTR [rbp-0x14],0x0
    4178:	48 8b 45 d8          	mov    rax,QWORD PTR [rbp-0x28]
    417c:	8b 40 24             	mov    eax,DWORD PTR [rax+0x24]
    417f:	3b 45 ec             	cmp    eax,DWORD PTR [rbp-0x14]
    4182:	0f 8e 8a 01 00 00    	jle    4312 <_ZN9simulator12centralSpeedEv+0x1bc>
    4188:	c7 45 f0 00 00 00 00 	mov    DWORD PTR [rbp-0x10],0x0
    418f:	48 8b 45 d8          	mov    rax,QWORD PTR [rbp-0x28]
    4193:	8b 40 28             	mov    eax,DWORD PTR [rax+0x28]
    4196:	3b 45 f0             	cmp    eax,DWORD PTR [rbp-0x10]
    4199:	0f 8e 6a 01 00 00    	jle    4309 <_ZN9simulator12centralSpeedEv+0x1b3>
    419f:	66 0f ef c0          	pxor   xmm0,xmm0
    41a3:	f3 0f 2a 45 ec       	cvtsi2ss xmm0,DWORD PTR [rbp-0x14]
    41a8:	48 8b 45 d8          	mov    rax,QWORD PTR [rbp-0x28]
    41ac:	f3 0f 10 48 34       	movss  xmm1,DWORD PTR [rax+0x34]
    41b1:	f3 0f 5c c1          	subss  xmm0,xmm1
    41b5:	0f 28 c8             	movaps xmm1,xmm0
    41b8:	66 0f ef c0          	pxor   xmm0,xmm0
    41bc:	f3 0f 2a 45 ec       	cvtsi2ss xmm0,DWORD PTR [rbp-0x14]
    41c1:	48 8b 45 d8          	mov    rax,QWORD PTR [rbp-0x28]
    41c5:	f3 0f 10 50 34       	movss  xmm2,DWORD PTR [rax+0x34]
    41ca:	f3 0f 5c c2          	subss  xmm0,xmm2
    41ce:	f3 0f 59 c8          	mulss  xmm1,xmm0
    41d2:	66 0f ef c0          	pxor   xmm0,xmm0
    41d6:	f3 0f 2a 45 f0       	cvtsi2ss xmm0,DWORD PTR [rbp-0x10]
    41db:	48 8b 45 d8          	mov    rax,QWORD PTR [rbp-0x28]
    41df:	f3 0f 10 50 38       	movss  xmm2,DWORD PTR [rax+0x38]
    41e4:	f3 0f 5c c2          	subss  xmm0,xmm2
    41e8:	0f 28 d0             	movaps xmm2,xmm0
    41eb:	66 0f ef c0          	pxor   xmm0,xmm0
    41ef:	f3 0f 2a 45 f0       	cvtsi2ss xmm0,DWORD PTR [rbp-0x10]
    41f4:	48 8b 45 d8          	mov    rax,QWORD PTR [rbp-0x28]
    41f8:	f3 0f 10 58 38       	movss  xmm3,DWORD PTR [rax+0x38]
    41fd:	f3 0f 5c c3          	subss  xmm0,xmm3
    4201:	f3 0f 59 c2          	mulss  xmm0,xmm2
    4205:	f3 0f 58 c1          	addss  xmm0,xmm1
    4209:	e8 00 00 00 00       	call   420e <_ZN9simulator12centralSpeedEv+0xb8>
    420e:	66 0f 7e c0          	movd   eax,xmm0
    4212:	89 45 f4             	mov    DWORD PTR [rbp-0xc],eax
    4215:	f3 0f 10 05 00 00 00 	movss  xmm0,DWORD PTR [rip+0x0]        # 421d <_ZN9simulator12centralSpeedEv+0xc7>
    421c:	00 
    421d:	0f 2e 45 f4          	ucomiss xmm0,DWORD PTR [rbp-0xc]
    4221:	0f 86 d9 00 00 00    	jbe    4300 <_ZN9simulator12centralSpeedEv+0x1aa>
    4227:	f3 0f 10 05 00 00 00 	movss  xmm0,DWORD PTR [rip+0x0]        # 422f <_ZN9simulator12centralSpeedEv+0xd9>
    422e:	00 
    422f:	f3 0f 11 45 e4       	movss  DWORD PTR [rbp-0x1c],xmm0
    4234:	f3 0f 10 45 e4       	movss  xmm0,DWORD PTR [rbp-0x1c]
    4239:	f3 0f 5e 45 f4       	divss  xmm0,DWORD PTR [rbp-0xc]
    423e:	f3 0f 11 45 e8       	movss  DWORD PTR [rbp-0x18],xmm0
    4243:	48 8d 55 e4          	lea    rdx,[rbp-0x1c]
    4247:	48 8d 45 e8          	lea    rax,[rbp-0x18]
    424b:	48 89 d6             	mov    rsi,rdx
    424e:	48 89 c7             	mov    rdi,rax
    4251:	e8 00 00 00 00       	call   4256 <_ZN9simulator12centralSpeedEv+0x100>
    4256:	8b 08                	mov    ecx,DWORD PTR [rax]
    4258:	48 8b 45 d8          	mov    rax,QWORD PTR [rbp-0x28]
    425c:	48 8d b8 10 01 00 00 	lea    rdi,[rax+0x110]
    4263:	8b 55 f0             	mov    edx,DWORD PTR [rbp-0x10]
    4266:	8b 45 ec             	mov    eax,DWORD PTR [rbp-0x14]
    4269:	89 4d d4             	mov    DWORD PTR [rbp-0x2c],ecx
    426c:	f3 0f 10 45 d4       	movss  xmm0,DWORD PTR [rbp-0x2c]
    4271:	89 c6                	mov    esi,eax
    4273:	e8 00 00 00 00       	call   4278 <_ZN9simulator12centralSpeedEv+0x122>
    4278:	f3 0f 10 45 e4       	movss  xmm0,DWORD PTR [rbp-0x1c]
    427d:	f3 0f 5e 45 f4       	divss  xmm0,DWORD PTR [rbp-0xc]
    4282:	f3 0f 11 45 e8       	movss  DWORD PTR [rbp-0x18],xmm0
    4287:	48 8d 55 e4          	lea    rdx,[rbp-0x1c]
    428b:	48 8d 45 e8          	lea    rax,[rbp-0x18]
    428f:	48 89 d6             	mov    rsi,rdx
    4292:	48 89 c7             	mov    rdi,rax
    4295:	e8 00 00 00 00       	call   429a <_ZN9simulator12centralSpeedEv+0x144>
    429a:	8b 08                	mov    ecx,DWORD PTR [rax]
    429c:	48 8b 45 d8          	mov    rax,QWORD PTR [rbp-0x28]
    42a0:	48 8d b8 e0 00 00 00 	lea    rdi,[rax+0xe0]
    42a7:	8b 55 f0             	mov    edx,DWORD PTR [rbp-0x10]
    42aa:	8b 45 ec             	mov    eax,DWORD PTR [rbp-0x14]
    42ad:	89 4d d4             	mov    DWORD PTR [rbp-0x2c],ecx
    42b0:	f3 0f 10 45 d4       	movss  xmm0,DWORD PTR [rbp-0x2c]
    42b5:	89 c6                	mov    esi,eax
    42b7:	e8 00 00 00 00       	call   42bc <_ZN9simulator12centralSpeedEv+0x166>
    42bc:	f3 0f 10 45 e4       	movss  xmm0,DWORD PTR [rbp-0x1c]
    42c1:	f3 0f 5e 45 f4       	divss  xmm0,DWORD PTR [rbp-0xc]
    42c6:	f3 0f 11 45 e8       	movss  DWORD PTR [rbp-0x18],xmm0
    42cb:	48 8d 55 e4          	lea    rdx,[rbp-0x1c]
    42cf:	48 8d 45 e8          	lea    rax,[rbp-0x18]
    42d3:	48 89 d6             	mov    rsi,rdx
    42d6:	48 89 c7             	mov    rdi,rax
    42d9:	e8 00 00 00 00       	call   42de <_ZN9simulator12centralSpeedEv+0x188>
    42de:	8b 08                	mov    ecx,DWORD PTR [rax]
    42e0:	48 8b 45 d8          	mov    rax,QWORD PTR [rbp-0x28]
    42e4:	48 8d b8 b0 00 00 00 	lea    rdi,[rax+0xb0]
    42eb:	8b 55 f0             	mov    edx,DWORD PTR [rbp-0x10]
    42ee:	8b 45 ec             	mov    eax,DWORD PTR [rbp-0x14]
    42f1:	89 4d d4             	mov    DWORD PTR [rbp-0x2c],ecx
    42f4:	f3 0f 10 45 d4       	movss  xmm0,DWORD PTR [rbp-0x2c]
    42f9:	89 c6                	mov    esi,eax
    42fb:	e8 00 00 00 00       	call   4300 <_ZN9simulator12centralSpeedEv+0x1aa>
    4300:	83 45 f0 01          	add    DWORD PTR [rbp-0x10],0x1
    4304:	e9 86 fe ff ff       	jmp    418f <_ZN9simulator12centralSpeedEv+0x39>
    4309:	83 45 ec 01          	add    DWORD PTR [rbp-0x14],0x1
    430d:	e9 66 fe ff ff       	jmp    4178 <_ZN9simulator12centralSpeedEv+0x22>
    4312:	90                   	nop
    4313:	48 8b 45 f8          	mov    rax,QWORD PTR [rbp-0x8]
    4317:	64 48 33 04 25 28 00 	xor    rax,QWORD PTR fs:0x28
    431e:	00 00 
    4320:	74 05                	je     4327 <_ZN9simulator12centralSpeedEv+0x1d1>
    4322:	e8 00 00 00 00       	call   4327 <_ZN9simulator12centralSpeedEv+0x1d1>
    4327:	c9                   	leave  
    4328:	c3                   	ret    

0000000000004329 <_Z8distanceR4mat2S0_>:
    4329:	55                   	push   rbp
    432a:	48 89 e5             	mov    rbp,rsp
    432d:	48 83 ec 30          	sub    rsp,0x30
    4331:	48 89 7d e8          	mov    QWORD PTR [rbp-0x18],rdi
    4335:	48 89 75 e0          	mov    QWORD PTR [rbp-0x20],rsi
    4339:	66 0f ef c0          	pxor   xmm0,xmm0
    433d:	f3 0f 11 45 f4       	movss  DWORD PTR [rbp-0xc],xmm0
    4342:	c7 45 f8 00 00 00 00 	mov    DWORD PTR [rbp-0x8],0x0
    4349:	66 0f ef db          	pxor   xmm3,xmm3
    434d:	f3 0f 2a 5d f8       	cvtsi2ss xmm3,DWORD PTR [rbp-0x8]
    4352:	f3 0f 11 5d dc       	movss  DWORD PTR [rbp-0x24],xmm3
    4357:	48 8b 45 e8          	mov    rax,QWORD PTR [rbp-0x18]
    435b:	48 89 c7             	mov    rdi,rax
    435e:	e8 00 00 00 00       	call   4363 <_Z8distanceR4mat2S0_+0x3a>
    4363:	0f 2e 45 dc          	ucomiss xmm0,DWORD PTR [rbp-0x24]
    4367:	0f 97 c0             	seta   al
    436a:	84 c0                	test   al,al
    436c:	0f 84 97 00 00 00    	je     4409 <_Z8distanceR4mat2S0_+0xe0>
    4372:	c7 45 fc 00 00 00 00 	mov    DWORD PTR [rbp-0x4],0x0
    4379:	66 0f ef e4          	pxor   xmm4,xmm4
    437d:	f3 0f 2a 65 fc       	cvtsi2ss xmm4,DWORD PTR [rbp-0x4]
    4382:	f3 0f 11 65 dc       	movss  DWORD PTR [rbp-0x24],xmm4
    4387:	48 8b 45 e8          	mov    rax,QWORD PTR [rbp-0x18]
    438b:	48 89 c7             	mov    rdi,rax
    438e:	e8 00 00 00 00       	call   4393 <_Z8distanceR4mat2S0_+0x6a>
    4393:	0f 2e 45 dc          	ucomiss xmm0,DWORD PTR [rbp-0x24]
    4397:	0f 97 c0             	seta   al
    439a:	84 c0                	test   al,al
    439c:	74 62                	je     4400 <_Z8distanceR4mat2S0_+0xd7>
    439e:	8b 55 fc             	mov    edx,DWORD PTR [rbp-0x4]
    43a1:	8b 4d f8             	mov    ecx,DWORD PTR [rbp-0x8]
    43a4:	48 8b 45 e0          	mov    rax,QWORD PTR [rbp-0x20]
    43a8:	89 ce                	mov    esi,ecx
    43aa:	48 89 c7             	mov    rdi,rax
    43ad:	e8 00 00 00 00       	call   43b2 <_Z8distanceR4mat2S0_+0x89>
    43b2:	f3 0f 11 45 dc       	movss  DWORD PTR [rbp-0x24],xmm0
    43b7:	8b 55 fc             	mov    edx,DWORD PTR [rbp-0x4]
    43ba:	8b 4d f8             	mov    ecx,DWORD PTR [rbp-0x8]
    43bd:	48 8b 45 e8          	mov    rax,QWORD PTR [rbp-0x18]
    43c1:	89 ce                	mov    esi,ecx
    43c3:	48 89 c7             	mov    rdi,rax
    43c6:	e8 00 00 00 00       	call   43cb <_Z8distanceR4mat2S0_+0xa2>
    43cb:	f3 0f 10 55 dc       	movss  xmm2,DWORD PTR [rbp-0x24]
    43d0:	f3 0f 5c d0          	subss  xmm2,xmm0
    43d4:	0f 28 c2             	movaps xmm0,xmm2
    43d7:	bf 02 00 00 00       	mov    edi,0x2
    43dc:	e8 00 00 00 00       	call   43e1 <_Z8distanceR4mat2S0_+0xb8>
    43e1:	66 0f 28 c8          	movapd xmm1,xmm0
    43e5:	f3 0f 5a 45 f4       	cvtss2sd xmm0,DWORD PTR [rbp-0xc]
    43ea:	f2 0f 58 c1          	addsd  xmm0,xmm1
    43ee:	f2 0f 5a e8          	cvtsd2ss xmm5,xmm0
    43f2:	f3 0f 11 6d f4       	movss  DWORD PTR [rbp-0xc],xmm5
    43f7:	83 45 fc 01          	add    DWORD PTR [rbp-0x4],0x1
    43fb:	e9 79 ff ff ff       	jmp    4379 <_Z8distanceR4mat2S0_+0x50>
    4400:	83 45 f8 01          	add    DWORD PTR [rbp-0x8],0x1
    4404:	e9 40 ff ff ff       	jmp    4349 <_Z8distanceR4mat2S0_+0x20>
    4409:	8b 45 f4             	mov    eax,DWORD PTR [rbp-0xc]
    440c:	89 45 dc             	mov    DWORD PTR [rbp-0x24],eax
    440f:	f3 0f 10 45 dc       	movss  xmm0,DWORD PTR [rbp-0x24]
    4414:	e8 00 00 00 00       	call   4419 <_Z8distanceR4mat2S0_+0xf0>
    4419:	c9                   	leave  
    441a:	c3                   	ret    

000000000000441b <main>:
    441b:	55                   	push   rbp
    441c:	48 89 e5             	mov    rbp,rsp
    441f:	53                   	push   rbx
    4420:	48 81 ec 68 01 00 00 	sub    rsp,0x168
    4427:	64 48 8b 04 25 28 00 	mov    rax,QWORD PTR fs:0x28
    442e:	00 00 
    4430:	48 89 45 e8          	mov    QWORD PTR [rbp-0x18],rax
    4434:	31 c0                	xor    eax,eax
    4436:	48 8d 85 90 fe ff ff 	lea    rax,[rbp-0x170]
    443d:	48 89 c7             	mov    rdi,rax
    4440:	e8 00 00 00 00       	call   4445 <main+0x2a>
    4445:	48 8d 85 90 fe ff ff 	lea    rax,[rbp-0x170]
    444c:	48 89 c7             	mov    rdi,rax
    444f:	e8 00 00 00 00       	call   4454 <main+0x39>
    4454:	48 8d 85 90 fe ff ff 	lea    rax,[rbp-0x170]
    445b:	48 89 c7             	mov    rdi,rax
    445e:	e8 00 00 00 00       	call   4463 <main+0x48>
    4463:	b8 00 00 00 00       	mov    eax,0x0
    4468:	48 8b 55 e8          	mov    rdx,QWORD PTR [rbp-0x18]
    446c:	64 48 33 14 25 28 00 	xor    rdx,QWORD PTR fs:0x28
    4473:	00 00 
    4475:	74 24                	je     449b <main+0x80>
    4477:	eb 1d                	jmp    4496 <main+0x7b>
    4479:	48 89 c3             	mov    rbx,rax
    447c:	48 8d 85 90 fe ff ff 	lea    rax,[rbp-0x170]
    4483:	48 89 c7             	mov    rdi,rax
    4486:	e8 00 00 00 00       	call   448b <main+0x70>
    448b:	48 89 d8             	mov    rax,rbx
    448e:	48 89 c7             	mov    rdi,rax
    4491:	e8 00 00 00 00       	call   4496 <main+0x7b>
    4496:	e8 00 00 00 00       	call   449b <main+0x80>
    449b:	48 81 c4 68 01 00 00 	add    rsp,0x168
    44a2:	5b                   	pop    rbx
    44a3:	5d                   	pop    rbp
    44a4:	c3                   	ret    

00000000000044a5 <_Z41__static_initialization_and_destruction_0ii>:
    44a5:	55                   	push   rbp
    44a6:	48 89 e5             	mov    rbp,rsp
    44a9:	48 83 ec 10          	sub    rsp,0x10
    44ad:	89 7d fc             	mov    DWORD PTR [rbp-0x4],edi
    44b0:	89 75 f8             	mov    DWORD PTR [rbp-0x8],esi
    44b3:	83 7d fc 01          	cmp    DWORD PTR [rbp-0x4],0x1
    44b7:	75 27                	jne    44e0 <_Z41__static_initialization_and_destruction_0ii+0x3b>
    44b9:	81 7d f8 ff ff 00 00 	cmp    DWORD PTR [rbp-0x8],0xffff
    44c0:	75 1e                	jne    44e0 <_Z41__static_initialization_and_destruction_0ii+0x3b>
    44c2:	bf 00 00 00 00       	mov    edi,0x0
    44c7:	e8 00 00 00 00       	call   44cc <_Z41__static_initialization_and_destruction_0ii+0x27>
    44cc:	ba 00 00 00 00       	mov    edx,0x0
    44d1:	be 00 00 00 00       	mov    esi,0x0
    44d6:	bf 00 00 00 00       	mov    edi,0x0
    44db:	e8 00 00 00 00       	call   44e0 <_Z41__static_initialization_and_destruction_0ii+0x3b>
    44e0:	90                   	nop
    44e1:	c9                   	leave  
    44e2:	c3                   	ret    

00000000000044e3 <_GLOBAL__sub_I__ZN4mat2C2Ev>:
    44e3:	55                   	push   rbp
    44e4:	48 89 e5             	mov    rbp,rsp
    44e7:	be ff ff 00 00       	mov    esi,0xffff
    44ec:	bf 01 00 00 00       	mov    edi,0x1
    44f1:	e8 af ff ff ff       	call   44a5 <_Z41__static_initialization_and_destruction_0ii>
    44f6:	5d                   	pop    rbp
    44f7:	c3                   	ret    

Desensamblado de la sección .bss:

0000000000000000 <_ZStL8__ioinit>:
	...

Desensamblado de la sección .rodata:

0000000000000000 <_ZStL19piecewise_construct>:
   0:	00 25 64 00 25 66    	add    BYTE PTR [rip+0x66250064],ah        # 6625006a <_GLOBAL__sub_I__ZN4mat2C2Ev+0x6624bb87>
   6:	00 20                	add    BYTE PTR [rax],ah
   8:	00 72 65             	add    BYTE PTR [rdx+0x65],dh
   b:	61                   	(bad)  
   c:	64 00 77 72          	add    BYTE PTR fs:[rdi+0x72],dh
  10:	69 74 65 00 77 72 69 	imul   esi,DWORD PTR [rbp+riz*2+0x0],0x74697277
  17:	74 
  18:	65 5f                	gs pop rdi
  1a:	61                   	(bad)  
  1b:	70 70                	jo     8d <_ZStL19piecewise_construct+0x8d>
  1d:	65 6e                	outs   dx,BYTE PTR gs:[rsi]
  1f:	64 69 6e 67 00 00 00 	imul   ebp,DWORD PTR fs:[rsi+0x67],0x0
  26:	00 
  27:	00 45 72             	add    BYTE PTR [rbp+0x72],al
  2a:	72 6f                	jb     9b <_ZStL19piecewise_construct+0x9b>
  2c:	72 3a                	jb     68 <_ZStL19piecewise_construct+0x68>
  2e:	20 76 61             	and    BYTE PTR [rsi+0x61],dh
  31:	6c                   	ins    BYTE PTR es:[rdi],dx
  32:	69 64 20 69 6f 20 74 	imul   esp,DWORD PTR [rax+riz*1+0x69],0x7974206f
  39:	79 
  3a:	70 65                	jo     a1 <_ZStL19piecewise_construct+0xa1>
  3c:	73 20                	jae    5e <_ZStL19piecewise_construct+0x5e>
  3e:	61                   	(bad)  
  3f:	72 65                	jb     a6 <_ZStL19piecewise_construct+0xa6>
  41:	20 72 65             	and    BYTE PTR [rdx+0x65],dh
  44:	61                   	(bad)  
  45:	64 2c 20             	fs sub al,0x20
  48:	77 72                	ja     bc <_ZStL19piecewise_construct+0xbc>
  4a:	69 74 65 20 61 6e 64 	imul   esi,DWORD PTR [rbp+riz*2+0x20],0x20646e61
  51:	20 
  52:	72 65                	jb     b9 <_ZStL19piecewise_construct+0xb9>
  54:	61                   	(bad)  
  55:	64 5f                	fs pop rdi
  57:	77 72                	ja     cb <_ZStL19piecewise_construct+0xcb>
  59:	69 74 65 5f 61 70 70 	imul   esi,DWORD PTR [rbp+riz*2+0x5f],0x65707061
  60:	65 
  61:	6e                   	outs   dx,BYTE PTR ds:[rsi]
  62:	64 69 6e 67 00 00 45 	imul   ebp,DWORD PTR fs:[rsi+0x67],0x72450000
  69:	72 
  6a:	72 6f                	jb     db <_ZStL19piecewise_construct+0xdb>
  6c:	72 3a                	jb     a8 <_ZStL19piecewise_construct+0xa8>
  6e:	20 54 72 79          	and    BYTE PTR [rdx+rsi*2+0x79],dl
  72:	69 6e 67 20 74 6f 20 	imul   ebp,DWORD PTR [rsi+0x67],0x206f7420
  79:	77 72                	ja     ed <_ZStL19piecewise_construct+0xed>
  7b:	69 74 65 20 74 6f 20 	imul   esi,DWORD PTR [rbp+riz*2+0x20],0x72206f74
  82:	72 
  83:	65 61                	gs (bad) 
  85:	64 20 6f 6e          	and    BYTE PTR fs:[rdi+0x6e],ch
  89:	6c                   	ins    BYTE PTR es:[rdi],dx
  8a:	79 20                	jns    ac <_ZStL19piecewise_construct+0xac>
  8c:	69 6f 00 0a 00 00 00 	imul   ebp,DWORD PTR [rdi+0x0],0xa
  93:	00 00                	add    BYTE PTR [rax],al
  95:	00 00                	add    BYTE PTR [rax],al
  97:	00 57 61             	add    BYTE PTR [rdi+0x61],dl
  9a:	72 6e                	jb     10a <_ZStL19piecewise_construct+0x10a>
  9c:	69 6e 67 3a 20 54 72 	imul   ebp,DWORD PTR [rsi+0x67],0x7254203a
  a3:	79 69                	jns    10e <_ZStL19piecewise_construct+0x10e>
  a5:	6e                   	outs   dx,BYTE PTR ds:[rsi]
  a6:	67 20 74 6f 20       	and    BYTE PTR [edi+ebp*2+0x20],dh
  ab:	73 65                	jae    112 <_ZStL19piecewise_construct+0x112>
  ad:	74 20                	je     cf <_ZStL19piecewise_construct+0xcf>
  af:	77 72                	ja     123 <_ZStL19piecewise_construct+0x123>
  b1:	69 74 65 20 6f 6e 6c 	imul   esi,DWORD PTR [rbp+riz*2+0x20],0x796c6e6f
  b8:	79 
  b9:	20 66 69             	and    BYTE PTR [rsi+0x69],ah
  bc:	6c                   	ins    BYTE PTR es:[rdi],dx
  bd:	65 20 61 73          	and    BYTE PTR gs:[rcx+0x73],ah
  c1:	20 72 65             	and    BYTE PTR [rdx+0x65],dh
  c4:	61                   	(bad)  
  c5:	64 20 6f 6e          	and    BYTE PTR fs:[rdi+0x6e],ch
  c9:	6c                   	ins    BYTE PTR es:[rdi],dx
  ca:	74 79                	je     145 <_ZStL19piecewise_construct+0x145>
  cc:	2e 00 70 61          	add    BYTE PTR cs:[rax+0x61],dh
  d0:	72 61                	jb     133 <_ZStL19piecewise_construct+0x133>
  d2:	6d                   	ins    DWORD PTR es:[rdi],dx
  d3:	65 74 65             	gs je  13b <_ZStL19piecewise_construct+0x13b>
  d6:	72 73                	jb     14b <_ZStL19piecewise_construct+0x14b>
  d8:	2e 74 78             	cs je  153 <_ZStL19piecewise_construct+0x153>
  db:	74 00                	je     dd <_ZStL19piecewise_construct+0xdd>
  dd:	78 4d                	js     12c <_ZStL19piecewise_construct+0x12c>
  df:	61                   	(bad)  
  e0:	78 00                	js     e2 <_ZStL19piecewise_construct+0xe2>
  e2:	79 4d                	jns    131 <_ZStL19piecewise_construct+0x131>
  e4:	61                   	(bad)  
  e5:	78 00                	js     e7 <_ZStL19piecewise_construct+0xe7>
  e7:	74 4d                	je     136 <_ZStL19piecewise_construct+0x136>
  e9:	61                   	(bad)  
  ea:	78 00                	js     ec <_ZStL19piecewise_construct+0xec>
  ec:	6e                   	outs   dx,BYTE PTR ds:[rsi]
  ed:	75 00                	jne    ef <_ZStL19piecewise_construct+0xef>
  ef:	72 68                	jb     159 <_ZStL19piecewise_construct+0x159>
  f1:	6f                   	outs   dx,DWORD PTR ds:[rsi]
  f2:	00 64 78 00          	add    BYTE PTR [rax+rdi*2+0x0],ah
  f6:	64 79 00             	fs jns f9 <_ZStL19piecewise_construct+0xf9>
  f9:	64 74 00             	fs je  fc <_ZStL19piecewise_construct+0xfc>
  fc:	61                   	(bad)  
  fd:	6c                   	ins    BYTE PTR es:[rdi],dx
  fe:	00 70 72             	add    BYTE PTR [rax+0x72],dh
 101:	69 6e 74 50 65 72 63 	imul   ebp,DWORD PTR [rsi+0x74],0x63726550
 108:	65 6e                	outs   dx,BYTE PTR gs:[rsi]
 10a:	74 61                	je     16d <_ZStL19piecewise_construct+0x16d>
 10c:	67 65 53             	addr32 gs push rbx
 10f:	74 65                	je     176 <_ZStL19piecewise_construct+0x176>
 111:	70 73                	jo     186 <_ZStL19piecewise_construct+0x186>
 113:	00 70 72             	add    BYTE PTR [rax+0x72],dh
 116:	69 6e 74 50 65 72 63 	imul   ebp,DWORD PTR [rsi+0x74],0x63726550
 11d:	65 6e                	outs   dx,BYTE PTR gs:[rsi]
 11f:	74 61                	je     182 <_ZStL19piecewise_construct+0x182>
 121:	67 65 00 70 65       	add    BYTE PTR gs:[eax+0x65],dh
 126:	72 63                	jb     18b <_ZStL19piecewise_construct+0x18b>
 128:	65 6e                	outs   dx,BYTE PTR gs:[rsi]
 12a:	74 61                	je     18d <_ZStL19piecewise_construct+0x18d>
 12c:	67 65 53             	addr32 gs push rbx
 12f:	74 6f                	je     1a0 <_ZStL19piecewise_construct+0x1a0>
 131:	70 00                	jo     133 <_ZStL19piecewise_construct+0x133>
 133:	25 20 0a 00 23       	and    eax,0x23000a20
 138:	20 76 74             	and    BYTE PTR [rsi+0x74],dh
 13b:	6b 20 44             	imul   esp,DWORD PTR [rax],0x44
 13e:	61                   	(bad)  
 13f:	74 61                	je     1a2 <_ZStL19piecewise_construct+0x1a2>
 141:	46 69 6c 65 20 56 65 	imul   r13d,DWORD PTR [rbp+r12*2+0x20],0x73726556
 148:	72 73 
 14a:	69 6f 6e 20 32 2e 30 	imul   ebp,DWORD PTR [rdi+0x6e],0x302e3220
 151:	00 43 6f             	add    BYTE PTR [rbx+0x6f],al
 154:	6d                   	ins    DWORD PTR es:[rdi],dx
 155:	6d                   	ins    DWORD PTR es:[rdi],dx
 156:	65 6e                	outs   dx,BYTE PTR gs:[rsi]
 158:	74 20                	je     17a <_ZStL19piecewise_construct+0x17a>
 15a:	67 6f                	outs   dx,DWORD PTR ds:[esi]
 15c:	65 73 20             	gs jae 17f <_ZStL19piecewise_construct+0x17f>
 15f:	68 65 72 65 00       	push   0x657265
 164:	41 53                	push   r11
 166:	43                   	rex.XB
 167:	49                   	rex.WB
 168:	49 00 44 41 54       	rex.WB add BYTE PTR [r9+rax*2+0x54],al
 16d:	41 53                	push   r11
 16f:	45 54                	rex.RB push r12
 171:	20 53 54             	and    BYTE PTR [rbx+0x54],dl
 174:	52                   	push   rdx
 175:	55                   	push   rbp
 176:	43 54                	rex.XB push r12
 178:	55                   	push   rbp
 179:	52                   	push   rdx
 17a:	45                   	rex.RB
 17b:	44 5f                	rex.R pop rdi
 17d:	50                   	push   rax
 17e:	4f                   	rex.WRXB
 17f:	49                   	rex.WB
 180:	4e 54                	rex.WRX push rsp
 182:	53                   	push   rbx
 183:	00 44 49 4d          	add    BYTE PTR [rcx+rcx*2+0x4d],al
 187:	45                   	rex.RB
 188:	4e 53                	rex.WRX push rbx
 18a:	49                   	rex.WB
 18b:	4f                   	rex.WRXB
 18c:	4e 53                	rex.WRX push rbx
 18e:	20 00                	and    BYTE PTR [rax],al
 190:	20 31                	and    BYTE PTR [rcx],dh
 192:	00 4f 52             	add    BYTE PTR [rdi+0x52],cl
 195:	49                   	rex.WB
 196:	47                   	rex.RXB
 197:	49                   	rex.WB
 198:	4e 20 30             	rex.WRX and BYTE PTR [rax],r14b
 19b:	20 30                	and    BYTE PTR [rax],dh
 19d:	20 30                	and    BYTE PTR [rax],dh
 19f:	00 53 50             	add    BYTE PTR [rbx+0x50],dl
 1a2:	41                   	rex.B
 1a3:	43                   	rex.XB
 1a4:	49                   	rex.WB
 1a5:	4e                   	rex.WRX
 1a6:	47 20 00             	rex.RXB and BYTE PTR [r8],r8b
 1a9:	50                   	push   rax
 1aa:	4f                   	rex.WRXB
 1ab:	49                   	rex.WB
 1ac:	4e 54                	rex.WRX push rsp
 1ae:	5f                   	pop    rdi
 1af:	44                   	rex.R
 1b0:	41 54                	push   r12
 1b2:	41 20 00             	and    BYTE PTR [r8],al
 1b5:	00 00                	add    BYTE PTR [rax],al
 1b7:	00 53 43             	add    BYTE PTR [rbx+0x43],dl
 1ba:	41                   	rex.B
 1bb:	4c                   	rex.WR
 1bc:	41 52                	push   r10
 1be:	53                   	push   rbx
 1bf:	20 76 6f             	and    BYTE PTR [rsi+0x6f],dh
 1c2:	6c                   	ins    BYTE PTR es:[rdi],dx
 1c3:	75 6d                	jne    232 <_ZStL19piecewise_construct+0x232>
 1c5:	65 5f                	gs pop rdi
 1c7:	73 63                	jae    22c <_ZStL19piecewise_construct+0x22c>
 1c9:	61                   	(bad)  
 1ca:	6c                   	ins    BYTE PTR es:[rdi],dx
 1cb:	61                   	(bad)  
 1cc:	72 73                	jb     241 <_ZStL19piecewise_construct+0x241>
 1ce:	20 66 6c             	and    BYTE PTR [rsi+0x6c],ah
 1d1:	6f                   	outs   dx,DWORD PTR ds:[rsi]
 1d2:	61                   	(bad)  
 1d3:	74 20                	je     1f5 <_ZStL19piecewise_construct+0x1f5>
 1d5:	31 00                	xor    DWORD PTR [rax],eax
 1d7:	4c                   	rex.WR
 1d8:	4f                   	rex.WRXB
 1d9:	4f                   	rex.WRXB
 1da:	4b 55                	rex.WXB push r13
 1dc:	50                   	push   rax
 1dd:	5f                   	pop    rdi
 1de:	54                   	push   rsp
 1df:	41                   	rex.B
 1e0:	42                   	rex.X
 1e1:	4c                   	rex.WR
 1e2:	45 20 64 65 66       	and    BYTE PTR [r13+riz*2+0x66],r12b
 1e7:	61                   	(bad)  
 1e8:	75 6c                	jne    256 <_ZStL19piecewise_construct+0x256>
 1ea:	74 00                	je     1ec <_ZStL19piecewise_construct+0x1ec>
 1ec:	2e 2f                	cs (bad) 
 1ee:	6f                   	outs   dx,DWORD PTR ds:[rsi]
 1ef:	75 74                	jne    265 <_ZStL19piecewise_construct+0x265>
 1f1:	2f                   	(bad)  
 1f2:	6e                   	outs   dx,BYTE PTR ds:[rsi]
 1f3:	6f                   	outs   dx,DWORD PTR ds:[rsi]
 1f4:	72 6d                	jb     263 <_ZStL19piecewise_construct+0x263>
 1f6:	5f                   	pop    rdi
 1f7:	00 2e                	add    BYTE PTR [rsi],ch
 1f9:	76 74                	jbe    26f <_ZStL19piecewise_construct+0x26f>
 1fb:	6b 00 2e             	imul   eax,DWORD PTR [rax],0x2e
 1fe:	2f                   	(bad)  
 1ff:	6f                   	outs   dx,DWORD PTR ds:[rsi]
 200:	75 74                	jne    276 <_ZStL19piecewise_construct+0x276>
 202:	2f                   	(bad)  
 203:	55                   	push   rbp
 204:	5f                   	pop    rdi
 205:	00 2e                	add    BYTE PTR [rsi],ch
 207:	2f                   	(bad)  
 208:	6f                   	outs   dx,DWORD PTR ds:[rsi]
 209:	75 74                	jne    27f <_ZN4mat23addEiif+0xd>
 20b:	2f                   	(bad)  
 20c:	56                   	push   rsi
 20d:	5f                   	pop    rdi
 20e:	00 2e                	add    BYTE PTR [rsi],ch
 210:	2f                   	(bad)  
 211:	6f                   	outs   dx,DWORD PTR ds:[rsi]
 212:	75 74                	jne    288 <_ZN4mat23addEiif+0x16>
 214:	2f                   	(bad)  
 215:	50                   	push   rax
 216:	5f                   	pop    rdi
 217:	00 62 61             	add    BYTE PTR [rdx+0x61],ah
 21a:	73 69                	jae    285 <_ZN4mat23addEiif+0x13>
 21c:	63 5f 73             	movsxd ebx,DWORD PTR [rdi+0x73]
 21f:	74 72                	je     293 <_ZN4mat23addEiif+0x21>
 221:	69 6e 67 3a 3a 5f 4d 	imul   ebp,DWORD PTR [rsi+0x67],0x4d5f3a3a
 228:	5f                   	pop    rdi
 229:	63 6f 6e             	movsxd ebp,DWORD PTR [rdi+0x6e]
 22c:	73 74                	jae    2a2 <_ZN4mat23addEiif+0x30>
 22e:	72 75                	jb     2a5 <_ZN4mat23addEiif+0x33>
 230:	63 74 20 6e          	movsxd esi,DWORD PTR [rax+riz*1+0x6e]
 234:	75 6c                	jne    2a2 <_ZN4mat23addEiif+0x30>
 236:	6c                   	ins    BYTE PTR es:[rdi],dx
 237:	20 6e 6f             	and    BYTE PTR [rsi+0x6f],ch
 23a:	74 20                	je     25c <_ZStL19piecewise_construct+0x25c>
 23c:	76 61                	jbe    29f <_ZN4mat23addEiif+0x2d>
 23e:	6c                   	ins    BYTE PTR es:[rdi],dx
 23f:	69 64 00 00 00 00 00 	imul   esp,DWORD PTR [rax+rax*1+0x0],0x0
 246:	00 
	...
 24f:	40 00 00             	add    BYTE PTR [rax],al
 252:	00 00                	add    BYTE PTR [rax],al
 254:	00 00                	add    BYTE PTR [rax],al
 256:	10 40 00             	adc    BYTE PTR [rax+0x0],al
 259:	00 80 3f 00 00 00    	add    BYTE PTR [rax+0x3f],al
 25f:	00 7b 14             	add    BYTE PTR [rbx+0x14],bh
 262:	ae                   	scas   al,BYTE PTR es:[rdi]
 263:	47 e1 7a             	rex.RXB loope 2e0 <_ZN4mat22atEii+0x6>
 266:	84 3f                	test   BYTE PTR [rdi],bh
 268:	0a d7                	or     dl,bh
 26a:	23 3c 00             	and    edi,DWORD PTR [rax+rax*1]
 26d:	00 c8                	add    al,cl
 26f:	42 00 00             	rex.X add BYTE PTR [rax],al
 272:	00 00                	add    BYTE PTR [rax],al
 274:	00 00                	add    BYTE PTR [rax],al
 276:	f0 3f                	lock (bad) 
 278:	00 00                	add    BYTE PTR [rax],al
 27a:	20                   	.byte 0x20
 27b:	40                   	rex

Desensamblado de la sección .text._ZNSt7__cxx119to_stringEi:

0000000000000000 <_ZNSt7__cxx119to_stringEi>:
   0:	55                   	push   rbp
   1:	48 89 e5             	mov    rbp,rsp
   4:	48 83 ec 20          	sub    rsp,0x20
   8:	48 89 7d e8          	mov    QWORD PTR [rbp-0x18],rdi
   c:	89 75 e4             	mov    DWORD PTR [rbp-0x1c],esi
   f:	64 48 8b 04 25 28 00 	mov    rax,QWORD PTR fs:0x28
  16:	00 00 
  18:	48 89 45 f8          	mov    QWORD PTR [rbp-0x8],rax
  1c:	31 c0                	xor    eax,eax
  1e:	be 10 00 00 00       	mov    esi,0x10
  23:	48 8b 45 e8          	mov    rax,QWORD PTR [rbp-0x18]
  27:	8b 55 e4             	mov    edx,DWORD PTR [rbp-0x1c]
  2a:	41 89 d0             	mov    r8d,edx
  2d:	b9 00 00 00 00       	mov    ecx,0x0
  32:	48 89 f2             	mov    rdx,rsi
  35:	be 00 00 00 00       	mov    esi,0x0
  3a:	48 89 c7             	mov    rdi,rax
  3d:	b8 00 00 00 00       	mov    eax,0x0
  42:	e8 00 00 00 00       	call   47 <_ZNSt7__cxx119to_stringEi+0x47>
  47:	48 8b 45 e8          	mov    rax,QWORD PTR [rbp-0x18]
  4b:	48 8b 4d f8          	mov    rcx,QWORD PTR [rbp-0x8]
  4f:	64 48 33 0c 25 28 00 	xor    rcx,QWORD PTR fs:0x28
  56:	00 00 
  58:	74 05                	je     5f <_ZNSt7__cxx119to_stringEi+0x5f>
  5a:	e8 00 00 00 00       	call   5f <_ZNSt7__cxx119to_stringEi+0x5f>
  5f:	c9                   	leave  
  60:	c3                   	ret    

Desensamblado de la sección .text._ZNSt7__cxx119to_stringEf:

0000000000000000 <_ZNSt7__cxx119to_stringEf>:
   0:	55                   	push   rbp
   1:	48 89 e5             	mov    rbp,rsp
   4:	48 83 ec 20          	sub    rsp,0x20
   8:	48 89 7d e8          	mov    QWORD PTR [rbp-0x18],rdi
   c:	f3 0f 11 45 e4       	movss  DWORD PTR [rbp-0x1c],xmm0
  11:	64 48 8b 04 25 28 00 	mov    rax,QWORD PTR fs:0x28
  18:	00 00 
  1a:	48 89 45 f8          	mov    QWORD PTR [rbp-0x8],rax
  1e:	31 c0                	xor    eax,eax
  20:	c7 45 f4 3a 00 00 00 	mov    DWORD PTR [rbp-0xc],0x3a
  27:	f3 0f 5a 45 e4       	cvtss2sd xmm0,DWORD PTR [rbp-0x1c]
  2c:	48 8b 45 e8          	mov    rax,QWORD PTR [rbp-0x18]
  30:	b9 00 00 00 00       	mov    ecx,0x0
  35:	ba 3a 00 00 00       	mov    edx,0x3a
  3a:	be 00 00 00 00       	mov    esi,0x0
  3f:	48 89 c7             	mov    rdi,rax
  42:	b8 01 00 00 00       	mov    eax,0x1
  47:	e8 00 00 00 00       	call   4c <_ZNSt7__cxx119to_stringEf+0x4c>
  4c:	48 8b 45 e8          	mov    rax,QWORD PTR [rbp-0x18]
  50:	48 8b 55 f8          	mov    rdx,QWORD PTR [rbp-0x8]
  54:	64 48 33 14 25 28 00 	xor    rdx,QWORD PTR fs:0x28
  5b:	00 00 
  5d:	74 05                	je     64 <_ZNSt7__cxx119to_stringEf+0x64>
  5f:	e8 00 00 00 00       	call   64 <_ZNSt7__cxx119to_stringEf+0x64>
  64:	c9                   	leave  
  65:	c3                   	ret    

Desensamblado de la sección .text._ZStorSt13_Ios_OpenmodeS_:

0000000000000000 <_ZStorSt13_Ios_OpenmodeS_>:
   0:	55                   	push   rbp
   1:	48 89 e5             	mov    rbp,rsp
   4:	89 7d fc             	mov    DWORD PTR [rbp-0x4],edi
   7:	89 75 f8             	mov    DWORD PTR [rbp-0x8],esi
   a:	8b 45 fc             	mov    eax,DWORD PTR [rbp-0x4]
   d:	0b 45 f8             	or     eax,DWORD PTR [rbp-0x8]
  10:	5d                   	pop    rbp
  11:	c3                   	ret    

Desensamblado de la sección .gcc_except_table:

0000000000000000 <.gcc_except_table>:
   0:	ff                   	(bad)  
   1:	ff 01                	inc    DWORD PTR [rcx]
   3:	15 3c 05 98 03       	adc    eax,0x398053c
   8:	00 4e 05             	add    BYTE PTR [rsi+0x5],cl
   b:	83 03 00             	add    DWORD PTR [rbx],0x0
   e:	61                   	(bad)  
   f:	89 02                	mov    DWORD PTR [rdx],eax
  11:	ec                   	in     al,dx
  12:	02 00                	add    al,BYTE PTR [rax]
  14:	bd 03 05 00 00       	mov    ebp,0x503
  19:	ff                   	(bad)  
  1a:	ff 01                	inc    DWORD PTR [rcx]
  1c:	00 ff                	add    bh,bh
  1e:	ff 01                	inc    DWORD PTR [rcx]
  20:	18 81 02 05 fc 07    	sbb    BYTE PTR [rcx+0x7fc0502],al
  26:	00 94 02 05 eb 07 00 	add    BYTE PTR [rdx+rax*1+0x7eb05],dl
  2d:	bc 04 c9 02 8d       	mov    esp,0x8d02c904
  32:	08 00                	or     BYTE PTR [rax],al
  34:	b8 09 05 00 00       	mov    eax,0x509
  39:	ff                   	(bad)  
  3a:	ff 01                	inc    DWORD PTR [rcx]
  3c:	1c 4e                	sbb    al,0x4e
  3e:	05 da 07 00 67       	add    eax,0x670007da
  43:	05 c6 07 00 87       	add    eax,0x870007c6
  48:	01 05 b2 07 00 dc    	add    DWORD PTR [rip+0xffffffffdc0007b2],eax        # ffffffffdc000800 <_GLOBAL__sub_I__ZN4mat2C2Ev+0xffffffffdbffc31d>
  4e:	01 a6 05 f7 07 00    	add    DWORD PTR [rsi+0x7f705],esp
  54:	f2 07                	repnz (bad) 
  56:	31 00                	xor    DWORD PTR [rax],eax
  58:	00 ff                	add    bh,bh
  5a:	ff 01                	inc    DWORD PTR [rcx]
  5c:	8c 02                	mov    WORD PTR [rdx],es
  5e:	55                   	push   rbp
  5f:	05 93 10 00 6e       	add    eax,0x6e001093
  64:	05 ff 0f 00 8e       	add    eax,0x8e000fff
  69:	01 05 eb 0f 00 e5    	add    DWORD PTR [rip+0xffffffffe5000feb],eax        # ffffffffe500105a <_GLOBAL__sub_I__ZN4mat2C2Ev+0xffffffffe4ffcb77>
  6f:	01 05 c4 10 00 fe    	add    DWORD PTR [rip+0xfffffffffe0010c4],eax        # fffffffffe001139 <_GLOBAL__sub_I__ZN4mat2C2Ev+0xfffffffffdffcc56>
  75:	01 05 b0 10 00 ab    	add    DWORD PTR [rip+0xffffffffab0010b0],eax        # ffffffffab00112b <_GLOBAL__sub_I__ZN4mat2C2Ev+0xffffffffaaffcc48>
  7b:	02 05 9d 15 00 d5    	add    al,BYTE PTR [rip+0xffffffffd500159d]        # ffffffffd500161e <_GLOBAL__sub_I__ZN4mat2C2Ev+0xffffffffd4ffd13b>
  81:	02 05 ef 10 00 ee    	add    al,BYTE PTR [rip+0xffffffffee0010ef]        # ffffffffee001176 <_GLOBAL__sub_I__ZN4mat2C2Ev+0xffffffffedffcc93>
  87:	02 05 db 10 00 9b    	add    al,BYTE PTR [rip+0xffffffff9b0010db]        # ffffffff9b001168 <_GLOBAL__sub_I__ZN4mat2C2Ev+0xffffffff9affcc85>
  8d:	03 05 9d 15 00 c5    	add    eax,DWORD PTR [rip+0xffffffffc500159d]        # ffffffffc5001630 <_GLOBAL__sub_I__ZN4mat2C2Ev+0xffffffffc4ffd14d>
  93:	03 05 9a 11 00 de    	add    eax,DWORD PTR [rip+0xffffffffde00119a]        # ffffffffde001233 <_GLOBAL__sub_I__ZN4mat2C2Ev+0xffffffffddffcd50>
  99:	03 05 86 11 00 8b    	add    eax,DWORD PTR [rip+0xffffffff8b001186]        # ffffffff8b001225 <_GLOBAL__sub_I__ZN4mat2C2Ev+0xffffffff8affcd42>
  9f:	04 05                	add    al,0x5
  a1:	9d                   	popf   
  a2:	15 00 b5 04 05       	adc    eax,0x504b500
  a7:	c5 11 00             	(bad)  
  aa:	ce                   	(bad)  
  ab:	04 05                	add    al,0x5
  ad:	b1 11                	mov    cl,0x11
  af:	00 fb                	add    bl,bh
  b1:	04 20                	add    al,0x20
  b3:	9d                   	popf   
  b4:	15 00 b1 05 05       	adc    eax,0x505b100
  b9:	c0 12 00             	rcl    BYTE PTR [rdx],0x0
  bc:	cc                   	int3   
  bd:	05 05 ac 12 00       	add    eax,0x12ac05
  c2:	ea                   	(bad)  
  c3:	05 05 98 12 00       	add    eax,0x129805
  c8:	8a 06                	mov    al,BYTE PTR [rsi]
  ca:	05 84 12 00 a8       	add    eax,0xa8001284
  cf:	06                   	(bad)  
  d0:	05 f0 11 00 c1       	add    eax,0xc10011f0
  d5:	06                   	(bad)  
  d6:	05 dc 11 00 aa       	add    eax,0xaa0011dc
  db:	07                   	(bad)  
  dc:	05 9d 15 00 d4       	add    eax,0xd400159d
  e1:	07                   	(bad)  
  e2:	05 eb 12 00 ed       	add    eax,0xed0012eb
  e7:	07                   	(bad)  
  e8:	05 d7 12 00 9a       	add    eax,0x9a0012d7
  ed:	08 2c 9d 15 00 e8 08 	or     BYTE PTR [rbx*4+0x8e80015],ch
  f4:	05 e6 13 00 83       	add    eax,0x830013e6
  f9:	09 05 d2 13 00 a1    	or     DWORD PTR [rip+0xffffffffa10013d2],eax        # ffffffffa10014d1 <_GLOBAL__sub_I__ZN4mat2C2Ev+0xffffffffa0ffcfee>
  ff:	09 05 be 13 00 c1    	or     DWORD PTR [rip+0xffffffffc10013be],eax        # ffffffffc10014c3 <_GLOBAL__sub_I__ZN4mat2C2Ev+0xffffffffc0ffcfe0>
 105:	09 05 aa 13 00 df    	or     DWORD PTR [rip+0xffffffffdf0013aa],eax        # ffffffffdf0014b5 <_GLOBAL__sub_I__ZN4mat2C2Ev+0xffffffffdeffcfd2>
 10b:	09 05 96 13 00 f8    	or     DWORD PTR [rip+0xfffffffff8001396],eax        # fffffffff80014a7 <_GLOBAL__sub_I__ZN4mat2C2Ev+0xfffffffff7ffcfc4>
 111:	09 05 82 13 00 e1    	or     DWORD PTR [rip+0xffffffffe1001382],eax        # ffffffffe1001499 <_GLOBAL__sub_I__ZN4mat2C2Ev+0xffffffffe0ffcfb6>
 117:	0a 2d 9d 15 00 a4    	or     ch,BYTE PTR [rip+0xffffffffa400159d]        # ffffffffa40016ba <_GLOBAL__sub_I__ZN4mat2C2Ev+0xffffffffa3ffd1d7>
 11d:	0b 05 91 14 00 bd    	or     eax,DWORD PTR [rip+0xffffffffbd001491]        # ffffffffbd0015b4 <_GLOBAL__sub_I__ZN4mat2C2Ev+0xffffffffbcffd0d1>
 123:	0b 05 fd 13 00 ea    	or     eax,DWORD PTR [rip+0xffffffffea0013fd]        # ffffffffea001526 <_GLOBAL__sub_I__ZN4mat2C2Ev+0xffffffffe9ffd043>
 129:	0b 05 9d 15 00 94    	or     eax,DWORD PTR [rip+0xffffffff9400159d]        # ffffffff940016cc <_GLOBAL__sub_I__ZN4mat2C2Ev+0xffffffff93ffd1e9>
 12f:	0c 05                	or     al,0x5
 131:	b9 14 00 ad 0c       	mov    ecx,0xcad0014
 136:	05 a5 14 00 da       	add    eax,0xda0014a5
 13b:	0c 05                	or     al,0x5
 13d:	9d                   	popf   
 13e:	15 00 84 0d 05       	adc    eax,0x50d8400
 143:	e1 14                	loope  159 <.gcc_except_table+0x159>
 145:	00 9d 0d 05 cd 14    	add    BYTE PTR [rbp+0x14cd050d],bl
 14b:	00 ca                	add    dl,cl
 14d:	0d 71 9d 15 00       	or     eax,0x159d71
 152:	e0 0e                	loopne 162 <.gcc_except_table+0x162>
 154:	05 89 15 00 f9       	add    eax,0xf9001589
 159:	0e                   	(bad)  
 15a:	05 f5 14 00 be       	add    eax,0xbe0014f5
 15f:	0f 05                	syscall 
 161:	9d                   	popf   
 162:	15 00 ab 10 8f       	adc    eax,0x8f10ab00
 167:	05 00 00 ff ff       	add    eax,0xffff0000
 16c:	01 4f 31             	add    DWORD PTR [rdi+0x31],ecx
 16f:	05 00 00 45 05       	add    eax,0x5450000
 174:	bf 0a 00 59 05       	mov    edi,0x559000a
 179:	ab                   	stos   DWORD PTR es:[rdi],eax
 17a:	0a 00                	or     al,BYTE PTR [rax]
 17c:	6d                   	ins    DWORD PTR es:[rdi],dx
 17d:	05 97 0a 00 8b       	add    eax,0x8b000a97
 182:	01 80 02 83 0a 00    	add    DWORD PTR [rax+0xa8302],eax
 188:	9a                   	(bad)  
 189:	06                   	(bad)  
 18a:	05 ef 09 00 c1       	add    eax,0xc10009ef
 18f:	06                   	(bad)  
 190:	05 9f 09 00 e9       	add    eax,0xe900099f
 195:	06                   	(bad)  
 196:	05 ef 09 00 90       	add    eax,0x900009ef
 19b:	07                   	(bad)  
 19c:	05 b3 09 00 b8       	add    eax,0xb80009b3
 1a1:	07                   	(bad)  
 1a2:	05 ef 09 00 df       	add    eax,0xdf0009ef
 1a7:	07                   	(bad)  
 1a8:	05 c7 09 00 87       	add    eax,0x870009c7
 1ad:	08 05 ef 09 00 a7    	or     BYTE PTR [rip+0xffffffffa70009ef],al        # ffffffffa7000ba2 <_GLOBAL__sub_I__ZN4mat2C2Ev+0xffffffffa6ffc6bf>
 1b3:	08 05 db 09 00 d7    	or     BYTE PTR [rip+0xffffffffd70009db],al        # ffffffffd7000b94 <_GLOBAL__sub_I__ZN4mat2C2Ev+0xffffffffd6ffc6b1>
 1b9:	0a 05 00 00 ff ff    	or     al,BYTE PTR [rip+0xffffffffffff0000]        # ffffffffffff01bf <_GLOBAL__sub_I__ZN4mat2C2Ev+0xfffffffffffebcdc>
 1bf:	01 0c 25 05 00 00 34 	add    DWORD PTR ds:0x34000005,ecx
 1c6:	05 5e 00 76 05       	add    eax,0x576005e
 1cb:	00 00                	add    BYTE PTR [rax],al
 1cd:	ff                   	(bad)  
 1ce:	ff 01                	inc    DWORD PTR [rcx]
 1d0:	10 80 02 02 00 00    	adc    BYTE PTR [rax+0x202],al
 1d6:	c9                   	leave  
 1d7:	02 05 f8 02 00 90    	add    al,BYTE PTR [rip+0xffffffff900002f8]        # ffffffff900004d5 <_GLOBAL__sub_I__ZN4mat2C2Ev+0xffffffff8fffbff2>
 1dd:	03 05 00 00 ff ff    	add    eax,DWORD PTR [rip+0xffffffffffff0000]        # ffffffffffff01e3 <_GLOBAL__sub_I__ZN4mat2C2Ev+0xfffffffffffebd00>
 1e3:	01 0c 20             	add    DWORD PTR [rax+riz*1],ecx
 1e6:	1b 00                	sbb    eax,DWORD PTR [rax]
 1e8:	00 4d 05             	add    BYTE PTR [rbp+0x5],cl
 1eb:	54                   	push   rsp
 1ec:	00 69 05             	add    BYTE PTR [rcx+0x5],ch
 1ef:	00 00                	add    BYTE PTR [rax],al
 1f1:	00 00                	add    BYTE PTR [rax],al
 1f3:	00 ff                	add    bh,bh
 1f5:	03 25 01 1a 53 63    	add    esp,DWORD PTR [rip+0x63531a01]        # 63531bfc <_GLOBAL__sub_I__ZN4mat2C2Ev+0x6352d719>
 1fb:	00 00                	add    BYTE PTR [rax],al
 1fd:	bd 01 05 fd 01       	mov    ebp,0x1fd0501
 202:	01 e6                	add    esi,esp
 204:	01 05 00 00 8c 02    	add    DWORD PTR [rip+0x28c0000],eax        # 28c020a <_GLOBAL__sub_I__ZN4mat2C2Ev+0x28bbd27>
 20a:	0a 96 02 00 a4 02    	or     dl,BYTE PTR [rsi+0x2a40002]
 210:	05 00 00 01 00       	add    eax,0x10000
 215:	00 00                	add    BYTE PTR [rax],al
 217:	00 00                	add    BYTE PTR [rax],al
 219:	00 00                	add    BYTE PTR [rax],al
	...

Desensamblado de la sección .text._ZSt4sqrtf:

0000000000000000 <_ZSt4sqrtf>:
   0:	55                   	push   rbp
   1:	48 89 e5             	mov    rbp,rsp
   4:	48 83 ec 10          	sub    rsp,0x10
   8:	f3 0f 11 45 fc       	movss  DWORD PTR [rbp-0x4],xmm0
   d:	f3 0f 51 45 fc       	sqrtss xmm0,DWORD PTR [rbp-0x4]
  12:	0f 2e c0             	ucomiss xmm0,xmm0
  15:	7a 05                	jp     1c <_ZSt4sqrtf+0x1c>
  17:	0f 2e c0             	ucomiss xmm0,xmm0
  1a:	74 10                	je     2c <_ZSt4sqrtf+0x2c>
  1c:	8b 45 fc             	mov    eax,DWORD PTR [rbp-0x4]
  1f:	89 45 f8             	mov    DWORD PTR [rbp-0x8],eax
  22:	f3 0f 10 45 f8       	movss  xmm0,DWORD PTR [rbp-0x8]
  27:	e8 00 00 00 00       	call   2c <_ZSt4sqrtf+0x2c>
  2c:	c9                   	leave  
  2d:	c3                   	ret    

Desensamblado de la sección .text._ZSt5roundf:

0000000000000000 <_ZSt5roundf>:
   0:	55                   	push   rbp
   1:	48 89 e5             	mov    rbp,rsp
   4:	48 83 ec 10          	sub    rsp,0x10
   8:	f3 0f 11 45 fc       	movss  DWORD PTR [rbp-0x4],xmm0
   d:	8b 45 fc             	mov    eax,DWORD PTR [rbp-0x4]
  10:	89 45 f8             	mov    DWORD PTR [rbp-0x8],eax
  13:	f3 0f 10 45 f8       	movss  xmm0,DWORD PTR [rbp-0x8]
  18:	e8 00 00 00 00       	call   1d <_ZSt5roundf+0x1d>
  1d:	c9                   	leave  
  1e:	c3                   	ret    

Desensamblado de la sección .text._ZSt4atanIiEN9__gnu_cxx11__enable_ifIXsrSt12__is_integerIT_E7__valueEdE6__typeES3_:

0000000000000000 <_ZSt4atanIiEN9__gnu_cxx11__enable_ifIXsrSt12__is_integerIT_E7__valueEdE6__typeES3_>:
   0:	55                   	push   rbp
   1:	48 89 e5             	mov    rbp,rsp
   4:	48 83 ec 10          	sub    rsp,0x10
   8:	89 7d fc             	mov    DWORD PTR [rbp-0x4],edi
   b:	66 0f ef c0          	pxor   xmm0,xmm0
   f:	f2 0f 2a 45 fc       	cvtsi2sd xmm0,DWORD PTR [rbp-0x4]
  14:	e8 00 00 00 00       	call   19 <_ZSt4atanIiEN9__gnu_cxx11__enable_ifIXsrSt12__is_integerIT_E7__valueEdE6__typeES3_+0x19>
  19:	66 48 0f 7e c0       	movq   rax,xmm0
  1e:	48 89 45 f0          	mov    QWORD PTR [rbp-0x10],rax
  22:	f2 0f 10 45 f0       	movsd  xmm0,QWORD PTR [rbp-0x10]
  27:	c9                   	leave  
  28:	c3                   	ret    

Desensamblado de la sección .text._ZSt3powIfiEN9__gnu_cxx11__promote_2IT_T0_NS0_9__promoteIS2_XsrSt12__is_integerIS2_E7__valueEE6__typeENS4_IS3_XsrS5_IS3_E7__valueEE6__typeEE6__typeES2_S3_:

0000000000000000 <_ZSt3powIfiEN9__gnu_cxx11__promote_2IT_T0_NS0_9__promoteIS2_XsrSt12__is_integerIS2_E7__valueEE6__typeENS4_IS3_XsrS5_IS3_E7__valueEE6__typeEE6__typeES2_S3_>:
   0:	55                   	push   rbp
   1:	48 89 e5             	mov    rbp,rsp
   4:	48 83 ec 10          	sub    rsp,0x10
   8:	f3 0f 11 45 fc       	movss  DWORD PTR [rbp-0x4],xmm0
   d:	89 7d f8             	mov    DWORD PTR [rbp-0x8],edi
  10:	66 0f ef c9          	pxor   xmm1,xmm1
  14:	f2 0f 2a 4d f8       	cvtsi2sd xmm1,DWORD PTR [rbp-0x8]
  19:	f3 0f 5a 45 fc       	cvtss2sd xmm0,DWORD PTR [rbp-0x4]
  1e:	e8 00 00 00 00       	call   23 <_ZSt3powIfiEN9__gnu_cxx11__promote_2IT_T0_NS0_9__promoteIS2_XsrSt12__is_integerIS2_E7__valueEE6__typeENS4_IS3_XsrS5_IS3_E7__valueEE6__typeEE6__typeES2_S3_+0x23>
  23:	66 48 0f 7e c0       	movq   rax,xmm0
  28:	48 89 45 f0          	mov    QWORD PTR [rbp-0x10],rax
  2c:	f2 0f 10 45 f0       	movsd  xmm0,QWORD PTR [rbp-0x10]
  31:	c9                   	leave  
  32:	c3                   	ret    

Desensamblado de la sección .text._ZN9simulatorD2Ev:

0000000000000000 <_ZN9simulatorD1Ev>:
   0:	55                   	push   rbp
   1:	48 89 e5             	mov    rbp,rsp
   4:	48 83 ec 10          	sub    rsp,0x10
   8:	48 89 7d f8          	mov    QWORD PTR [rbp-0x8],rdi
   c:	48 8b 45 f8          	mov    rax,QWORD PTR [rbp-0x8]
  10:	48 05 30 01 00 00    	add    rax,0x130
  16:	48 89 c7             	mov    rdi,rax
  19:	e8 00 00 00 00       	call   1e <_ZN9simulatorD1Ev+0x1e>
  1e:	48 8b 45 f8          	mov    rax,QWORD PTR [rbp-0x8]
  22:	48 05 20 01 00 00    	add    rax,0x120
  28:	48 89 c7             	mov    rdi,rax
  2b:	e8 00 00 00 00       	call   30 <_ZN9simulatorD1Ev+0x30>
  30:	48 8b 45 f8          	mov    rax,QWORD PTR [rbp-0x8]
  34:	48 05 10 01 00 00    	add    rax,0x110
  3a:	48 89 c7             	mov    rdi,rax
  3d:	e8 00 00 00 00       	call   42 <_ZN9simulatorD1Ev+0x42>
  42:	48 8b 45 f8          	mov    rax,QWORD PTR [rbp-0x8]
  46:	48 05 00 01 00 00    	add    rax,0x100
  4c:	48 89 c7             	mov    rdi,rax
  4f:	e8 00 00 00 00       	call   54 <_ZN9simulatorD1Ev+0x54>
  54:	48 8b 45 f8          	mov    rax,QWORD PTR [rbp-0x8]
  58:	48 05 f0 00 00 00    	add    rax,0xf0
  5e:	48 89 c7             	mov    rdi,rax
  61:	e8 00 00 00 00       	call   66 <_ZN9simulatorD1Ev+0x66>
  66:	48 8b 45 f8          	mov    rax,QWORD PTR [rbp-0x8]
  6a:	48 05 e0 00 00 00    	add    rax,0xe0
  70:	48 89 c7             	mov    rdi,rax
  73:	e8 00 00 00 00       	call   78 <_ZN9simulatorD1Ev+0x78>
  78:	48 8b 45 f8          	mov    rax,QWORD PTR [rbp-0x8]
  7c:	48 05 d0 00 00 00    	add    rax,0xd0
  82:	48 89 c7             	mov    rdi,rax
  85:	e8 00 00 00 00       	call   8a <_ZN9simulatorD1Ev+0x8a>
  8a:	48 8b 45 f8          	mov    rax,QWORD PTR [rbp-0x8]
  8e:	48 05 c0 00 00 00    	add    rax,0xc0
  94:	48 89 c7             	mov    rdi,rax
  97:	e8 00 00 00 00       	call   9c <_ZN9simulatorD1Ev+0x9c>
  9c:	48 8b 45 f8          	mov    rax,QWORD PTR [rbp-0x8]
  a0:	48 05 b0 00 00 00    	add    rax,0xb0
  a6:	48 89 c7             	mov    rdi,rax
  a9:	e8 00 00 00 00       	call   ae <_ZN9simulatorD1Ev+0xae>
  ae:	90                   	nop
  af:	c9                   	leave  
  b0:	c3                   	ret    

Desensamblado de la sección .text._ZN9__gnu_cxx12__to_xstringINSt7__cxx1112basic_stringIcSt11char_traitsIcESaIcEEEcEET_PFiPT0_mPKS8_P13__va_list_tagEmSB_z:

0000000000000000 <_ZN9__gnu_cxx12__to_xstringINSt7__cxx1112basic_stringIcSt11char_traitsIcESaIcEEEcEET_PFiPT0_mPKS8_P13__va_list_tagEmSB_z>:
   0:	55                   	push   rbp
   1:	48 89 e5             	mov    rbp,rsp
   4:	53                   	push   rbx
   5:	48 81 ec 08 01 00 00 	sub    rsp,0x108
   c:	48 89 bd 08 ff ff ff 	mov    QWORD PTR [rbp-0xf8],rdi
  13:	48 89 b5 00 ff ff ff 	mov    QWORD PTR [rbp-0x100],rsi
  1a:	48 89 95 f8 fe ff ff 	mov    QWORD PTR [rbp-0x108],rdx
  21:	48 89 8d f0 fe ff ff 	mov    QWORD PTR [rbp-0x110],rcx
  28:	4c 89 85 60 ff ff ff 	mov    QWORD PTR [rbp-0xa0],r8
  2f:	4c 89 8d 68 ff ff ff 	mov    QWORD PTR [rbp-0x98],r9
  36:	84 c0                	test   al,al
  38:	74 23                	je     5d <_ZN9__gnu_cxx12__to_xstringINSt7__cxx1112basic_stringIcSt11char_traitsIcESaIcEEEcEET_PFiPT0_mPKS8_P13__va_list_tagEmSB_z+0x5d>
  3a:	0f 29 85 70 ff ff ff 	movaps XMMWORD PTR [rbp-0x90],xmm0
  41:	0f 29 4d 80          	movaps XMMWORD PTR [rbp-0x80],xmm1
  45:	0f 29 55 90          	movaps XMMWORD PTR [rbp-0x70],xmm2
  49:	0f 29 5d a0          	movaps XMMWORD PTR [rbp-0x60],xmm3
  4d:	0f 29 65 b0          	movaps XMMWORD PTR [rbp-0x50],xmm4
  51:	0f 29 6d c0          	movaps XMMWORD PTR [rbp-0x40],xmm5
  55:	0f 29 75 d0          	movaps XMMWORD PTR [rbp-0x30],xmm6
  59:	0f 29 7d e0          	movaps XMMWORD PTR [rbp-0x20],xmm7
  5d:	64 48 8b 04 25 28 00 	mov    rax,QWORD PTR fs:0x28
  64:	00 00 
  66:	48 89 85 38 ff ff ff 	mov    QWORD PTR [rbp-0xc8],rax
  6d:	31 c0                	xor    eax,eax
  6f:	48 8b 85 f8 fe ff ff 	mov    rax,QWORD PTR [rbp-0x108]
  76:	48 8d 50 0f          	lea    rdx,[rax+0xf]
  7a:	b8 10 00 00 00       	mov    eax,0x10
  7f:	48 83 e8 01          	sub    rax,0x1
  83:	48 01 d0             	add    rax,rdx
  86:	bb 10 00 00 00       	mov    ebx,0x10
  8b:	ba 00 00 00 00       	mov    edx,0x0
  90:	48 f7 f3             	div    rbx
  93:	48 6b c0 10          	imul   rax,rax,0x10
  97:	48 29 c4             	sub    rsp,rax
  9a:	48 89 e0             	mov    rax,rsp
  9d:	48 83 c0 0f          	add    rax,0xf
  a1:	48 c1 e8 04          	shr    rax,0x4
  a5:	48 c1 e0 04          	shl    rax,0x4
  a9:	48 89 85 18 ff ff ff 	mov    QWORD PTR [rbp-0xe8],rax
  b0:	c7 85 20 ff ff ff 20 	mov    DWORD PTR [rbp-0xe0],0x20
  b7:	00 00 00 
  ba:	c7 85 24 ff ff ff 30 	mov    DWORD PTR [rbp-0xdc],0x30
  c1:	00 00 00 
  c4:	48 8d 45 10          	lea    rax,[rbp+0x10]
  c8:	48 89 85 28 ff ff ff 	mov    QWORD PTR [rbp-0xd8],rax
  cf:	48 8d 85 40 ff ff ff 	lea    rax,[rbp-0xc0]
  d6:	48 89 85 30 ff ff ff 	mov    QWORD PTR [rbp-0xd0],rax
  dd:	48 8d 8d 20 ff ff ff 	lea    rcx,[rbp-0xe0]
  e4:	48 8b 95 f0 fe ff ff 	mov    rdx,QWORD PTR [rbp-0x110]
  eb:	48 8b b5 f8 fe ff ff 	mov    rsi,QWORD PTR [rbp-0x108]
  f2:	48 8b bd 18 ff ff ff 	mov    rdi,QWORD PTR [rbp-0xe8]
  f9:	48 8b 85 00 ff ff ff 	mov    rax,QWORD PTR [rbp-0x100]
 100:	ff d0                	call   rax
 102:	89 85 14 ff ff ff    	mov    DWORD PTR [rbp-0xec],eax
 108:	48 8d 85 13 ff ff ff 	lea    rax,[rbp-0xed]
 10f:	48 89 c7             	mov    rdi,rax
 112:	e8 00 00 00 00       	call   117 <_ZN9__gnu_cxx12__to_xstringINSt7__cxx1112basic_stringIcSt11char_traitsIcESaIcEEEcEET_PFiPT0_mPKS8_P13__va_list_tagEmSB_z+0x117>
 117:	8b 85 14 ff ff ff    	mov    eax,DWORD PTR [rbp-0xec]
 11d:	48 63 d0             	movsxd rdx,eax
 120:	48 8b 85 18 ff ff ff 	mov    rax,QWORD PTR [rbp-0xe8]
 127:	48 8d 3c 02          	lea    rdi,[rdx+rax*1]
 12b:	48 8d 95 13 ff ff ff 	lea    rdx,[rbp-0xed]
 132:	48 8b b5 18 ff ff ff 	mov    rsi,QWORD PTR [rbp-0xe8]
 139:	48 8b 85 08 ff ff ff 	mov    rax,QWORD PTR [rbp-0xf8]
 140:	48 89 d1             	mov    rcx,rdx
 143:	48 89 fa             	mov    rdx,rdi
 146:	48 89 c7             	mov    rdi,rax
 149:	e8 00 00 00 00       	call   14e <_ZN9__gnu_cxx12__to_xstringINSt7__cxx1112basic_stringIcSt11char_traitsIcESaIcEEEcEET_PFiPT0_mPKS8_P13__va_list_tagEmSB_z+0x14e>
 14e:	48 8d 85 13 ff ff ff 	lea    rax,[rbp-0xed]
 155:	48 89 c7             	mov    rdi,rax
 158:	e8 00 00 00 00       	call   15d <_ZN9__gnu_cxx12__to_xstringINSt7__cxx1112basic_stringIcSt11char_traitsIcESaIcEEEcEET_PFiPT0_mPKS8_P13__va_list_tagEmSB_z+0x15d>
 15d:	48 8b 85 08 ff ff ff 	mov    rax,QWORD PTR [rbp-0xf8]
 164:	48 8b 9d 38 ff ff ff 	mov    rbx,QWORD PTR [rbp-0xc8]
 16b:	64 48 33 1c 25 28 00 	xor    rbx,QWORD PTR fs:0x28
 172:	00 00 
 174:	74 24                	je     19a <_ZN9__gnu_cxx12__to_xstringINSt7__cxx1112basic_stringIcSt11char_traitsIcESaIcEEEcEET_PFiPT0_mPKS8_P13__va_list_tagEmSB_z+0x19a>
 176:	eb 1d                	jmp    195 <_ZN9__gnu_cxx12__to_xstringINSt7__cxx1112basic_stringIcSt11char_traitsIcESaIcEEEcEET_PFiPT0_mPKS8_P13__va_list_tagEmSB_z+0x195>
 178:	48 89 c3             	mov    rbx,rax
 17b:	48 8d 85 13 ff ff ff 	lea    rax,[rbp-0xed]
 182:	48 89 c7             	mov    rdi,rax
 185:	e8 00 00 00 00       	call   18a <_ZN9__gnu_cxx12__to_xstringINSt7__cxx1112basic_stringIcSt11char_traitsIcESaIcEEEcEET_PFiPT0_mPKS8_P13__va_list_tagEmSB_z+0x18a>
 18a:	48 89 d8             	mov    rax,rbx
 18d:	48 89 c7             	mov    rdi,rax
 190:	e8 00 00 00 00       	call   195 <_ZN9__gnu_cxx12__to_xstringINSt7__cxx1112basic_stringIcSt11char_traitsIcESaIcEEEcEET_PFiPT0_mPKS8_P13__va_list_tagEmSB_z+0x195>
 195:	e8 00 00 00 00       	call   19a <_ZN9__gnu_cxx12__to_xstringINSt7__cxx1112basic_stringIcSt11char_traitsIcESaIcEEEcEET_PFiPT0_mPKS8_P13__va_list_tagEmSB_z+0x19a>
 19a:	48 8b 5d f8          	mov    rbx,QWORD PTR [rbp-0x8]
 19e:	c9                   	leave  
 19f:	c3                   	ret    

Desensamblado de la sección .text._ZNSt7__cxx1112basic_stringIcSt11char_traitsIcESaIcEE12_Alloc_hiderD2Ev:

0000000000000000 <_ZNSt7__cxx1112basic_stringIcSt11char_traitsIcESaIcEE12_Alloc_hiderD1Ev>:
   0:	55                   	push   rbp
   1:	48 89 e5             	mov    rbp,rsp
   4:	48 83 ec 10          	sub    rsp,0x10
   8:	48 89 7d f8          	mov    QWORD PTR [rbp-0x8],rdi
   c:	48 8b 45 f8          	mov    rax,QWORD PTR [rbp-0x8]
  10:	48 89 c7             	mov    rdi,rax
  13:	e8 00 00 00 00       	call   18 <_ZNSt7__cxx1112basic_stringIcSt11char_traitsIcESaIcEE12_Alloc_hiderD1Ev+0x18>
  18:	90                   	nop
  19:	c9                   	leave  
  1a:	c3                   	ret    

Desensamblado de la sección .text._ZSt4moveIRNSt7__cxx1112basic_stringIcSt11char_traitsIcESaIcEEEEONSt16remove_referenceIT_E4typeEOS8_:

0000000000000000 <_ZSt4moveIRNSt7__cxx1112basic_stringIcSt11char_traitsIcESaIcEEEEONSt16remove_referenceIT_E4typeEOS8_>:
   0:	55                   	push   rbp
   1:	48 89 e5             	mov    rbp,rsp
   4:	48 89 7d f8          	mov    QWORD PTR [rbp-0x8],rdi
   8:	48 8b 45 f8          	mov    rax,QWORD PTR [rbp-0x8]
   c:	5d                   	pop    rbp
   d:	c3                   	ret    

Desensamblado de la sección .text._ZStplIcSt11char_traitsIcESaIcEENSt7__cxx1112basic_stringIT_T0_T1_EEOS8_S9_:

0000000000000000 <_ZStplIcSt11char_traitsIcESaIcEENSt7__cxx1112basic_stringIT_T0_T1_EEOS8_S9_>:
   0:	55                   	push   rbp
   1:	48 89 e5             	mov    rbp,rsp
   4:	53                   	push   rbx
   5:	48 83 ec 38          	sub    rsp,0x38
   9:	48 89 7d d8          	mov    QWORD PTR [rbp-0x28],rdi
   d:	48 89 75 d0          	mov    QWORD PTR [rbp-0x30],rsi
  11:	48 89 55 c8          	mov    QWORD PTR [rbp-0x38],rdx
  15:	48 8b 45 d0          	mov    rax,QWORD PTR [rbp-0x30]
  19:	48 89 c7             	mov    rdi,rax
  1c:	e8 00 00 00 00       	call   21 <_ZStplIcSt11char_traitsIcESaIcEENSt7__cxx1112basic_stringIT_T0_T1_EEOS8_S9_+0x21>
  21:	48 89 c3             	mov    rbx,rax
  24:	48 8b 45 c8          	mov    rax,QWORD PTR [rbp-0x38]
  28:	48 89 c7             	mov    rdi,rax
  2b:	e8 00 00 00 00       	call   30 <_ZStplIcSt11char_traitsIcESaIcEENSt7__cxx1112basic_stringIT_T0_T1_EEOS8_S9_+0x30>
  30:	48 01 d8             	add    rax,rbx
  33:	48 89 45 e8          	mov    QWORD PTR [rbp-0x18],rax
  37:	48 8b 45 d0          	mov    rax,QWORD PTR [rbp-0x30]
  3b:	48 89 c7             	mov    rdi,rax
  3e:	e8 00 00 00 00       	call   43 <_ZStplIcSt11char_traitsIcESaIcEENSt7__cxx1112basic_stringIT_T0_T1_EEOS8_S9_+0x43>
  43:	48 3b 45 e8          	cmp    rax,QWORD PTR [rbp-0x18]
  47:	73 19                	jae    62 <_ZStplIcSt11char_traitsIcESaIcEENSt7__cxx1112basic_stringIT_T0_T1_EEOS8_S9_+0x62>
  49:	48 8b 45 c8          	mov    rax,QWORD PTR [rbp-0x38]
  4d:	48 89 c7             	mov    rdi,rax
  50:	e8 00 00 00 00       	call   55 <_ZStplIcSt11char_traitsIcESaIcEENSt7__cxx1112basic_stringIT_T0_T1_EEOS8_S9_+0x55>
  55:	48 3b 45 e8          	cmp    rax,QWORD PTR [rbp-0x18]
  59:	72 07                	jb     62 <_ZStplIcSt11char_traitsIcESaIcEENSt7__cxx1112basic_stringIT_T0_T1_EEOS8_S9_+0x62>
  5b:	b8 01 00 00 00       	mov    eax,0x1
  60:	eb 05                	jmp    67 <_ZStplIcSt11char_traitsIcESaIcEENSt7__cxx1112basic_stringIT_T0_T1_EEOS8_S9_+0x67>
  62:	b8 00 00 00 00       	mov    eax,0x0
  67:	88 45 e7             	mov    BYTE PTR [rbp-0x19],al
  6a:	80 7d e7 00          	cmp    BYTE PTR [rbp-0x19],0x0
  6e:	74 22                	je     92 <_ZStplIcSt11char_traitsIcESaIcEENSt7__cxx1112basic_stringIT_T0_T1_EEOS8_S9_+0x92>
  70:	48 8b 55 d0          	mov    rdx,QWORD PTR [rbp-0x30]
  74:	48 8b 45 c8          	mov    rax,QWORD PTR [rbp-0x38]
  78:	be 00 00 00 00       	mov    esi,0x0
  7d:	48 89 c7             	mov    rdi,rax
  80:	e8 00 00 00 00       	call   85 <_ZStplIcSt11char_traitsIcESaIcEENSt7__cxx1112basic_stringIT_T0_T1_EEOS8_S9_+0x85>
  85:	48 89 c7             	mov    rdi,rax
  88:	e8 00 00 00 00       	call   8d <_ZStplIcSt11char_traitsIcESaIcEENSt7__cxx1112basic_stringIT_T0_T1_EEOS8_S9_+0x8d>
  8d:	48 89 c2             	mov    rdx,rax
  90:	eb 1e                	jmp    b0 <_ZStplIcSt11char_traitsIcESaIcEENSt7__cxx1112basic_stringIT_T0_T1_EEOS8_S9_+0xb0>
  92:	48 8b 55 c8          	mov    rdx,QWORD PTR [rbp-0x38]
  96:	48 8b 45 d0          	mov    rax,QWORD PTR [rbp-0x30]
  9a:	48 89 d6             	mov    rsi,rdx
  9d:	48 89 c7             	mov    rdi,rax
  a0:	e8 00 00 00 00       	call   a5 <_ZStplIcSt11char_traitsIcESaIcEENSt7__cxx1112basic_stringIT_T0_T1_EEOS8_S9_+0xa5>
  a5:	48 89 c7             	mov    rdi,rax
  a8:	e8 00 00 00 00       	call   ad <_ZStplIcSt11char_traitsIcESaIcEENSt7__cxx1112basic_stringIT_T0_T1_EEOS8_S9_+0xad>
  ad:	48 89 c2             	mov    rdx,rax
  b0:	48 8b 45 d8          	mov    rax,QWORD PTR [rbp-0x28]
  b4:	48 89 d6             	mov    rsi,rdx
  b7:	48 89 c7             	mov    rdi,rax
  ba:	e8 00 00 00 00       	call   bf <_ZStplIcSt11char_traitsIcESaIcEENSt7__cxx1112basic_stringIT_T0_T1_EEOS8_S9_+0xbf>
  bf:	48 8b 45 d8          	mov    rax,QWORD PTR [rbp-0x28]
  c3:	48 83 c4 38          	add    rsp,0x38
  c7:	5b                   	pop    rbx
  c8:	5d                   	pop    rbp
  c9:	c3                   	ret    

Desensamblado de la sección .text._ZStplIcSt11char_traitsIcESaIcEENSt7__cxx1112basic_stringIT_T0_T1_EEPKS5_OS8_:

0000000000000000 <_ZStplIcSt11char_traitsIcESaIcEENSt7__cxx1112basic_stringIT_T0_T1_EEPKS5_OS8_>:
   0:	55                   	push   rbp
   1:	48 89 e5             	mov    rbp,rsp
   4:	48 83 ec 20          	sub    rsp,0x20
   8:	48 89 7d f8          	mov    QWORD PTR [rbp-0x8],rdi
   c:	48 89 75 f0          	mov    QWORD PTR [rbp-0x10],rsi
  10:	48 89 55 e8          	mov    QWORD PTR [rbp-0x18],rdx
  14:	48 8b 55 f0          	mov    rdx,QWORD PTR [rbp-0x10]
  18:	48 8b 45 e8          	mov    rax,QWORD PTR [rbp-0x18]
  1c:	be 00 00 00 00       	mov    esi,0x0
  21:	48 89 c7             	mov    rdi,rax
  24:	e8 00 00 00 00       	call   29 <_ZStplIcSt11char_traitsIcESaIcEENSt7__cxx1112basic_stringIT_T0_T1_EEPKS5_OS8_+0x29>
  29:	48 89 c7             	mov    rdi,rax
  2c:	e8 00 00 00 00       	call   31 <_ZStplIcSt11char_traitsIcESaIcEENSt7__cxx1112basic_stringIT_T0_T1_EEPKS5_OS8_+0x31>
  31:	48 89 c2             	mov    rdx,rax
  34:	48 8b 45 f8          	mov    rax,QWORD PTR [rbp-0x8]
  38:	48 89 d6             	mov    rsi,rdx
  3b:	48 89 c7             	mov    rdi,rax
  3e:	e8 00 00 00 00       	call   43 <_ZStplIcSt11char_traitsIcESaIcEENSt7__cxx1112basic_stringIT_T0_T1_EEPKS5_OS8_+0x43>
  43:	48 8b 45 f8          	mov    rax,QWORD PTR [rbp-0x8]
  47:	c9                   	leave  
  48:	c3                   	ret    

Desensamblado de la sección .text._ZSteqIcSt11char_traitsIcESaIcEEbRKNSt7__cxx1112basic_stringIT_T0_T1_EEPKS5_:

0000000000000000 <_ZSteqIcSt11char_traitsIcESaIcEEbRKNSt7__cxx1112basic_stringIT_T0_T1_EEPKS5_>:
   0:	55                   	push   rbp
   1:	48 89 e5             	mov    rbp,rsp
   4:	48 83 ec 10          	sub    rsp,0x10
   8:	48 89 7d f8          	mov    QWORD PTR [rbp-0x8],rdi
   c:	48 89 75 f0          	mov    QWORD PTR [rbp-0x10],rsi
  10:	48 8b 55 f0          	mov    rdx,QWORD PTR [rbp-0x10]
  14:	48 8b 45 f8          	mov    rax,QWORD PTR [rbp-0x8]
  18:	48 89 d6             	mov    rsi,rdx
  1b:	48 89 c7             	mov    rdi,rax
  1e:	e8 00 00 00 00       	call   23 <_ZSteqIcSt11char_traitsIcESaIcEEbRKNSt7__cxx1112basic_stringIT_T0_T1_EEPKS5_+0x23>
  23:	85 c0                	test   eax,eax
  25:	0f 94 c0             	sete   al
  28:	c9                   	leave  
  29:	c3                   	ret    

Desensamblado de la sección .text._ZStplIcSt11char_traitsIcESaIcEENSt7__cxx1112basic_stringIT_T0_T1_EEOS8_PKS5_:

0000000000000000 <_ZStplIcSt11char_traitsIcESaIcEENSt7__cxx1112basic_stringIT_T0_T1_EEOS8_PKS5_>:
   0:	55                   	push   rbp
   1:	48 89 e5             	mov    rbp,rsp
   4:	48 83 ec 20          	sub    rsp,0x20
   8:	48 89 7d f8          	mov    QWORD PTR [rbp-0x8],rdi
   c:	48 89 75 f0          	mov    QWORD PTR [rbp-0x10],rsi
  10:	48 89 55 e8          	mov    QWORD PTR [rbp-0x18],rdx
  14:	48 8b 55 e8          	mov    rdx,QWORD PTR [rbp-0x18]
  18:	48 8b 45 f0          	mov    rax,QWORD PTR [rbp-0x10]
  1c:	48 89 d6             	mov    rsi,rdx
  1f:	48 89 c7             	mov    rdi,rax
  22:	e8 00 00 00 00       	call   27 <_ZStplIcSt11char_traitsIcESaIcEENSt7__cxx1112basic_stringIT_T0_T1_EEOS8_PKS5_+0x27>
  27:	48 89 c7             	mov    rdi,rax
  2a:	e8 00 00 00 00       	call   2f <_ZStplIcSt11char_traitsIcESaIcEENSt7__cxx1112basic_stringIT_T0_T1_EEOS8_PKS5_+0x2f>
  2f:	48 89 c2             	mov    rdx,rax
  32:	48 8b 45 f8          	mov    rax,QWORD PTR [rbp-0x8]
  36:	48 89 d6             	mov    rsi,rdx
  39:	48 89 c7             	mov    rdi,rax
  3c:	e8 00 00 00 00       	call   41 <_ZStplIcSt11char_traitsIcESaIcEENSt7__cxx1112basic_stringIT_T0_T1_EEOS8_PKS5_+0x41>
  41:	48 8b 45 f8          	mov    rax,QWORD PTR [rbp-0x8]
  45:	c9                   	leave  
  46:	c3                   	ret    

Desensamblado de la sección .text._ZSt3minIfERKT_S2_S2_:

0000000000000000 <_ZSt3minIfERKT_S2_S2_>:
   0:	55                   	push   rbp
   1:	48 89 e5             	mov    rbp,rsp
   4:	48 89 7d f8          	mov    QWORD PTR [rbp-0x8],rdi
   8:	48 89 75 f0          	mov    QWORD PTR [rbp-0x10],rsi
   c:	48 8b 45 f0          	mov    rax,QWORD PTR [rbp-0x10]
  10:	f3 0f 10 08          	movss  xmm1,DWORD PTR [rax]
  14:	48 8b 45 f8          	mov    rax,QWORD PTR [rbp-0x8]
  18:	f3 0f 10 00          	movss  xmm0,DWORD PTR [rax]
  1c:	0f 2e c1             	ucomiss xmm0,xmm1
  1f:	76 06                	jbe    27 <_ZSt3minIfERKT_S2_S2_+0x27>
  21:	48 8b 45 f0          	mov    rax,QWORD PTR [rbp-0x10]
  25:	eb 04                	jmp    2b <_ZSt3minIfERKT_S2_S2_+0x2b>
  27:	48 8b 45 f8          	mov    rax,QWORD PTR [rbp-0x8]
  2b:	5d                   	pop    rbp
  2c:	c3                   	ret    

Desensamblado de la sección .text._ZNSt7__cxx1112basic_stringIcSt11char_traitsIcESaIcEEC2IPcvEET_S7_RKS3_:

0000000000000000 <_ZNSt7__cxx1112basic_stringIcSt11char_traitsIcESaIcEEC1IPcvEET_S7_RKS3_>:
   0:	55                   	push   rbp
   1:	48 89 e5             	mov    rbp,rsp
   4:	53                   	push   rbx
   5:	48 83 ec 28          	sub    rsp,0x28
   9:	48 89 7d e8          	mov    QWORD PTR [rbp-0x18],rdi
   d:	48 89 75 e0          	mov    QWORD PTR [rbp-0x20],rsi
  11:	48 89 55 d8          	mov    QWORD PTR [rbp-0x28],rdx
  15:	48 89 4d d0          	mov    QWORD PTR [rbp-0x30],rcx
  19:	48 8b 45 e8          	mov    rax,QWORD PTR [rbp-0x18]
  1d:	48 89 c7             	mov    rdi,rax
  20:	e8 00 00 00 00       	call   25 <_ZNSt7__cxx1112basic_stringIcSt11char_traitsIcESaIcEEC1IPcvEET_S7_RKS3_+0x25>
  25:	48 89 c1             	mov    rcx,rax
  28:	48 8b 45 e8          	mov    rax,QWORD PTR [rbp-0x18]
  2c:	48 8b 55 d0          	mov    rdx,QWORD PTR [rbp-0x30]
  30:	48 89 ce             	mov    rsi,rcx
  33:	48 89 c7             	mov    rdi,rax
  36:	e8 00 00 00 00       	call   3b <_ZNSt7__cxx1112basic_stringIcSt11char_traitsIcESaIcEEC1IPcvEET_S7_RKS3_+0x3b>
  3b:	48 8b 55 d8          	mov    rdx,QWORD PTR [rbp-0x28]
  3f:	48 8b 4d e0          	mov    rcx,QWORD PTR [rbp-0x20]
  43:	48 8b 45 e8          	mov    rax,QWORD PTR [rbp-0x18]
  47:	48 89 ce             	mov    rsi,rcx
  4a:	48 89 c7             	mov    rdi,rax
  4d:	e8 00 00 00 00       	call   52 <_ZNSt7__cxx1112basic_stringIcSt11char_traitsIcESaIcEEC1IPcvEET_S7_RKS3_+0x52>
  52:	eb 1a                	jmp    6e <_ZNSt7__cxx1112basic_stringIcSt11char_traitsIcESaIcEEC1IPcvEET_S7_RKS3_+0x6e>
  54:	48 89 c3             	mov    rbx,rax
  57:	48 8b 45 e8          	mov    rax,QWORD PTR [rbp-0x18]
  5b:	48 89 c7             	mov    rdi,rax
  5e:	e8 00 00 00 00       	call   63 <_ZNSt7__cxx1112basic_stringIcSt11char_traitsIcESaIcEEC1IPcvEET_S7_RKS3_+0x63>
  63:	48 89 d8             	mov    rax,rbx
  66:	48 89 c7             	mov    rdi,rax
  69:	e8 00 00 00 00       	call   6e <_ZNSt7__cxx1112basic_stringIcSt11char_traitsIcESaIcEEC1IPcvEET_S7_RKS3_+0x6e>
  6e:	48 83 c4 28          	add    rsp,0x28
  72:	5b                   	pop    rbx
  73:	5d                   	pop    rbp
  74:	c3                   	ret    

Desensamblado de la sección .text._ZNSt7__cxx1112basic_stringIcSt11char_traitsIcESaIcEE12_M_constructIPcEEvT_S7_:

0000000000000000 <_ZNSt7__cxx1112basic_stringIcSt11char_traitsIcESaIcEE12_M_constructIPcEEvT_S7_>:
   0:	55                   	push   rbp
   1:	48 89 e5             	mov    rbp,rsp
   4:	48 83 ec 30          	sub    rsp,0x30
   8:	48 89 7d e8          	mov    QWORD PTR [rbp-0x18],rdi
   c:	48 89 75 e0          	mov    QWORD PTR [rbp-0x20],rsi
  10:	48 89 55 d8          	mov    QWORD PTR [rbp-0x28],rdx
  14:	64 48 8b 04 25 28 00 	mov    rax,QWORD PTR fs:0x28
  1b:	00 00 
  1d:	48 89 45 f8          	mov    QWORD PTR [rbp-0x8],rax
  21:	31 c0                	xor    eax,eax
  23:	48 8b 55 d8          	mov    rdx,QWORD PTR [rbp-0x28]
  27:	48 8b 4d e0          	mov    rcx,QWORD PTR [rbp-0x20]
  2b:	48 8b 45 e8          	mov    rax,QWORD PTR [rbp-0x18]
  2f:	48 83 ec 08          	sub    rsp,0x8
  33:	41 50                	push   r8
  35:	48 89 ce             	mov    rsi,rcx
  38:	48 89 c7             	mov    rdi,rax
  3b:	e8 00 00 00 00       	call   40 <_ZNSt7__cxx1112basic_stringIcSt11char_traitsIcESaIcEE12_M_constructIPcEEvT_S7_+0x40>
  40:	48 83 c4 10          	add    rsp,0x10
  44:	90                   	nop
  45:	48 8b 45 f8          	mov    rax,QWORD PTR [rbp-0x8]
  49:	64 48 33 04 25 28 00 	xor    rax,QWORD PTR fs:0x28
  50:	00 00 
  52:	74 05                	je     59 <_ZNSt7__cxx1112basic_stringIcSt11char_traitsIcESaIcEE12_M_constructIPcEEvT_S7_+0x59>
  54:	e8 00 00 00 00       	call   59 <_ZNSt7__cxx1112basic_stringIcSt11char_traitsIcESaIcEE12_M_constructIPcEEvT_S7_+0x59>
  59:	c9                   	leave  
  5a:	c3                   	ret    

Desensamblado de la sección .text._ZNSt7__cxx1112basic_stringIcSt11char_traitsIcESaIcEE16_M_construct_auxIPcEEvT_S7_St12__false_type:

0000000000000000 <_ZNSt7__cxx1112basic_stringIcSt11char_traitsIcESaIcEE16_M_construct_auxIPcEEvT_S7_St12__false_type>:
   0:	55                   	push   rbp
   1:	48 89 e5             	mov    rbp,rsp
   4:	48 83 ec 30          	sub    rsp,0x30
   8:	48 89 7d e8          	mov    QWORD PTR [rbp-0x18],rdi
   c:	48 89 75 e0          	mov    QWORD PTR [rbp-0x20],rsi
  10:	48 89 55 d8          	mov    QWORD PTR [rbp-0x28],rdx
  14:	64 48 8b 04 25 28 00 	mov    rax,QWORD PTR fs:0x28
  1b:	00 00 
  1d:	48 89 45 f8          	mov    QWORD PTR [rbp-0x8],rax
  21:	31 c0                	xor    eax,eax
  23:	48 8b 55 d8          	mov    rdx,QWORD PTR [rbp-0x28]
  27:	48 8b 4d e0          	mov    rcx,QWORD PTR [rbp-0x20]
  2b:	48 8b 45 e8          	mov    rax,QWORD PTR [rbp-0x18]
  2f:	48 83 ec 08          	sub    rsp,0x8
  33:	41 50                	push   r8
  35:	48 89 ce             	mov    rsi,rcx
  38:	48 89 c7             	mov    rdi,rax
  3b:	e8 00 00 00 00       	call   40 <_ZNSt7__cxx1112basic_stringIcSt11char_traitsIcESaIcEE16_M_construct_auxIPcEEvT_S7_St12__false_type+0x40>
  40:	48 83 c4 10          	add    rsp,0x10
  44:	90                   	nop
  45:	48 8b 45 f8          	mov    rax,QWORD PTR [rbp-0x8]
  49:	64 48 33 04 25 28 00 	xor    rax,QWORD PTR fs:0x28
  50:	00 00 
  52:	74 05                	je     59 <_ZNSt7__cxx1112basic_stringIcSt11char_traitsIcESaIcEE16_M_construct_auxIPcEEvT_S7_St12__false_type+0x59>
  54:	e8 00 00 00 00       	call   59 <_ZNSt7__cxx1112basic_stringIcSt11char_traitsIcESaIcEE16_M_construct_auxIPcEEvT_S7_St12__false_type+0x59>
  59:	c9                   	leave  
  5a:	c3                   	ret    

Desensamblado de la sección .text._ZNSt7__cxx1112basic_stringIcSt11char_traitsIcESaIcEE12_M_constructIPcEEvT_S7_St20forward_iterator_tag:

0000000000000000 <_ZNSt7__cxx1112basic_stringIcSt11char_traitsIcESaIcEE12_M_constructIPcEEvT_S7_St20forward_iterator_tag>:
   0:	55                   	push   rbp
   1:	48 89 e5             	mov    rbp,rsp
   4:	53                   	push   rbx
   5:	48 83 ec 38          	sub    rsp,0x38
   9:	48 89 7d d8          	mov    QWORD PTR [rbp-0x28],rdi
   d:	48 89 75 d0          	mov    QWORD PTR [rbp-0x30],rsi
  11:	48 89 55 c8          	mov    QWORD PTR [rbp-0x38],rdx
  15:	64 48 8b 04 25 28 00 	mov    rax,QWORD PTR fs:0x28
  1c:	00 00 
  1e:	48 89 45 e8          	mov    QWORD PTR [rbp-0x18],rax
  22:	31 c0                	xor    eax,eax
  24:	48 8b 45 d0          	mov    rax,QWORD PTR [rbp-0x30]
  28:	48 89 c7             	mov    rdi,rax
  2b:	e8 00 00 00 00       	call   30 <_ZNSt7__cxx1112basic_stringIcSt11char_traitsIcESaIcEE12_M_constructIPcEEvT_S7_St20forward_iterator_tag+0x30>
  30:	84 c0                	test   al,al
  32:	74 11                	je     45 <_ZNSt7__cxx1112basic_stringIcSt11char_traitsIcESaIcEE12_M_constructIPcEEvT_S7_St20forward_iterator_tag+0x45>
  34:	48 8b 45 d0          	mov    rax,QWORD PTR [rbp-0x30]
  38:	48 3b 45 c8          	cmp    rax,QWORD PTR [rbp-0x38]
  3c:	74 07                	je     45 <_ZNSt7__cxx1112basic_stringIcSt11char_traitsIcESaIcEE12_M_constructIPcEEvT_S7_St20forward_iterator_tag+0x45>
  3e:	b8 01 00 00 00       	mov    eax,0x1
  43:	eb 05                	jmp    4a <_ZNSt7__cxx1112basic_stringIcSt11char_traitsIcESaIcEE12_M_constructIPcEEvT_S7_St20forward_iterator_tag+0x4a>
  45:	b8 00 00 00 00       	mov    eax,0x0
  4a:	84 c0                	test   al,al
  4c:	74 0a                	je     58 <_ZNSt7__cxx1112basic_stringIcSt11char_traitsIcESaIcEE12_M_constructIPcEEvT_S7_St20forward_iterator_tag+0x58>
  4e:	bf 00 00 00 00       	mov    edi,0x0
  53:	e8 00 00 00 00       	call   58 <_ZNSt7__cxx1112basic_stringIcSt11char_traitsIcESaIcEE12_M_constructIPcEEvT_S7_St20forward_iterator_tag+0x58>
  58:	48 8b 55 c8          	mov    rdx,QWORD PTR [rbp-0x38]
  5c:	48 8b 45 d0          	mov    rax,QWORD PTR [rbp-0x30]
  60:	48 89 d6             	mov    rsi,rdx
  63:	48 89 c7             	mov    rdi,rax
  66:	e8 00 00 00 00       	call   6b <_ZNSt7__cxx1112basic_stringIcSt11char_traitsIcESaIcEE12_M_constructIPcEEvT_S7_St20forward_iterator_tag+0x6b>
  6b:	48 89 45 e0          	mov    QWORD PTR [rbp-0x20],rax
  6f:	48 8b 45 e0          	mov    rax,QWORD PTR [rbp-0x20]
  73:	48 83 f8 0f          	cmp    rax,0xf
  77:	76 3d                	jbe    b6 <_ZNSt7__cxx1112basic_stringIcSt11char_traitsIcESaIcEE12_M_constructIPcEEvT_S7_St20forward_iterator_tag+0xb6>
  79:	48 8d 4d e0          	lea    rcx,[rbp-0x20]
  7d:	48 8b 45 d8          	mov    rax,QWORD PTR [rbp-0x28]
  81:	ba 00 00 00 00       	mov    edx,0x0
  86:	48 89 ce             	mov    rsi,rcx
  89:	48 89 c7             	mov    rdi,rax
  8c:	e8 00 00 00 00       	call   91 <_ZNSt7__cxx1112basic_stringIcSt11char_traitsIcESaIcEE12_M_constructIPcEEvT_S7_St20forward_iterator_tag+0x91>
  91:	48 89 c2             	mov    rdx,rax
  94:	48 8b 45 d8          	mov    rax,QWORD PTR [rbp-0x28]
  98:	48 89 d6             	mov    rsi,rdx
  9b:	48 89 c7             	mov    rdi,rax
  9e:	e8 00 00 00 00       	call   a3 <_ZNSt7__cxx1112basic_stringIcSt11char_traitsIcESaIcEE12_M_constructIPcEEvT_S7_St20forward_iterator_tag+0xa3>
  a3:	48 8b 55 e0          	mov    rdx,QWORD PTR [rbp-0x20]
  a7:	48 8b 45 d8          	mov    rax,QWORD PTR [rbp-0x28]
  ab:	48 89 d6             	mov    rsi,rdx
  ae:	48 89 c7             	mov    rdi,rax
  b1:	e8 00 00 00 00       	call   b6 <_ZNSt7__cxx1112basic_stringIcSt11char_traitsIcESaIcEE12_M_constructIPcEEvT_S7_St20forward_iterator_tag+0xb6>
  b6:	48 8b 45 d8          	mov    rax,QWORD PTR [rbp-0x28]
  ba:	48 89 c7             	mov    rdi,rax
  bd:	e8 00 00 00 00       	call   c2 <_ZNSt7__cxx1112basic_stringIcSt11char_traitsIcESaIcEE12_M_constructIPcEEvT_S7_St20forward_iterator_tag+0xc2>
  c2:	48 89 c1             	mov    rcx,rax
  c5:	48 8b 55 c8          	mov    rdx,QWORD PTR [rbp-0x38]
  c9:	48 8b 45 d0          	mov    rax,QWORD PTR [rbp-0x30]
  cd:	48 89 c6             	mov    rsi,rax
  d0:	48 89 cf             	mov    rdi,rcx
  d3:	e8 00 00 00 00       	call   d8 <_ZNSt7__cxx1112basic_stringIcSt11char_traitsIcESaIcEE12_M_constructIPcEEvT_S7_St20forward_iterator_tag+0xd8>
  d8:	48 8b 55 e0          	mov    rdx,QWORD PTR [rbp-0x20]
  dc:	48 8b 45 d8          	mov    rax,QWORD PTR [rbp-0x28]
  e0:	48 89 d6             	mov    rsi,rdx
  e3:	48 89 c7             	mov    rdi,rax
  e6:	e8 00 00 00 00       	call   eb <_ZNSt7__cxx1112basic_stringIcSt11char_traitsIcESaIcEE12_M_constructIPcEEvT_S7_St20forward_iterator_tag+0xeb>
  eb:	90                   	nop
  ec:	48 8b 45 e8          	mov    rax,QWORD PTR [rbp-0x18]
  f0:	64 48 33 04 25 28 00 	xor    rax,QWORD PTR fs:0x28
  f7:	00 00 
  f9:	74 33                	je     12e <_ZNSt7__cxx1112basic_stringIcSt11char_traitsIcESaIcEE12_M_constructIPcEEvT_S7_St20forward_iterator_tag+0x12e>
  fb:	eb 2c                	jmp    129 <_ZNSt7__cxx1112basic_stringIcSt11char_traitsIcESaIcEE12_M_constructIPcEEvT_S7_St20forward_iterator_tag+0x129>
  fd:	48 89 c7             	mov    rdi,rax
 100:	e8 00 00 00 00       	call   105 <_ZNSt7__cxx1112basic_stringIcSt11char_traitsIcESaIcEE12_M_constructIPcEEvT_S7_St20forward_iterator_tag+0x105>
 105:	48 8b 45 d8          	mov    rax,QWORD PTR [rbp-0x28]
 109:	48 89 c7             	mov    rdi,rax
 10c:	e8 00 00 00 00       	call   111 <_ZNSt7__cxx1112basic_stringIcSt11char_traitsIcESaIcEE12_M_constructIPcEEvT_S7_St20forward_iterator_tag+0x111>
 111:	e8 00 00 00 00       	call   116 <_ZNSt7__cxx1112basic_stringIcSt11char_traitsIcESaIcEE12_M_constructIPcEEvT_S7_St20forward_iterator_tag+0x116>
 116:	48 89 c3             	mov    rbx,rax
 119:	e8 00 00 00 00       	call   11e <_ZNSt7__cxx1112basic_stringIcSt11char_traitsIcESaIcEE12_M_constructIPcEEvT_S7_St20forward_iterator_tag+0x11e>
 11e:	48 89 d8             	mov    rax,rbx
 121:	48 89 c7             	mov    rdi,rax
 124:	e8 00 00 00 00       	call   129 <_ZNSt7__cxx1112basic_stringIcSt11char_traitsIcESaIcEE12_M_constructIPcEEvT_S7_St20forward_iterator_tag+0x129>
 129:	e8 00 00 00 00       	call   12e <_ZNSt7__cxx1112basic_stringIcSt11char_traitsIcESaIcEE12_M_constructIPcEEvT_S7_St20forward_iterator_tag+0x12e>
 12e:	48 83 c4 38          	add    rsp,0x38
 132:	5b                   	pop    rbx
 133:	5d                   	pop    rbp
 134:	c3                   	ret    

Desensamblado de la sección .text._ZN9__gnu_cxx17__is_null_pointerIcEEbPT_:

0000000000000000 <_ZN9__gnu_cxx17__is_null_pointerIcEEbPT_>:
   0:	55                   	push   rbp
   1:	48 89 e5             	mov    rbp,rsp
   4:	48 89 7d f8          	mov    QWORD PTR [rbp-0x8],rdi
   8:	48 83 7d f8 00       	cmp    QWORD PTR [rbp-0x8],0x0
   d:	0f 94 c0             	sete   al
  10:	5d                   	pop    rbp
  11:	c3                   	ret    

Desensamblado de la sección .text._ZSt8distanceIPcENSt15iterator_traitsIT_E15difference_typeES2_S2_:

0000000000000000 <_ZSt8distanceIPcENSt15iterator_traitsIT_E15difference_typeES2_S2_>:
   0:	55                   	push   rbp
   1:	48 89 e5             	mov    rbp,rsp
   4:	53                   	push   rbx
   5:	48 83 ec 28          	sub    rsp,0x28
   9:	48 89 7d d8          	mov    QWORD PTR [rbp-0x28],rdi
   d:	48 89 75 d0          	mov    QWORD PTR [rbp-0x30],rsi
  11:	64 48 8b 04 25 28 00 	mov    rax,QWORD PTR fs:0x28
  18:	00 00 
  1a:	48 89 45 e8          	mov    QWORD PTR [rbp-0x18],rax
  1e:	31 c0                	xor    eax,eax
  20:	48 8d 45 d8          	lea    rax,[rbp-0x28]
  24:	48 89 c7             	mov    rdi,rax
  27:	e8 00 00 00 00       	call   2c <_ZSt8distanceIPcENSt15iterator_traitsIT_E15difference_typeES2_S2_+0x2c>
  2c:	48 8b 45 d8          	mov    rax,QWORD PTR [rbp-0x28]
  30:	48 8b 55 d0          	mov    rdx,QWORD PTR [rbp-0x30]
  34:	48 83 ec 08          	sub    rsp,0x8
  38:	53                   	push   rbx
  39:	48 89 d6             	mov    rsi,rdx
  3c:	48 89 c7             	mov    rdi,rax
  3f:	e8 00 00 00 00       	call   44 <_ZSt8distanceIPcENSt15iterator_traitsIT_E15difference_typeES2_S2_+0x44>
  44:	48 83 c4 10          	add    rsp,0x10
  48:	48 8b 4d e8          	mov    rcx,QWORD PTR [rbp-0x18]
  4c:	64 48 33 0c 25 28 00 	xor    rcx,QWORD PTR fs:0x28
  53:	00 00 
  55:	74 05                	je     5c <_ZSt8distanceIPcENSt15iterator_traitsIT_E15difference_typeES2_S2_+0x5c>
  57:	e8 00 00 00 00       	call   5c <_ZSt8distanceIPcENSt15iterator_traitsIT_E15difference_typeES2_S2_+0x5c>
  5c:	48 8b 5d f8          	mov    rbx,QWORD PTR [rbp-0x8]
  60:	c9                   	leave  
  61:	c3                   	ret    

Desensamblado de la sección .text._ZSt19__iterator_categoryIPcENSt15iterator_traitsIT_E17iterator_categoryERKS2_:

0000000000000000 <_ZSt19__iterator_categoryIPcENSt15iterator_traitsIT_E17iterator_categoryERKS2_>:
   0:	55                   	push   rbp
   1:	48 89 e5             	mov    rbp,rsp
   4:	48 89 7d f8          	mov    QWORD PTR [rbp-0x8],rdi
   8:	5d                   	pop    rbp
   9:	c3                   	ret    

Desensamblado de la sección .text._ZSt10__distanceIPcENSt15iterator_traitsIT_E15difference_typeES2_S2_St26random_access_iterator_tag:

0000000000000000 <_ZSt10__distanceIPcENSt15iterator_traitsIT_E15difference_typeES2_S2_St26random_access_iterator_tag>:
   0:	55                   	push   rbp
   1:	48 89 e5             	mov    rbp,rsp
   4:	48 89 7d f8          	mov    QWORD PTR [rbp-0x8],rdi
   8:	48 89 75 f0          	mov    QWORD PTR [rbp-0x10],rsi
   c:	48 8b 55 f0          	mov    rdx,QWORD PTR [rbp-0x10]
  10:	48 8b 45 f8          	mov    rax,QWORD PTR [rbp-0x8]
  14:	48 29 c2             	sub    rdx,rax
  17:	48 89 d0             	mov    rax,rdx
  1a:	5d                   	pop    rbp
  1b:	c3                   	ret    

Desensamblado de la sección .init_array:

0000000000000000 <.init_array>:
	...

Desensamblado de la sección .comment:

0000000000000000 <.comment>:
   0:	00 47 43             	add    BYTE PTR [rdi+0x43],al
   3:	43 3a 20             	rex.XB cmp spl,BYTE PTR [r8]
   6:	28 55 62             	sub    BYTE PTR [rbp+0x62],dl
   9:	75 6e                	jne    79 <_ZN4mat2C1Eiif+0x13>
   b:	74 75                	je     82 <_ZN4mat2C1Eiif+0x1c>
   d:	20 35 2e 34 2e 30    	and    BYTE PTR [rip+0x302e342e],dh        # 302e3441 <_GLOBAL__sub_I__ZN4mat2C2Ev+0x302def5e>
  13:	2d 36 75 62 75       	sub    eax,0x75627536
  18:	6e                   	outs   dx,BYTE PTR ds:[rsi]
  19:	74 75                	je     90 <_ZN4mat2C1Eiif+0x2a>
  1b:	31 7e 31             	xor    DWORD PTR [rsi+0x31],edi
  1e:	36 2e 30 34 2e       	ss xor BYTE PTR cs:[rsi+rbp*1],dh
  23:	39 29                	cmp    DWORD PTR [rcx],ebp
  25:	20 35 2e 34 2e 30    	and    BYTE PTR [rip+0x302e342e],dh        # 302e3459 <_GLOBAL__sub_I__ZN4mat2C2Ev+0x302def76>
  2b:	20 32                	and    BYTE PTR [rdx],dh
  2d:	30 31                	xor    BYTE PTR [rcx],dh
  2f:	36 30 36             	xor    BYTE PTR ss:[rsi],dh
  32:	30 39                	xor    BYTE PTR [rcx],bh
	...

Desensamblado de la sección .eh_frame:

0000000000000000 <.eh_frame>:
   0:	14 00                	adc    al,0x0
   2:	00 00                	add    BYTE PTR [rax],al
   4:	00 00                	add    BYTE PTR [rax],al
   6:	00 00                	add    BYTE PTR [rax],al
   8:	01 7a 52             	add    DWORD PTR [rdx+0x52],edi
   b:	00 01                	add    BYTE PTR [rcx],al
   d:	78 10                	js     1f <.eh_frame+0x1f>
   f:	01 1b                	add    DWORD PTR [rbx],ebx
  11:	0c 07                	or     al,0x7
  13:	08 90 01 00 00 1c    	or     BYTE PTR [rax+0x1c000001],dl
  19:	00 00                	add    BYTE PTR [rax],al
  1b:	00 1c 00             	add    BYTE PTR [rax+rax*1],bl
  1e:	00 00                	add    BYTE PTR [rax],al
  20:	00 00                	add    BYTE PTR [rax],al
  22:	00 00                	add    BYTE PTR [rax],al
  24:	61                   	(bad)  
  25:	00 00                	add    BYTE PTR [rax],al
  27:	00 00                	add    BYTE PTR [rax],al
  29:	41 0e                	rex.B (bad) 
  2b:	10 86 02 43 0d 06    	adc    BYTE PTR [rsi+0x60d4302],al
  31:	02 5c 0c 07          	add    bl,BYTE PTR [rsp+rcx*1+0x7]
  35:	08 00                	or     BYTE PTR [rax],al
  37:	00 1c 00             	add    BYTE PTR [rax+rax*1],bl
  3a:	00 00                	add    BYTE PTR [rax],al
  3c:	3c 00                	cmp    al,0x0
  3e:	00 00                	add    BYTE PTR [rax],al
  40:	00 00                	add    BYTE PTR [rax],al
  42:	00 00                	add    BYTE PTR [rax],al
  44:	66 00 00             	data16 add BYTE PTR [rax],al
  47:	00 00                	add    BYTE PTR [rax],al
  49:	41 0e                	rex.B (bad) 
  4b:	10 86 02 43 0d 06    	adc    BYTE PTR [rsi+0x60d4302],al
  51:	02 61 0c             	add    ah,BYTE PTR [rcx+0xc]
  54:	07                   	(bad)  
  55:	08 00                	or     BYTE PTR [rax],al
  57:	00 1c 00             	add    BYTE PTR [rax+rax*1],bl
  5a:	00 00                	add    BYTE PTR [rax],al
  5c:	5c                   	pop    rsp
  5d:	00 00                	add    BYTE PTR [rax],al
  5f:	00 00                	add    BYTE PTR [rax],al
  61:	00 00                	add    BYTE PTR [rax],al
  63:	00 12                	add    BYTE PTR [rdx],dl
  65:	00 00                	add    BYTE PTR [rax],al
  67:	00 00                	add    BYTE PTR [rax],al
  69:	41 0e                	rex.B (bad) 
  6b:	10 86 02 43 0d 06    	adc    BYTE PTR [rsi+0x60d4302],al
  71:	4d 0c 07             	rex.WRB or al,0x7
  74:	08 00                	or     BYTE PTR [rax],al
  76:	00 00                	add    BYTE PTR [rax],al
  78:	1c 00                	sbb    al,0x0
  7a:	00 00                	add    BYTE PTR [rax],al
  7c:	7c 00                	jl     7e <.eh_frame+0x7e>
  7e:	00 00                	add    BYTE PTR [rax],al
  80:	00 00                	add    BYTE PTR [rax],al
  82:	00 00                	add    BYTE PTR [rax],al
  84:	2c 00                	sub    al,0x0
  86:	00 00                	add    BYTE PTR [rax],al
  88:	00 41 0e             	add    BYTE PTR [rcx+0xe],al
  8b:	10 86 02 43 0d 06    	adc    BYTE PTR [rsi+0x60d4302],al
  91:	67 0c 07             	addr32 or al,0x7
  94:	08 00                	or     BYTE PTR [rax],al
  96:	00 00                	add    BYTE PTR [rax],al
  98:	1c 00                	sbb    al,0x0
  9a:	00 00                	add    BYTE PTR [rax],al
  9c:	9c                   	pushf  
  9d:	00 00                	add    BYTE PTR [rax],al
  9f:	00 00                	add    BYTE PTR [rax],al
  a1:	00 00                	add    BYTE PTR [rax],al
  a3:	00 39                	add    BYTE PTR [rcx],bh
  a5:	00 00                	add    BYTE PTR [rax],al
  a7:	00 00                	add    BYTE PTR [rax],al
  a9:	41 0e                	rex.B (bad) 
  ab:	10 86 02 43 0d 06    	adc    BYTE PTR [rsi+0x60d4302],al
  b1:	74 0c                	je     bf <.eh_frame+0xbf>
  b3:	07                   	(bad)  
  b4:	08 00                	or     BYTE PTR [rax],al
  b6:	00 00                	add    BYTE PTR [rax],al
  b8:	1c 00                	sbb    al,0x0
  ba:	00 00                	add    BYTE PTR [rax],al
  bc:	bc 00 00 00 00       	mov    esp,0x0
  c1:	00 00                	add    BYTE PTR [rax],al
  c3:	00 45 00             	add    BYTE PTR [rbp+0x0],al
  c6:	00 00                	add    BYTE PTR [rax],al
  c8:	00 41 0e             	add    BYTE PTR [rcx+0xe],al
  cb:	10 86 02 43 0d 06    	adc    BYTE PTR [rsi+0x60d4302],al
  d1:	02 40 0c             	add    al,BYTE PTR [rax+0xc]
  d4:	07                   	(bad)  
  d5:	08 00                	or     BYTE PTR [rax],al
  d7:	00 1c 00             	add    BYTE PTR [rax+rax*1],bl
  da:	00 00                	add    BYTE PTR [rax],al
  dc:	dc 00                	fadd   QWORD PTR [rax]
  de:	00 00                	add    BYTE PTR [rax],al
  e0:	00 00                	add    BYTE PTR [rax],al
  e2:	00 00                	add    BYTE PTR [rax],al
  e4:	8b 00                	mov    eax,DWORD PTR [rax]
  e6:	00 00                	add    BYTE PTR [rax],al
  e8:	00 41 0e             	add    BYTE PTR [rcx+0xe],al
  eb:	10 86 02 43 0d 06    	adc    BYTE PTR [rsi+0x60d4302],al
  f1:	02 86 0c 07 08 00    	add    al,BYTE PTR [rsi+0x8070c]
  f7:	00 1c 00             	add    BYTE PTR [rax+rax*1],bl
  fa:	00 00                	add    BYTE PTR [rax],al
  fc:	fc                   	cld    
  fd:	00 00                	add    BYTE PTR [rax],al
  ff:	00 00                	add    BYTE PTR [rax],al
 101:	00 00                	add    BYTE PTR [rax],al
 103:	00 56 00             	add    BYTE PTR [rsi+0x0],dl
 106:	00 00                	add    BYTE PTR [rax],al
 108:	00 41 0e             	add    BYTE PTR [rcx+0xe],al
 10b:	10 86 02 43 0d 06    	adc    BYTE PTR [rsi+0x60d4302],al
 111:	02 51 0c             	add    dl,BYTE PTR [rcx+0xc]
 114:	07                   	(bad)  
 115:	08 00                	or     BYTE PTR [rax],al
 117:	00 1c 00             	add    BYTE PTR [rax+rax*1],bl
 11a:	00 00                	add    BYTE PTR [rax],al
 11c:	1c 01                	sbb    al,0x1
 11e:	00 00                	add    BYTE PTR [rax],al
 120:	00 00                	add    BYTE PTR [rax],al
 122:	00 00                	add    BYTE PTR [rax],al
 124:	41 00 00             	add    BYTE PTR [r8],al
 127:	00 00                	add    BYTE PTR [rax],al
 129:	41 0e                	rex.B (bad) 
 12b:	10 86 02 43 0d 06    	adc    BYTE PTR [rsi+0x60d4302],al
 131:	7c 0c                	jl     13f <.eh_frame+0x13f>
 133:	07                   	(bad)  
 134:	08 00                	or     BYTE PTR [rax],al
 136:	00 00                	add    BYTE PTR [rax],al
 138:	1c 00                	sbb    al,0x0
 13a:	00 00                	add    BYTE PTR [rax],al
 13c:	3c 01                	cmp    al,0x1
 13e:	00 00                	add    BYTE PTR [rax],al
 140:	00 00                	add    BYTE PTR [rax],al
 142:	00 00                	add    BYTE PTR [rax],al
 144:	a2 00 00 00 00 41 0e 	movabs ds:0x86100e4100000000,al
 14b:	10 86 
 14d:	02 43 0d             	add    al,BYTE PTR [rbx+0xd]
 150:	06                   	(bad)  
 151:	02 9d 0c 07 08 00    	add    bl,BYTE PTR [rbp+0x8070c]
 157:	00 1c 00             	add    BYTE PTR [rax+rax*1],bl
 15a:	00 00                	add    BYTE PTR [rax],al
 15c:	5c                   	pop    rsp
 15d:	01 00                	add    DWORD PTR [rax],eax
 15f:	00 00                	add    BYTE PTR [rax],al
 161:	00 00                	add    BYTE PTR [rax],al
 163:	00 67 00             	add    BYTE PTR [rdi+0x0],ah
 166:	00 00                	add    BYTE PTR [rax],al
 168:	00 41 0e             	add    BYTE PTR [rcx+0xe],al
 16b:	10 86 02 43 0d 06    	adc    BYTE PTR [rsi+0x60d4302],al
 171:	02 62 0c             	add    ah,BYTE PTR [rdx+0xc]
 174:	07                   	(bad)  
 175:	08 00                	or     BYTE PTR [rax],al
 177:	00 1c 00             	add    BYTE PTR [rax+rax*1],bl
 17a:	00 00                	add    BYTE PTR [rax],al
 17c:	7c 01                	jl     17f <.eh_frame+0x17f>
 17e:	00 00                	add    BYTE PTR [rax],al
 180:	00 00                	add    BYTE PTR [rax],al
 182:	00 00                	add    BYTE PTR [rax],al
 184:	36 00 00             	add    BYTE PTR ss:[rax],al
 187:	00 00                	add    BYTE PTR [rax],al
 189:	41 0e                	rex.B (bad) 
 18b:	10 86 02 43 0d 06    	adc    BYTE PTR [rsi+0x60d4302],al
 191:	71 0c                	jno    19f <.eh_frame+0x19f>
 193:	07                   	(bad)  
 194:	08 00                	or     BYTE PTR [rax],al
 196:	00 00                	add    BYTE PTR [rax],al
 198:	1c 00                	sbb    al,0x0
 19a:	00 00                	add    BYTE PTR [rax],al
 19c:	9c                   	pushf  
 19d:	01 00                	add    DWORD PTR [rax],eax
 19f:	00 00                	add    BYTE PTR [rax],al
 1a1:	00 00                	add    BYTE PTR [rax],al
 1a3:	00 19                	add    BYTE PTR [rcx],bl
 1a5:	00 00                	add    BYTE PTR [rax],al
 1a7:	00 00                	add    BYTE PTR [rax],al
 1a9:	41 0e                	rex.B (bad) 
 1ab:	10 86 02 43 0d 06    	adc    BYTE PTR [rsi+0x60d4302],al
 1b1:	54                   	push   rsp
 1b2:	0c 07                	or     al,0x7
 1b4:	08 00                	or     BYTE PTR [rax],al
 1b6:	00 00                	add    BYTE PTR [rax],al
 1b8:	1c 00                	sbb    al,0x0
 1ba:	00 00                	add    BYTE PTR [rax],al
 1bc:	bc 01 00 00 00       	mov    esp,0x1
 1c1:	00 00                	add    BYTE PTR [rax],al
 1c3:	00 19                	add    BYTE PTR [rcx],bl
 1c5:	00 00                	add    BYTE PTR [rax],al
 1c7:	00 00                	add    BYTE PTR [rax],al
 1c9:	41 0e                	rex.B (bad) 
 1cb:	10 86 02 43 0d 06    	adc    BYTE PTR [rsi+0x60d4302],al
 1d1:	54                   	push   rsp
 1d2:	0c 07                	or     al,0x7
 1d4:	08 00                	or     BYTE PTR [rax],al
 1d6:	00 00                	add    BYTE PTR [rax],al
 1d8:	1c 00                	sbb    al,0x0
 1da:	00 00                	add    BYTE PTR [rax],al
 1dc:	dc 01                	fadd   QWORD PTR [rcx]
 1de:	00 00                	add    BYTE PTR [rax],al
 1e0:	00 00                	add    BYTE PTR [rax],al
 1e2:	00 00                	add    BYTE PTR [rax],al
 1e4:	c2 00 00             	ret    0x0
 1e7:	00 00                	add    BYTE PTR [rax],al
 1e9:	41 0e                	rex.B (bad) 
 1eb:	10 86 02 43 0d 06    	adc    BYTE PTR [rsi+0x60d4302],al
 1f1:	02 bd 0c 07 08 00    	add    bh,BYTE PTR [rbp+0x8070c]
 1f7:	00 1c 00             	add    BYTE PTR [rax+rax*1],bl
 1fa:	00 00                	add    BYTE PTR [rax],al
 1fc:	fc                   	cld    
 1fd:	01 00                	add    DWORD PTR [rax],eax
 1ff:	00 00                	add    BYTE PTR [rax],al
 201:	00 00                	add    BYTE PTR [rax],al
 203:	00 36                	add    BYTE PTR [rsi],dh
 205:	00 00                	add    BYTE PTR [rax],al
 207:	00 00                	add    BYTE PTR [rax],al
 209:	41 0e                	rex.B (bad) 
 20b:	10 86 02 43 0d 06    	adc    BYTE PTR [rsi+0x60d4302],al
 211:	71 0c                	jno    21f <.eh_frame+0x21f>
 213:	07                   	(bad)  
 214:	08 00                	or     BYTE PTR [rax],al
 216:	00 00                	add    BYTE PTR [rax],al
 218:	1c 00                	sbb    al,0x0
 21a:	00 00                	add    BYTE PTR [rax],al
 21c:	1c 02                	sbb    al,0x2
 21e:	00 00                	add    BYTE PTR [rax],al
 220:	00 00                	add    BYTE PTR [rax],al
 222:	00 00                	add    BYTE PTR [rax],al
 224:	f7 00 00 00 00 41    	test   DWORD PTR [rax],0x41000000
 22a:	0e                   	(bad)  
 22b:	10 86 02 43 0d 06    	adc    BYTE PTR [rsi+0x60d4302],al
 231:	02 f2                	add    dh,dl
 233:	0c 07                	or     al,0x7
 235:	08 00                	or     BYTE PTR [rax],al
 237:	00 1c 00             	add    BYTE PTR [rax+rax*1],bl
 23a:	00 00                	add    BYTE PTR [rax],al
 23c:	3c 02                	cmp    al,0x2
 23e:	00 00                	add    BYTE PTR [rax],al
 240:	00 00                	add    BYTE PTR [rax],al
 242:	00 00                	add    BYTE PTR [rax],al
 244:	45 00 00             	add    BYTE PTR [r8],r8b
 247:	00 00                	add    BYTE PTR [rax],al
 249:	41 0e                	rex.B (bad) 
 24b:	10 86 02 43 0d 06    	adc    BYTE PTR [rsi+0x60d4302],al
 251:	02 40 0c             	add    al,BYTE PTR [rax+0xc]
 254:	07                   	(bad)  
 255:	08 00                	or     BYTE PTR [rax],al
 257:	00 1c 00             	add    BYTE PTR [rax+rax*1],bl
 25a:	00 00                	add    BYTE PTR [rax],al
 25c:	5c                   	pop    rsp
 25d:	02 00                	add    al,BYTE PTR [rax]
 25f:	00 00                	add    BYTE PTR [rax],al
 261:	00 00                	add    BYTE PTR [rax],al
 263:	00 24 00             	add    BYTE PTR [rax+rax*1],ah
 266:	00 00                	add    BYTE PTR [rax],al
 268:	00 41 0e             	add    BYTE PTR [rcx+0xe],al
 26b:	10 86 02 43 0d 06    	adc    BYTE PTR [rsi+0x60d4302],al
 271:	5f                   	pop    rdi
 272:	0c 07                	or     al,0x7
 274:	08 00                	or     BYTE PTR [rax],al
 276:	00 00                	add    BYTE PTR [rax],al
 278:	1c 00                	sbb    al,0x0
 27a:	00 00                	add    BYTE PTR [rax],al
 27c:	00 00                	add    BYTE PTR [rax],al
 27e:	00 00                	add    BYTE PTR [rax],al
 280:	01 7a 50             	add    DWORD PTR [rdx+0x50],edi
 283:	4c 52                	rex.WR push rdx
 285:	00 01                	add    BYTE PTR [rcx],al
 287:	78 10                	js     299 <.eh_frame+0x299>
 289:	07                   	(bad)  
 28a:	03 00                	add    eax,DWORD PTR [rax]
 28c:	00 00                	add    BYTE PTR [rax],al
 28e:	00 03                	add    BYTE PTR [rbx],al
 290:	1b 0c 07             	sbb    ecx,DWORD PTR [rdi+rax*1]
 293:	08 90 01 00 00 24    	or     BYTE PTR [rax+0x24000001],dl
 299:	00 00                	add    BYTE PTR [rax],al
 29b:	00 24 00             	add    BYTE PTR [rax+rax*1],ah
 29e:	00 00                	add    BYTE PTR [rax],al
 2a0:	00 00                	add    BYTE PTR [rax],al
 2a2:	00 00                	add    BYTE PTR [rax],al
 2a4:	c9                   	leave  
 2a5:	01 00                	add    DWORD PTR [rax],eax
 2a7:	00 04 00             	add    BYTE PTR [rax+rax*1],al
 2aa:	00 00                	add    BYTE PTR [rax],al
 2ac:	00 41 0e             	add    BYTE PTR [rcx+0xe],al
 2af:	10 86 02 43 0d 06    	adc    BYTE PTR [rsi+0x60d4302],al
 2b5:	45 83 03 03          	rex.RB add DWORD PTR [r11],0x3
 2b9:	bf 01 0c 07 08       	mov    edi,0x8070c01
 2be:	00 00                	add    BYTE PTR [rax],al
 2c0:	20 00                	and    BYTE PTR [rax],al
 2c2:	00 00                	add    BYTE PTR [rax],al
 2c4:	4c 00 00             	rex.WR add BYTE PTR [rax],r8b
 2c7:	00 00                	add    BYTE PTR [rax],al
 2c9:	00 00                	add    BYTE PTR [rax],al
 2cb:	00 5d 00             	add    BYTE PTR [rbp+0x0],bl
 2ce:	00 00                	add    BYTE PTR [rax],al
 2d0:	04 00                	add    al,0x0
 2d2:	00 00                	add    BYTE PTR [rax],al
 2d4:	00 41 0e             	add    BYTE PTR [rcx+0xe],al
 2d7:	10 86 02 43 0d 06    	adc    BYTE PTR [rsi+0x60d4302],al
 2dd:	02 58 0c             	add    bl,BYTE PTR [rax+0xc]
 2e0:	07                   	(bad)  
 2e1:	08 00                	or     BYTE PTR [rax],al
 2e3:	00 1c 00             	add    BYTE PTR [rax+rax*1],bl
 2e6:	00 00                	add    BYTE PTR [rax],al
 2e8:	e8 02 00 00 00       	call   2ef <.eh_frame+0x2ef>
 2ed:	00 00                	add    BYTE PTR [rax],al
 2ef:	00 5c 00 00          	add    BYTE PTR [rax+rax*1+0x0],bl
 2f3:	00 00                	add    BYTE PTR [rax],al
 2f5:	41 0e                	rex.B (bad) 
 2f7:	10 86 02 43 0d 06    	adc    BYTE PTR [rsi+0x60d4302],al
 2fd:	02 57 0c             	add    dl,BYTE PTR [rdi+0xc]
 300:	07                   	(bad)  
 301:	08 00                	or     BYTE PTR [rax],al
 303:	00 1c 00             	add    BYTE PTR [rax+rax*1],bl
 306:	00 00                	add    BYTE PTR [rax],al
 308:	08 03                	or     BYTE PTR [rbx],al
 30a:	00 00                	add    BYTE PTR [rax],al
 30c:	00 00                	add    BYTE PTR [rax],al
 30e:	00 00                	add    BYTE PTR [rax],al
 310:	61                   	(bad)  
 311:	00 00                	add    BYTE PTR [rax],al
 313:	00 00                	add    BYTE PTR [rax],al
 315:	41 0e                	rex.B (bad) 
 317:	10 86 02 43 0d 06    	adc    BYTE PTR [rsi+0x60d4302],al
 31d:	02 5c 0c 07          	add    bl,BYTE PTR [rsp+rcx*1+0x7]
 321:	08 00                	or     BYTE PTR [rax],al
 323:	00 1c 00             	add    BYTE PTR [rax+rax*1],bl
 326:	00 00                	add    BYTE PTR [rax],al
 328:	28 03                	sub    BYTE PTR [rbx],al
 32a:	00 00                	add    BYTE PTR [rax],al
 32c:	00 00                	add    BYTE PTR [rax],al
 32e:	00 00                	add    BYTE PTR [rax],al
 330:	59                   	pop    rcx
 331:	00 00                	add    BYTE PTR [rax],al
 333:	00 00                	add    BYTE PTR [rax],al
 335:	41 0e                	rex.B (bad) 
 337:	10 86 02 43 0d 06    	adc    BYTE PTR [rsi+0x60d4302],al
 33d:	02 54 0c 07          	add    dl,BYTE PTR [rsp+rcx*1+0x7]
 341:	08 00                	or     BYTE PTR [rax],al
 343:	00 1c 00             	add    BYTE PTR [rax+rax*1],bl
 346:	00 00                	add    BYTE PTR [rax],al
 348:	48 03 00             	add    rax,QWORD PTR [rax]
 34b:	00 00                	add    BYTE PTR [rax],al
 34d:	00 00                	add    BYTE PTR [rax],al
 34f:	00 56 00             	add    BYTE PTR [rsi+0x0],dl
 352:	00 00                	add    BYTE PTR [rax],al
 354:	00 41 0e             	add    BYTE PTR [rcx+0xe],al
 357:	10 86 02 43 0d 06    	adc    BYTE PTR [rsi+0x60d4302],al
 35d:	02 51 0c             	add    dl,BYTE PTR [rcx+0xc]
 360:	07                   	(bad)  
 361:	08 00                	or     BYTE PTR [rax],al
 363:	00 1c 00             	add    BYTE PTR [rax+rax*1],bl
 366:	00 00                	add    BYTE PTR [rax],al
 368:	68 03 00 00 00       	push   0x3
 36d:	00 00                	add    BYTE PTR [rax],al
 36f:	00 79 00             	add    BYTE PTR [rcx+0x0],bh
 372:	00 00                	add    BYTE PTR [rax],al
 374:	00 41 0e             	add    BYTE PTR [rcx+0xe],al
 377:	10 86 02 43 0d 06    	adc    BYTE PTR [rsi+0x60d4302],al
 37d:	02 74 0c 07          	add    dh,BYTE PTR [rsp+rcx*1+0x7]
 381:	08 00                	or     BYTE PTR [rax],al
 383:	00 1c 00             	add    BYTE PTR [rax+rax*1],bl
 386:	00 00                	add    BYTE PTR [rax],al
 388:	88 03                	mov    BYTE PTR [rbx],al
 38a:	00 00                	add    BYTE PTR [rax],al
 38c:	00 00                	add    BYTE PTR [rax],al
 38e:	00 00                	add    BYTE PTR [rax],al
 390:	79 00                	jns    392 <.eh_frame+0x392>
 392:	00 00                	add    BYTE PTR [rax],al
 394:	00 41 0e             	add    BYTE PTR [rcx+0xe],al
 397:	10 86 02 43 0d 06    	adc    BYTE PTR [rsi+0x60d4302],al
 39d:	02 74 0c 07          	add    dh,BYTE PTR [rsp+rcx*1+0x7]
 3a1:	08 00                	or     BYTE PTR [rax],al
 3a3:	00 1c 00             	add    BYTE PTR [rax+rax*1],bl
 3a6:	00 00                	add    BYTE PTR [rax],al
 3a8:	a8 03                	test   al,0x3
 3aa:	00 00                	add    BYTE PTR [rax],al
 3ac:	00 00                	add    BYTE PTR [rax],al
 3ae:	00 00                	add    BYTE PTR [rax],al
 3b0:	79 00                	jns    3b2 <.eh_frame+0x3b2>
 3b2:	00 00                	add    BYTE PTR [rax],al
 3b4:	00 41 0e             	add    BYTE PTR [rcx+0xe],al
 3b7:	10 86 02 43 0d 06    	adc    BYTE PTR [rsi+0x60d4302],al
 3bd:	02 74 0c 07          	add    dh,BYTE PTR [rsp+rcx*1+0x7]
 3c1:	08 00                	or     BYTE PTR [rax],al
 3c3:	00 1c 00             	add    BYTE PTR [rax+rax*1],bl
 3c6:	00 00                	add    BYTE PTR [rax],al
 3c8:	c8 03 00 00          	enter  0x3,0x0
 3cc:	00 00                	add    BYTE PTR [rax],al
 3ce:	00 00                	add    BYTE PTR [rax],al
 3d0:	79 00                	jns    3d2 <.eh_frame+0x3d2>
 3d2:	00 00                	add    BYTE PTR [rax],al
 3d4:	00 41 0e             	add    BYTE PTR [rcx+0xe],al
 3d7:	10 86 02 43 0d 06    	adc    BYTE PTR [rsi+0x60d4302],al
 3dd:	02 74 0c 07          	add    dh,BYTE PTR [rsp+rcx*1+0x7]
 3e1:	08 00                	or     BYTE PTR [rax],al
 3e3:	00 1c 00             	add    BYTE PTR [rax+rax*1],bl
 3e6:	00 00                	add    BYTE PTR [rax],al
 3e8:	e8 03 00 00 00       	call   3f0 <.eh_frame+0x3f0>
 3ed:	00 00                	add    BYTE PTR [rax],al
 3ef:	00 79 00             	add    BYTE PTR [rcx+0x0],bh
 3f2:	00 00                	add    BYTE PTR [rax],al
 3f4:	00 41 0e             	add    BYTE PTR [rcx+0xe],al
 3f7:	10 86 02 43 0d 06    	adc    BYTE PTR [rsi+0x60d4302],al
 3fd:	02 74 0c 07          	add    dh,BYTE PTR [rsp+rcx*1+0x7]
 401:	08 00                	or     BYTE PTR [rax],al
 403:	00 1c 00             	add    BYTE PTR [rax+rax*1],bl
 406:	00 00                	add    BYTE PTR [rax],al
 408:	08 04 00             	or     BYTE PTR [rax+rax*1],al
 40b:	00 00                	add    BYTE PTR [rax],al
 40d:	00 00                	add    BYTE PTR [rax],al
 40f:	00 31                	add    BYTE PTR [rcx],dh
 411:	00 00                	add    BYTE PTR [rax],al
 413:	00 00                	add    BYTE PTR [rax],al
 415:	41 0e                	rex.B (bad) 
 417:	10 86 02 43 0d 06    	adc    BYTE PTR [rsi+0x60d4302],al
 41d:	6c                   	ins    BYTE PTR es:[rdi],dx
 41e:	0c 07                	or     al,0x7
 420:	08 00                	or     BYTE PTR [rax],al
 422:	00 00                	add    BYTE PTR [rax],al
 424:	1c 00                	sbb    al,0x0
 426:	00 00                	add    BYTE PTR [rax],al
 428:	28 04 00             	sub    BYTE PTR [rax+rax*1],al
 42b:	00 00                	add    BYTE PTR [rax],al
 42d:	00 00                	add    BYTE PTR [rax],al
 42f:	00 2e                	add    BYTE PTR [rsi],ch
 431:	00 00                	add    BYTE PTR [rax],al
 433:	00 00                	add    BYTE PTR [rax],al
 435:	41 0e                	rex.B (bad) 
 437:	10 86 02 43 0d 06    	adc    BYTE PTR [rsi+0x60d4302],al
 43d:	69 0c 07 08 00 00 00 	imul   ecx,DWORD PTR [rdi+rax*1],0x8
 444:	1c 00                	sbb    al,0x0
 446:	00 00                	add    BYTE PTR [rax],al
 448:	48 04 00             	rex.W add al,0x0
 44b:	00 00                	add    BYTE PTR [rax],al
 44d:	00 00                	add    BYTE PTR [rax],al
 44f:	00 1f                	add    BYTE PTR [rdi],bl
 451:	00 00                	add    BYTE PTR [rax],al
 453:	00 00                	add    BYTE PTR [rax],al
 455:	41 0e                	rex.B (bad) 
 457:	10 86 02 43 0d 06    	adc    BYTE PTR [rsi+0x60d4302],al
 45d:	5a                   	pop    rdx
 45e:	0c 07                	or     al,0x7
 460:	08 00                	or     BYTE PTR [rax],al
 462:	00 00                	add    BYTE PTR [rax],al
 464:	1c 00                	sbb    al,0x0
 466:	00 00                	add    BYTE PTR [rax],al
 468:	68 04 00 00 00       	push   0x4
 46d:	00 00                	add    BYTE PTR [rax],al
 46f:	00 29                	add    BYTE PTR [rcx],ch
 471:	00 00                	add    BYTE PTR [rax],al
 473:	00 00                	add    BYTE PTR [rax],al
 475:	41 0e                	rex.B (bad) 
 477:	10 86 02 43 0d 06    	adc    BYTE PTR [rsi+0x60d4302],al
 47d:	64 0c 07             	fs or  al,0x7
 480:	08 00                	or     BYTE PTR [rax],al
 482:	00 00                	add    BYTE PTR [rax],al
 484:	24 00                	and    al,0x0
 486:	00 00                	add    BYTE PTR [rax],al
 488:	10 02                	adc    BYTE PTR [rdx],al
 48a:	00 00                	add    BYTE PTR [rax],al
 48c:	00 00                	add    BYTE PTR [rax],al
 48e:	00 00                	add    BYTE PTR [rax],al
 490:	c9                   	leave  
 491:	04 00                	add    al,0x0
 493:	00 04 00             	add    BYTE PTR [rax+rax*1],al
 496:	00 00                	add    BYTE PTR [rax],al
 498:	00 41 0e             	add    BYTE PTR [rcx+0xe],al
 49b:	10 86 02 43 0d 06    	adc    BYTE PTR [rsi+0x60d4302],al
 4a1:	45 83 03 03          	rex.RB add DWORD PTR [r11],0x3
 4a5:	bf 04 0c 07 08       	mov    edi,0x8070c04
 4aa:	00 00                	add    BYTE PTR [rax],al
 4ac:	24 00                	and    al,0x0
 4ae:	00 00                	add    BYTE PTR [rax],al
 4b0:	38 02                	cmp    BYTE PTR [rdx],al
 4b2:	00 00                	add    BYTE PTR [rax],al
 4b4:	00 00                	add    BYTE PTR [rax],al
 4b6:	00 00                	add    BYTE PTR [rax],al
 4b8:	32 04 00             	xor    al,BYTE PTR [rax+rax*1]
 4bb:	00 04 00             	add    BYTE PTR [rax+rax*1],al
 4be:	00 00                	add    BYTE PTR [rax],al
 4c0:	00 41 0e             	add    BYTE PTR [rcx+0xe],al
 4c3:	10 86 02 43 0d 06    	adc    BYTE PTR [rsi+0x60d4302],al
 4c9:	48 83 03 03          	add    QWORD PTR [rbx],0x3
 4cd:	25 04 0c 07 08       	and    eax,0x8070c04
 4d2:	00 00                	add    BYTE PTR [rax],al
 4d4:	1c 00                	sbb    al,0x0
 4d6:	00 00                	add    BYTE PTR [rax],al
 4d8:	d8 04 00             	fadd   DWORD PTR [rax+rax*1]
 4db:	00 00                	add    BYTE PTR [rax],al
 4dd:	00 00                	add    BYTE PTR [rax],al
 4df:	00 ad 00 00 00 00    	add    BYTE PTR [rbp+0x0],ch
 4e5:	41 0e                	rex.B (bad) 
 4e7:	10 86 02 43 0d 06    	adc    BYTE PTR [rsi+0x60d4302],al
 4ed:	02 a8 0c 07 08 00    	add    ch,BYTE PTR [rax+0x8070c]
 4f3:	00 1c 00             	add    BYTE PTR [rax+rax*1],bl
 4f6:	00 00                	add    BYTE PTR [rax],al
 4f8:	f8                   	clc    
 4f9:	04 00                	add    al,0x0
 4fb:	00 00                	add    BYTE PTR [rax],al
 4fd:	00 00                	add    BYTE PTR [rax],al
 4ff:	00 43 03             	add    BYTE PTR [rbx+0x3],al
 502:	00 00                	add    BYTE PTR [rax],al
 504:	00 41 0e             	add    BYTE PTR [rcx+0xe],al
 507:	10 86 02 43 0d 06    	adc    BYTE PTR [rsi+0x60d4302],al
 50d:	03 3e                	add    edi,DWORD PTR [rsi]
 50f:	03 0c 07             	add    ecx,DWORD PTR [rdi+rax*1]
 512:	08 00                	or     BYTE PTR [rax],al
 514:	1c 00                	sbb    al,0x0
 516:	00 00                	add    BYTE PTR [rax],al
 518:	18 05 00 00 00 00    	sbb    BYTE PTR [rip+0x0],al        # 51e <.eh_frame+0x51e>
 51e:	00 00                	add    BYTE PTR [rax],al
 520:	08 02                	or     BYTE PTR [rdx],al
 522:	00 00                	add    BYTE PTR [rax],al
 524:	00 41 0e             	add    BYTE PTR [rcx+0xe],al
 527:	10 86 02 43 0d 06    	adc    BYTE PTR [rsi+0x60d4302],al
 52d:	03 03                	add    eax,DWORD PTR [rbx]
 52f:	02 0c 07             	add    cl,BYTE PTR [rdi+rax*1]
 532:	08 00                	or     BYTE PTR [rax],al
 534:	1c 00                	sbb    al,0x0
 536:	00 00                	add    BYTE PTR [rax],al
 538:	38 05 00 00 00 00    	cmp    BYTE PTR [rip+0x0],al        # 53e <.eh_frame+0x53e>
 53e:	00 00                	add    BYTE PTR [rax],al
 540:	51                   	push   rcx
 541:	09 00                	or     DWORD PTR [rax],eax
 543:	00 00                	add    BYTE PTR [rax],al
 545:	41 0e                	rex.B (bad) 
 547:	10 86 02 43 0d 06    	adc    BYTE PTR [rsi+0x60d4302],al
 54d:	03 4c 09 0c          	add    ecx,DWORD PTR [rcx+rcx*1+0xc]
 551:	07                   	(bad)  
 552:	08 00                	or     BYTE PTR [rax],al
 554:	1c 00                	sbb    al,0x0
 556:	00 00                	add    BYTE PTR [rax],al
 558:	58                   	pop    rax
 559:	05 00 00 00 00       	add    eax,0x0
 55e:	00 00                	add    BYTE PTR [rax],al
 560:	0f 0d 00             	prefetch BYTE PTR [rax]
 563:	00 00                	add    BYTE PTR [rax],al
 565:	41 0e                	rex.B (bad) 
 567:	10 86 02 43 0d 06    	adc    BYTE PTR [rsi+0x60d4302],al
 56d:	03 0a                	add    ecx,DWORD PTR [rdx]
 56f:	0d 0c 07 08 00       	or     eax,0x8070c
 574:	24 00                	and    al,0x0
 576:	00 00                	add    BYTE PTR [rax],al
 578:	00 03                	add    BYTE PTR [rbx],al
 57a:	00 00                	add    BYTE PTR [rax],al
 57c:	00 00                	add    BYTE PTR [rax],al
 57e:	00 00                	add    BYTE PTR [rax],al
 580:	c9                   	leave  
 581:	0a 00                	or     al,BYTE PTR [rax]
 583:	00 04 00             	add    BYTE PTR [rax+rax*1],al
 586:	00 00                	add    BYTE PTR [rax],al
 588:	00 41 0e             	add    BYTE PTR [rcx+0xe],al
 58b:	10 86 02 43 0d 06    	adc    BYTE PTR [rsi+0x60d4302],al
 591:	48 83 03 03          	add    QWORD PTR [rbx],0x3
 595:	bc 0a 0c 07 08       	mov    esp,0x8070c0a
 59a:	00 00                	add    BYTE PTR [rax],al
 59c:	24 00                	and    al,0x0
 59e:	00 00                	add    BYTE PTR [rax],al
 5a0:	28 03                	sub    BYTE PTR [rbx],al
 5a2:	00 00                	add    BYTE PTR [rax],al
 5a4:	00 00                	add    BYTE PTR [rax],al
 5a6:	00 00                	add    BYTE PTR [rax],al
 5a8:	6b 05 00 00 04 00 00 	imul   eax,DWORD PTR [rip+0x40000],0x0        # 405af <_GLOBAL__sub_I__ZN4mat2C2Ev+0x3c0cc>
 5af:	00 00                	add    BYTE PTR [rax],al
 5b1:	41 0e                	rex.B (bad) 
 5b3:	10 86 02 43 0d 06    	adc    BYTE PTR [rsi+0x60d4302],al
 5b9:	48 83 03 03          	add    QWORD PTR [rbx],0x3
 5bd:	5e                   	pop    rsi
 5be:	05 0c 07 08 00       	add    eax,0x8070c
 5c3:	00 1c 00             	add    BYTE PTR [rax+rax*1],bl
 5c6:	00 00                	add    BYTE PTR [rax],al
 5c8:	c8 05 00 00          	enter  0x5,0x0
 5cc:	00 00                	add    BYTE PTR [rax],al
 5ce:	00 00                	add    BYTE PTR [rax],al
 5d0:	d3 01                	rol    DWORD PTR [rcx],cl
 5d2:	00 00                	add    BYTE PTR [rax],al
 5d4:	00 41 0e             	add    BYTE PTR [rcx+0xe],al
 5d7:	10 86 02 43 0d 06    	adc    BYTE PTR [rsi+0x60d4302],al
 5dd:	03 ce                	add    ecx,esi
 5df:	01 0c 07             	add    DWORD PTR [rdi+rax*1],ecx
 5e2:	08 00                	or     BYTE PTR [rax],al
 5e4:	1c 00                	sbb    al,0x0
 5e6:	00 00                	add    BYTE PTR [rax],al
 5e8:	e8 05 00 00 00       	call   5f2 <.eh_frame+0x5f2>
 5ed:	00 00                	add    BYTE PTR [rax],al
 5ef:	00 33                	add    BYTE PTR [rbx],dh
 5f1:	00 00                	add    BYTE PTR [rax],al
 5f3:	00 00                	add    BYTE PTR [rax],al
 5f5:	41 0e                	rex.B (bad) 
 5f7:	10 86 02 43 0d 06    	adc    BYTE PTR [rsi+0x60d4302],al
 5fd:	6e                   	outs   dx,BYTE PTR ds:[rsi]
 5fe:	0c 07                	or     al,0x7
 600:	08 00                	or     BYTE PTR [rax],al
 602:	00 00                	add    BYTE PTR [rax],al
 604:	1c 00                	sbb    al,0x0
 606:	00 00                	add    BYTE PTR [rax],al
 608:	08 06                	or     BYTE PTR [rsi],al
 60a:	00 00                	add    BYTE PTR [rax],al
 60c:	00 00                	add    BYTE PTR [rax],al
 60e:	00 00                	add    BYTE PTR [rax],al
 610:	f2 00 00             	repnz add BYTE PTR [rax],al
 613:	00 00                	add    BYTE PTR [rax],al
 615:	41 0e                	rex.B (bad) 
 617:	10 86 02 43 0d 06    	adc    BYTE PTR [rsi+0x60d4302],al
 61d:	02 ed                	add    ch,ch
 61f:	0c 07                	or     al,0x7
 621:	08 00                	or     BYTE PTR [rax],al
 623:	00 1c 00             	add    BYTE PTR [rax+rax*1],bl
 626:	00 00                	add    BYTE PTR [rax],al
 628:	28 06                	sub    BYTE PTR [rsi],al
 62a:	00 00                	add    BYTE PTR [rax],al
 62c:	00 00                	add    BYTE PTR [rax],al
 62e:	00 00                	add    BYTE PTR [rax],al
 630:	b1 00                	mov    cl,0x0
 632:	00 00                	add    BYTE PTR [rax],al
 634:	00 41 0e             	add    BYTE PTR [rcx+0xe],al
 637:	10 86 02 43 0d 06    	adc    BYTE PTR [rsi+0x60d4302],al
 63d:	02 ac 0c 07 08 00 00 	add    ch,BYTE PTR [rsp+rcx*1+0x807]
 644:	24 00                	and    al,0x0
 646:	00 00                	add    BYTE PTR [rax],al
 648:	d0 03                	rol    BYTE PTR [rbx],1
 64a:	00 00                	add    BYTE PTR [rax],al
 64c:	00 00                	add    BYTE PTR [rax],al
 64e:	00 00                	add    BYTE PTR [rax],al
 650:	8a 00                	mov    al,BYTE PTR [rax]
 652:	00 00                	add    BYTE PTR [rax],al
 654:	04 00                	add    al,0x0
 656:	00 00                	add    BYTE PTR [rax],al
 658:	00 41 0e             	add    BYTE PTR [rcx+0xe],al
 65b:	10 86 02 43 0d 06    	adc    BYTE PTR [rsi+0x60d4302],al
 661:	48 83 03 02          	add    QWORD PTR [rbx],0x2
 665:	7d 0c                	jge    673 <.eh_frame+0x673>
 667:	07                   	(bad)  
 668:	08 00                	or     BYTE PTR [rax],al
 66a:	00 00                	add    BYTE PTR [rax],al
 66c:	24 00                	and    al,0x0
 66e:	00 00                	add    BYTE PTR [rax],al
 670:	f8                   	clc    
 671:	03 00                	add    eax,DWORD PTR [rax]
 673:	00 00                	add    BYTE PTR [rax],al
 675:	00 00                	add    BYTE PTR [rax],al
 677:	00 a0 01 00 00 04    	add    BYTE PTR [rax+0x4000001],ah
 67d:	00 00                	add    BYTE PTR [rax],al
 67f:	00 00                	add    BYTE PTR [rax],al
 681:	41 0e                	rex.B (bad) 
 683:	10 86 02 43 0d 06    	adc    BYTE PTR [rsi+0x60d4302],al
 689:	48 83 03 03          	add    QWORD PTR [rbx],0x3
 68d:	93                   	xchg   ebx,eax
 68e:	01 0c 07             	add    DWORD PTR [rdi+rax*1],ecx
 691:	08 00                	or     BYTE PTR [rax],al
 693:	00 1c 00             	add    BYTE PTR [rax+rax*1],bl
 696:	00 00                	add    BYTE PTR [rax],al
 698:	98                   	cwde   
 699:	06                   	(bad)  
 69a:	00 00                	add    BYTE PTR [rax],al
 69c:	00 00                	add    BYTE PTR [rax],al
 69e:	00 00                	add    BYTE PTR [rax],al
 6a0:	1b 00                	sbb    eax,DWORD PTR [rax]
 6a2:	00 00                	add    BYTE PTR [rax],al
 6a4:	00 41 0e             	add    BYTE PTR [rcx+0xe],al
 6a7:	10 86 02 43 0d 06    	adc    BYTE PTR [rsi+0x60d4302],al
 6ad:	56                   	push   rsi
 6ae:	0c 07                	or     al,0x7
 6b0:	08 00                	or     BYTE PTR [rax],al
 6b2:	00 00                	add    BYTE PTR [rax],al
 6b4:	1c 00                	sbb    al,0x0
 6b6:	00 00                	add    BYTE PTR [rax],al
 6b8:	b8 06 00 00 00       	mov    eax,0x6
 6bd:	00 00                	add    BYTE PTR [rax],al
 6bf:	00 0e                	add    BYTE PTR [rsi],cl
 6c1:	00 00                	add    BYTE PTR [rax],al
 6c3:	00 00                	add    BYTE PTR [rax],al
 6c5:	41 0e                	rex.B (bad) 
 6c7:	10 86 02 43 0d 06    	adc    BYTE PTR [rsi+0x60d4302],al
 6cd:	49 0c 07             	rex.WB or al,0x7
 6d0:	08 00                	or     BYTE PTR [rax],al
 6d2:	00 00                	add    BYTE PTR [rax],al
 6d4:	20 00                	and    BYTE PTR [rax],al
 6d6:	00 00                	add    BYTE PTR [rax],al
 6d8:	d8 06                	fadd   DWORD PTR [rsi]
 6da:	00 00                	add    BYTE PTR [rax],al
 6dc:	00 00                	add    BYTE PTR [rax],al
 6de:	00 00                	add    BYTE PTR [rax],al
 6e0:	ca 00 00             	retf   0x0
 6e3:	00 00                	add    BYTE PTR [rax],al
 6e5:	41 0e                	rex.B (bad) 
 6e7:	10 86 02 43 0d 06    	adc    BYTE PTR [rsi+0x60d4302],al
 6ed:	45 83 03 02          	rex.RB add DWORD PTR [r11],0x2
 6f1:	c0 0c 07 08          	ror    BYTE PTR [rdi+rax*1],0x8
 6f5:	00 00                	add    BYTE PTR [rax],al
 6f7:	00 1c 00             	add    BYTE PTR [rax+rax*1],bl
 6fa:	00 00                	add    BYTE PTR [rax],al
 6fc:	fc                   	cld    
 6fd:	06                   	(bad)  
 6fe:	00 00                	add    BYTE PTR [rax],al
 700:	00 00                	add    BYTE PTR [rax],al
 702:	00 00                	add    BYTE PTR [rax],al
 704:	49 00 00             	rex.WB add BYTE PTR [r8],al
 707:	00 00                	add    BYTE PTR [rax],al
 709:	41 0e                	rex.B (bad) 
 70b:	10 86 02 43 0d 06    	adc    BYTE PTR [rsi+0x60d4302],al
 711:	02 44 0c 07          	add    al,BYTE PTR [rsp+rcx*1+0x7]
 715:	08 00                	or     BYTE PTR [rax],al
 717:	00 1c 00             	add    BYTE PTR [rax+rax*1],bl
 71a:	00 00                	add    BYTE PTR [rax],al
 71c:	1c 07                	sbb    al,0x7
 71e:	00 00                	add    BYTE PTR [rax],al
 720:	00 00                	add    BYTE PTR [rax],al
 722:	00 00                	add    BYTE PTR [rax],al
 724:	2a 00                	sub    al,BYTE PTR [rax]
 726:	00 00                	add    BYTE PTR [rax],al
 728:	00 41 0e             	add    BYTE PTR [rcx+0xe],al
 72b:	10 86 02 43 0d 06    	adc    BYTE PTR [rsi+0x60d4302],al
 731:	65 0c 07             	gs or  al,0x7
 734:	08 00                	or     BYTE PTR [rax],al
 736:	00 00                	add    BYTE PTR [rax],al
 738:	1c 00                	sbb    al,0x0
 73a:	00 00                	add    BYTE PTR [rax],al
 73c:	3c 07                	cmp    al,0x7
 73e:	00 00                	add    BYTE PTR [rax],al
 740:	00 00                	add    BYTE PTR [rax],al
 742:	00 00                	add    BYTE PTR [rax],al
 744:	47 00 00             	rex.RXB add BYTE PTR [r8],r8b
 747:	00 00                	add    BYTE PTR [rax],al
 749:	41 0e                	rex.B (bad) 
 74b:	10 86 02 43 0d 06    	adc    BYTE PTR [rsi+0x60d4302],al
 751:	02 42 0c             	add    al,BYTE PTR [rdx+0xc]
 754:	07                   	(bad)  
 755:	08 00                	or     BYTE PTR [rax],al
 757:	00 1c 00             	add    BYTE PTR [rax+rax*1],bl
 75a:	00 00                	add    BYTE PTR [rax],al
 75c:	5c                   	pop    rsp
 75d:	07                   	(bad)  
 75e:	00 00                	add    BYTE PTR [rax],al
 760:	00 00                	add    BYTE PTR [rax],al
 762:	00 00                	add    BYTE PTR [rax],al
 764:	2d 00 00 00 00       	sub    eax,0x0
 769:	41 0e                	rex.B (bad) 
 76b:	10 86 02 43 0d 06    	adc    BYTE PTR [rsi+0x60d4302],al
 771:	68 0c 07 08 00       	push   0x8070c
 776:	00 00                	add    BYTE PTR [rax],al
 778:	24 00                	and    al,0x0
 77a:	00 00                	add    BYTE PTR [rax],al
 77c:	04 05                	add    al,0x5
 77e:	00 00                	add    BYTE PTR [rax],al
 780:	00 00                	add    BYTE PTR [rax],al
 782:	00 00                	add    BYTE PTR [rax],al
 784:	75 00                	jne    786 <.eh_frame+0x786>
 786:	00 00                	add    BYTE PTR [rax],al
 788:	04 00                	add    al,0x0
 78a:	00 00                	add    BYTE PTR [rax],al
 78c:	00 41 0e             	add    BYTE PTR [rcx+0xe],al
 78f:	10 86 02 43 0d 06    	adc    BYTE PTR [rsi+0x60d4302],al
 795:	45 83 03 02          	rex.RB add DWORD PTR [r11],0x2
 799:	6b 0c 07 08          	imul   ecx,DWORD PTR [rdi+rax*1],0x8
 79d:	00 00                	add    BYTE PTR [rax],al
 79f:	00 1c 00             	add    BYTE PTR [rax+rax*1],bl
 7a2:	00 00                	add    BYTE PTR [rax],al
 7a4:	a4                   	movs   BYTE PTR es:[rdi],BYTE PTR ds:[rsi]
 7a5:	07                   	(bad)  
 7a6:	00 00                	add    BYTE PTR [rax],al
 7a8:	00 00                	add    BYTE PTR [rax],al
 7aa:	00 00                	add    BYTE PTR [rax],al
 7ac:	5b                   	pop    rbx
 7ad:	00 00                	add    BYTE PTR [rax],al
 7af:	00 00                	add    BYTE PTR [rax],al
 7b1:	41 0e                	rex.B (bad) 
 7b3:	10 86 02 43 0d 06    	adc    BYTE PTR [rsi+0x60d4302],al
 7b9:	02 56 0c             	add    dl,BYTE PTR [rsi+0xc]
 7bc:	07                   	(bad)  
 7bd:	08 00                	or     BYTE PTR [rax],al
 7bf:	00 1c 00             	add    BYTE PTR [rax+rax*1],bl
 7c2:	00 00                	add    BYTE PTR [rax],al
 7c4:	c4                   	(bad)  
 7c5:	07                   	(bad)  
 7c6:	00 00                	add    BYTE PTR [rax],al
 7c8:	00 00                	add    BYTE PTR [rax],al
 7ca:	00 00                	add    BYTE PTR [rax],al
 7cc:	5b                   	pop    rbx
 7cd:	00 00                	add    BYTE PTR [rax],al
 7cf:	00 00                	add    BYTE PTR [rax],al
 7d1:	41 0e                	rex.B (bad) 
 7d3:	10 86 02 43 0d 06    	adc    BYTE PTR [rsi+0x60d4302],al
 7d9:	02 56 0c             	add    dl,BYTE PTR [rsi+0xc]
 7dc:	07                   	(bad)  
 7dd:	08 00                	or     BYTE PTR [rax],al
 7df:	00 24 00             	add    BYTE PTR [rax+rax*1],ah
 7e2:	00 00                	add    BYTE PTR [rax],al
 7e4:	6c                   	ins    BYTE PTR es:[rdi],dx
 7e5:	05 00 00 00 00       	add    eax,0x0
 7ea:	00 00                	add    BYTE PTR [rax],al
 7ec:	35 01 00 00 04       	xor    eax,0x4000001
 7f1:	00 00                	add    BYTE PTR [rax],al
 7f3:	00 00                	add    BYTE PTR [rax],al
 7f5:	41 0e                	rex.B (bad) 
 7f7:	10 86 02 43 0d 06    	adc    BYTE PTR [rsi+0x60d4302],al
 7fd:	45 83 03 03          	rex.RB add DWORD PTR [r11],0x3
 801:	2b 01                	sub    eax,DWORD PTR [rcx]
 803:	0c 07                	or     al,0x7
 805:	08 00                	or     BYTE PTR [rax],al
 807:	00 1c 00             	add    BYTE PTR [rax+rax*1],bl
 80a:	00 00                	add    BYTE PTR [rax],al
 80c:	0c 08                	or     al,0x8
 80e:	00 00                	add    BYTE PTR [rax],al
 810:	00 00                	add    BYTE PTR [rax],al
 812:	00 00                	add    BYTE PTR [rax],al
 814:	12 00                	adc    al,BYTE PTR [rax]
 816:	00 00                	add    BYTE PTR [rax],al
 818:	00 41 0e             	add    BYTE PTR [rcx+0xe],al
 81b:	10 86 02 43 0d 06    	adc    BYTE PTR [rsi+0x60d4302],al
 821:	4d 0c 07             	rex.WRB or al,0x7
 824:	08 00                	or     BYTE PTR [rax],al
 826:	00 00                	add    BYTE PTR [rax],al
 828:	20 00                	and    BYTE PTR [rax],al
 82a:	00 00                	add    BYTE PTR [rax],al
 82c:	2c 08                	sub    al,0x8
 82e:	00 00                	add    BYTE PTR [rax],al
 830:	00 00                	add    BYTE PTR [rax],al
 832:	00 00                	add    BYTE PTR [rax],al
 834:	62                   	(bad)  
 835:	00 00                	add    BYTE PTR [rax],al
 837:	00 00                	add    BYTE PTR [rax],al
 839:	41 0e                	rex.B (bad) 
 83b:	10 86 02 43 0d 06    	adc    BYTE PTR [rsi+0x60d4302],al
 841:	45 83 03 02          	rex.RB add DWORD PTR [r11],0x2
 845:	58                   	pop    rax
 846:	0c 07                	or     al,0x7
 848:	08 00                	or     BYTE PTR [rax],al
 84a:	00 00                	add    BYTE PTR [rax],al
 84c:	1c 00                	sbb    al,0x0
 84e:	00 00                	add    BYTE PTR [rax],al
 850:	50                   	push   rax
 851:	08 00                	or     BYTE PTR [rax],al
 853:	00 00                	add    BYTE PTR [rax],al
 855:	00 00                	add    BYTE PTR [rax],al
 857:	00 0a                	add    BYTE PTR [rdx],cl
 859:	00 00                	add    BYTE PTR [rax],al
 85b:	00 00                	add    BYTE PTR [rax],al
 85d:	41 0e                	rex.B (bad) 
 85f:	10 86 02 43 0d 06    	adc    BYTE PTR [rsi+0x60d4302],al
 865:	45 0c 07             	rex.RB or al,0x7
 868:	08 00                	or     BYTE PTR [rax],al
 86a:	00 00                	add    BYTE PTR [rax],al
 86c:	1c 00                	sbb    al,0x0
 86e:	00 00                	add    BYTE PTR [rax],al
 870:	70 08                	jo     87a <.eh_frame+0x87a>
 872:	00 00                	add    BYTE PTR [rax],al
 874:	00 00                	add    BYTE PTR [rax],al
 876:	00 00                	add    BYTE PTR [rax],al
 878:	1c 00                	sbb    al,0x0
 87a:	00 00                	add    BYTE PTR [rax],al
 87c:	00 41 0e             	add    BYTE PTR [rcx+0xe],al
 87f:	10 86 02 43 0d 06    	adc    BYTE PTR [rsi+0x60d4302],al
 885:	57                   	push   rdi
 886:	0c 07                	or     al,0x7
 888:	08 00                	or     BYTE PTR [rax],al
 88a:	00 00                	add    BYTE PTR [rax],al
 88c:	1c 00                	sbb    al,0x0
 88e:	00 00                	add    BYTE PTR [rax],al
 890:	90                   	nop
 891:	08 00                	or     BYTE PTR [rax],al
 893:	00 00                	add    BYTE PTR [rax],al
 895:	00 00                	add    BYTE PTR [rax],al
 897:	00 3e                	add    BYTE PTR [rsi],bh
 899:	00 00                	add    BYTE PTR [rax],al
 89b:	00 00                	add    BYTE PTR [rax],al
 89d:	41 0e                	rex.B (bad) 
 89f:	10 86 02 43 0d 06    	adc    BYTE PTR [rsi+0x60d4302],al
 8a5:	79 0c                	jns    8b3 <.eh_frame+0x8b3>
 8a7:	07                   	(bad)  
 8a8:	08 00                	or     BYTE PTR [rax],al
 8aa:	00 00                	add    BYTE PTR [rax],al
 8ac:	20 00                	and    BYTE PTR [rax],al
 8ae:	00 00                	add    BYTE PTR [rax],al
 8b0:	b0 08                	mov    al,0x8
 8b2:	00 00                	add    BYTE PTR [rax],al
 8b4:	00 00                	add    BYTE PTR [rax],al
 8b6:	00 00                	add    BYTE PTR [rax],al
 8b8:	15 00 00 00 00       	adc    eax,0x0
 8bd:	41 0e                	rex.B (bad) 
 8bf:	10 86 02 43 0d 06    	adc    BYTE PTR [rsi+0x60d4302],al
 8c5:	50                   	push   rax
 8c6:	0c 07                	or     al,0x7
 8c8:	08 00                	or     BYTE PTR [rax],al
 8ca:	00 00                	add    BYTE PTR [rax],al
 8cc:	00 00                	add    BYTE PTR [rax],al
	...
