
main.o:     formato del fichero elf64-x86-64


Desensamblado de la sección .group:

0000000000000000 <_ZN9simulatorD5Ev>:
   0:	01 00                	add    DWORD PTR [rax],eax
   2:	00 00                	add    BYTE PTR [rax],al
   4:	0d                   	.byte 0xd
   5:	00 00                	add    BYTE PTR [rax],al
	...

Desensamblado de la sección .group:

0000000000000000 <_ZNSt7__cxx1115basic_stringbufIcSt11char_traitsIcESaIcEED5Ev>:
   0:	01 00                	add    DWORD PTR [rax],eax
   2:	00 00                	add    BYTE PTR [rax],al
   4:	0f 00 00             	sldt   WORD PTR [rax]
   7:	00 11                	add    BYTE PTR [rcx],dl
   9:	00 00                	add    BYTE PTR [rax],al
	...

Desensamblado de la sección .group:

0000000000000000 <.group>:
   0:	01 00                	add    DWORD PTR [rax],eax
   2:	00 00                	add    BYTE PTR [rax],al
   4:	13 00                	adc    eax,DWORD PTR [rax]
	...

Desensamblado de la sección .group:

0000000000000000 <.group>:
   0:	01 00                	add    DWORD PTR [rax],eax
   2:	00 00                	add    BYTE PTR [rax],al
   4:	15                   	.byte 0x15
   5:	00 00                	add    BYTE PTR [rax],al
	...

Desensamblado de la sección .group:

0000000000000000 <.group>:
   0:	01 00                	add    DWORD PTR [rax],eax
   2:	00 00                	add    BYTE PTR [rax],al
   4:	17                   	(bad)  
   5:	00 00                	add    BYTE PTR [rax],al
	...

Desensamblado de la sección .text:

0000000000000000 <_ZN4mat2C1Ev>:
       0:	c7 47 08 00 00 00 00 	mov    DWORD PTR [rdi+0x8],0x0
       7:	c7 47 0c 00 00 00 00 	mov    DWORD PTR [rdi+0xc],0x0
       e:	48 c7 07 00 00 00 00 	mov    QWORD PTR [rdi],0x0
      15:	c3                   	ret    

0000000000000016 <_ZN4mat24inicEf>:
      16:	41 54                	push   r12
      18:	55                   	push   rbp
      19:	53                   	push   rbx
      1a:	48 89 fb             	mov    rbx,rdi
      1d:	44 8b 67 08          	mov    r12d,DWORD PTR [rdi+0x8]
      21:	44 0f af 67 0c       	imul   r12d,DWORD PTR [rdi+0xc]
      26:	49 63 fc             	movsxd rdi,r12d
      29:	48 b8 00 00 00 00 00 	movabs rax,0x1fc0000000000000
      30:	00 c0 1f 
      33:	48 39 c7             	cmp    rdi,rax
      36:	77 17                	ja     4f <_ZN4mat24inicEf+0x39>
      38:	66 0f 7e c5          	movd   ebp,xmm0
      3c:	48 c1 e7 02          	shl    rdi,0x2
      40:	e8 00 00 00 00       	call   45 <_ZN4mat24inicEf+0x2f>
      45:	48 89 03             	mov    QWORD PTR [rbx],rax
      48:	45 85 e4             	test   r12d,r12d
      4b:	7f 07                	jg     54 <_ZN4mat24inicEf+0x3e>
      4d:	eb 26                	jmp    75 <_ZN4mat24inicEf+0x5f>
      4f:	e8 00 00 00 00       	call   54 <_ZN4mat24inicEf+0x3e>
      54:	41 8d 44 24 ff       	lea    eax,[r12-0x1]
      59:	48 8d 0c 85 04 00 00 	lea    rcx,[rax*4+0x4]
      60:	00 
      61:	b8 00 00 00 00       	mov    eax,0x0
      66:	48 8b 13             	mov    rdx,QWORD PTR [rbx]
      69:	89 2c 02             	mov    DWORD PTR [rdx+rax*1],ebp
      6c:	48 83 c0 04          	add    rax,0x4
      70:	48 39 c8             	cmp    rax,rcx
      73:	75 f1                	jne    66 <_ZN4mat24inicEf+0x50>
      75:	5b                   	pop    rbx
      76:	5d                   	pop    rbp
      77:	41 5c                	pop    r12
      79:	c3                   	ret    

000000000000007a <_ZN4mat2C1Eii>:
      7a:	48 83 ec 08          	sub    rsp,0x8
      7e:	89 77 08             	mov    DWORD PTR [rdi+0x8],esi
      81:	89 57 0c             	mov    DWORD PTR [rdi+0xc],edx
      84:	66 0f ef c0          	pxor   xmm0,xmm0
      88:	e8 00 00 00 00       	call   8d <_ZN4mat2C1Eii+0x13>
      8d:	48 83 c4 08          	add    rsp,0x8
      91:	c3                   	ret    

0000000000000092 <_ZN4mat2C1Eiif>:
      92:	48 83 ec 08          	sub    rsp,0x8
      96:	89 77 08             	mov    DWORD PTR [rdi+0x8],esi
      99:	89 57 0c             	mov    DWORD PTR [rdi+0xc],edx
      9c:	e8 00 00 00 00       	call   a1 <_ZN4mat2C1Eiif+0xf>
      a1:	48 83 c4 08          	add    rsp,0x8
      a5:	c3                   	ret    

00000000000000a6 <_ZN4mat26setAllEf>:
      a6:	8b 47 08             	mov    eax,DWORD PTR [rdi+0x8]
      a9:	0f af 47 0c          	imul   eax,DWORD PTR [rdi+0xc]
      ad:	85 c0                	test   eax,eax
      af:	7e 21                	jle    d2 <_ZN4mat26setAllEf+0x2c>
      b1:	8d 40 ff             	lea    eax,[rax-0x1]
      b4:	48 8d 0c 85 04 00 00 	lea    rcx,[rax*4+0x4]
      bb:	00 
      bc:	b8 00 00 00 00       	mov    eax,0x0
      c1:	48 8b 17             	mov    rdx,QWORD PTR [rdi]
      c4:	f3 0f 11 04 02       	movss  DWORD PTR [rdx+rax*1],xmm0
      c9:	48 83 c0 04          	add    rax,0x4
      cd:	48 39 c8             	cmp    rax,rcx
      d0:	75 ef                	jne    c1 <_ZN4mat26setAllEf+0x1b>
      d2:	f3 c3                	repz ret 

00000000000000d4 <_ZN4mat23setEiif>:
      d4:	0f af 77 0c          	imul   esi,DWORD PTR [rdi+0xc]
      d8:	01 f2                	add    edx,esi
      da:	48 63 d2             	movsxd rdx,edx
      dd:	48 8b 07             	mov    rax,QWORD PTR [rdi]
      e0:	f3 0f 11 04 90       	movss  DWORD PTR [rax+rdx*4],xmm0
      e5:	c3                   	ret    

00000000000000e6 <_ZN4mat23addEiif>:
      e6:	0f af 77 0c          	imul   esi,DWORD PTR [rdi+0xc]
      ea:	01 f2                	add    edx,esi
      ec:	48 63 d2             	movsxd rdx,edx
      ef:	48 8b 07             	mov    rax,QWORD PTR [rdi]
      f2:	48 8d 04 90          	lea    rax,[rax+rdx*4]
      f6:	f3 0f 58 00          	addss  xmm0,DWORD PTR [rax]
      fa:	f3 0f 11 00          	movss  DWORD PTR [rax],xmm0
      fe:	c3                   	ret    
      ff:	90                   	nop

0000000000000100 <_ZN4mat22atEii>:
     100:	0f af 77 0c          	imul   esi,DWORD PTR [rdi+0xc]
     104:	01 f2                	add    edx,esi
     106:	48 63 d2             	movsxd rdx,edx
     109:	48 8b 07             	mov    rax,QWORD PTR [rdi]
     10c:	f3 0f 10 04 90       	movss  xmm0,DWORD PTR [rax+rdx*4]
     111:	c3                   	ret    

0000000000000112 <_ZN4mat27copyAllERS_>:
     112:	41 55                	push   r13
     114:	41 54                	push   r12
     116:	55                   	push   rbp
     117:	53                   	push   rbx
     118:	49 89 fc             	mov    r12,rdi
     11b:	49 89 f5             	mov    r13,rsi
     11e:	66 0f ef c0          	pxor   xmm0,xmm0
     122:	f3 0f 2a 47 08       	cvtsi2ss xmm0,DWORD PTR [rdi+0x8]
     127:	bd 00 00 00 00       	mov    ebp,0x0
     12c:	0f 2e 05 00 00 00 00 	ucomiss xmm0,DWORD PTR [rip+0x0]        # 133 <_ZN4mat27copyAllERS_+0x21>
     133:	76 67                	jbe    19c <_ZN4mat27copyAllERS_+0x8a>
     135:	66 0f ef c0          	pxor   xmm0,xmm0
     139:	f3 41 0f 2a 44 24 0c 	cvtsi2ss xmm0,DWORD PTR [r12+0xc]
     140:	bb 00 00 00 00       	mov    ebx,0x0
     145:	0f 2e 05 00 00 00 00 	ucomiss xmm0,DWORD PTR [rip+0x0]        # 14c <_ZN4mat27copyAllERS_+0x3a>
     14c:	76 33                	jbe    181 <_ZN4mat27copyAllERS_+0x6f>
     14e:	89 da                	mov    edx,ebx
     150:	89 ee                	mov    esi,ebp
     152:	4c 89 ef             	mov    rdi,r13
     155:	e8 00 00 00 00       	call   15a <_ZN4mat27copyAllERS_+0x48>
     15a:	89 da                	mov    edx,ebx
     15c:	89 ee                	mov    esi,ebp
     15e:	4c 89 e7             	mov    rdi,r12
     161:	e8 00 00 00 00       	call   166 <_ZN4mat27copyAllERS_+0x54>
     166:	83 c3 01             	add    ebx,0x1
     169:	66 0f ef c0          	pxor   xmm0,xmm0
     16d:	f3 0f 2a c3          	cvtsi2ss xmm0,ebx
     171:	66 0f ef c9          	pxor   xmm1,xmm1
     175:	f3 41 0f 2a 4c 24 0c 	cvtsi2ss xmm1,DWORD PTR [r12+0xc]
     17c:	0f 2e c8             	ucomiss xmm1,xmm0
     17f:	77 cd                	ja     14e <_ZN4mat27copyAllERS_+0x3c>
     181:	83 c5 01             	add    ebp,0x1
     184:	66 0f ef c0          	pxor   xmm0,xmm0
     188:	f3 0f 2a c5          	cvtsi2ss xmm0,ebp
     18c:	66 0f ef c9          	pxor   xmm1,xmm1
     190:	f3 41 0f 2a 4c 24 08 	cvtsi2ss xmm1,DWORD PTR [r12+0x8]
     197:	0f 2e c8             	ucomiss xmm1,xmm0
     19a:	77 99                	ja     135 <_ZN4mat27copyAllERS_+0x23>
     19c:	5b                   	pop    rbx
     19d:	5d                   	pop    rbp
     19e:	41 5c                	pop    r12
     1a0:	41 5d                	pop    r13
     1a2:	c3                   	ret    
     1a3:	90                   	nop

00000000000001a4 <_ZN4mat24colsEv>:
     1a4:	66 0f ef c0          	pxor   xmm0,xmm0
     1a8:	f3 0f 2a 47 0c       	cvtsi2ss xmm0,DWORD PTR [rdi+0xc]
     1ad:	c3                   	ret    

00000000000001ae <_ZN4mat24rowsEv>:
     1ae:	66 0f ef c0          	pxor   xmm0,xmm0
     1b2:	f3 0f 2a 47 08       	cvtsi2ss xmm0,DWORD PTR [rdi+0x8]
     1b7:	c3                   	ret    

00000000000001b8 <_ZN4mat25printEv>:
     1b8:	41 54                	push   r12
     1ba:	55                   	push   rbp
     1bb:	53                   	push   rbx
     1bc:	83 7f 08 00          	cmp    DWORD PTR [rdi+0x8],0x0
     1c0:	0f 8e 00 01 00 00    	jle    2c6 <_ZN4mat25printEv+0x10e>
     1c6:	48 89 fd             	mov    rbp,rdi
     1c9:	41 bc 00 00 00 00    	mov    r12d,0x0
     1cf:	8b 45 0c             	mov    eax,DWORD PTR [rbp+0xc]
     1d2:	85 c0                	test   eax,eax
     1d4:	7e 3c                	jle    212 <_ZN4mat25printEv+0x5a>
     1d6:	bb 00 00 00 00       	mov    ebx,0x0
     1db:	41 0f af c4          	imul   eax,r12d
     1df:	01 d8                	add    eax,ebx
     1e1:	48 98                	cdqe   
     1e3:	48 8b 55 00          	mov    rdx,QWORD PTR [rbp+0x0]
     1e7:	f3 0f 5a 04 82       	cvtss2sd xmm0,DWORD PTR [rdx+rax*4]
     1ec:	bf 00 00 00 00       	mov    edi,0x0
     1f1:	e8 00 00 00 00       	call   1f6 <_ZN4mat25printEv+0x3e>
     1f6:	ba 01 00 00 00       	mov    edx,0x1
     1fb:	be 00 00 00 00       	mov    esi,0x0
     200:	48 89 c7             	mov    rdi,rax
     203:	e8 00 00 00 00       	call   208 <_ZN4mat25printEv+0x50>
     208:	83 c3 01             	add    ebx,0x1
     20b:	8b 45 0c             	mov    eax,DWORD PTR [rbp+0xc]
     20e:	39 d8                	cmp    eax,ebx
     210:	7f c9                	jg     1db <_ZN4mat25printEv+0x23>
     212:	48 8b 05 00 00 00 00 	mov    rax,QWORD PTR [rip+0x0]        # 219 <_ZN4mat25printEv+0x61>
     219:	48 8b 40 e8          	mov    rax,QWORD PTR [rax-0x18]
     21d:	48 8b 98 00 00 00 00 	mov    rbx,QWORD PTR [rax+0x0]
     224:	48 85 db             	test   rbx,rbx
     227:	75 05                	jne    22e <_ZN4mat25printEv+0x76>
     229:	e8 00 00 00 00       	call   22e <_ZN4mat25printEv+0x76>
     22e:	80 7b 38 00          	cmp    BYTE PTR [rbx+0x38],0x0
     232:	74 06                	je     23a <_ZN4mat25printEv+0x82>
     234:	0f b6 43 43          	movzx  eax,BYTE PTR [rbx+0x43]
     238:	eb 16                	jmp    250 <_ZN4mat25printEv+0x98>
     23a:	48 89 df             	mov    rdi,rbx
     23d:	e8 00 00 00 00       	call   242 <_ZN4mat25printEv+0x8a>
     242:	48 8b 03             	mov    rax,QWORD PTR [rbx]
     245:	be 0a 00 00 00       	mov    esi,0xa
     24a:	48 89 df             	mov    rdi,rbx
     24d:	ff 50 30             	call   QWORD PTR [rax+0x30]
     250:	0f be f0             	movsx  esi,al
     253:	bf 00 00 00 00       	mov    edi,0x0
     258:	e8 00 00 00 00       	call   25d <_ZN4mat25printEv+0xa5>
     25d:	48 89 c7             	mov    rdi,rax
     260:	e8 00 00 00 00       	call   265 <_ZN4mat25printEv+0xad>
     265:	48 8b 05 00 00 00 00 	mov    rax,QWORD PTR [rip+0x0]        # 26c <_ZN4mat25printEv+0xb4>
     26c:	48 8b 40 e8          	mov    rax,QWORD PTR [rax-0x18]
     270:	48 8b 98 00 00 00 00 	mov    rbx,QWORD PTR [rax+0x0]
     277:	48 85 db             	test   rbx,rbx
     27a:	75 05                	jne    281 <_ZN4mat25printEv+0xc9>
     27c:	e8 00 00 00 00       	call   281 <_ZN4mat25printEv+0xc9>
     281:	80 7b 38 00          	cmp    BYTE PTR [rbx+0x38],0x0
     285:	74 06                	je     28d <_ZN4mat25printEv+0xd5>
     287:	0f b6 43 43          	movzx  eax,BYTE PTR [rbx+0x43]
     28b:	eb 16                	jmp    2a3 <_ZN4mat25printEv+0xeb>
     28d:	48 89 df             	mov    rdi,rbx
     290:	e8 00 00 00 00       	call   295 <_ZN4mat25printEv+0xdd>
     295:	48 8b 03             	mov    rax,QWORD PTR [rbx]
     298:	be 0a 00 00 00       	mov    esi,0xa
     29d:	48 89 df             	mov    rdi,rbx
     2a0:	ff 50 30             	call   QWORD PTR [rax+0x30]
     2a3:	0f be f0             	movsx  esi,al
     2a6:	bf 00 00 00 00       	mov    edi,0x0
     2ab:	e8 00 00 00 00       	call   2b0 <_ZN4mat25printEv+0xf8>
     2b0:	48 89 c7             	mov    rdi,rax
     2b3:	e8 00 00 00 00       	call   2b8 <_ZN4mat25printEv+0x100>
     2b8:	41 83 c4 01          	add    r12d,0x1
     2bc:	44 39 65 08          	cmp    DWORD PTR [rbp+0x8],r12d
     2c0:	0f 8f 09 ff ff ff    	jg     1cf <_ZN4mat25printEv+0x17>
     2c6:	48 8b 05 00 00 00 00 	mov    rax,QWORD PTR [rip+0x0]        # 2cd <_ZN4mat25printEv+0x115>
     2cd:	48 8b 40 e8          	mov    rax,QWORD PTR [rax-0x18]
     2d1:	48 8b 98 00 00 00 00 	mov    rbx,QWORD PTR [rax+0x0]
     2d8:	48 85 db             	test   rbx,rbx
     2db:	75 05                	jne    2e2 <_ZN4mat25printEv+0x12a>
     2dd:	e8 00 00 00 00       	call   2e2 <_ZN4mat25printEv+0x12a>
     2e2:	80 7b 38 00          	cmp    BYTE PTR [rbx+0x38],0x0
     2e6:	74 06                	je     2ee <_ZN4mat25printEv+0x136>
     2e8:	0f b6 43 43          	movzx  eax,BYTE PTR [rbx+0x43]
     2ec:	eb 16                	jmp    304 <_ZN4mat25printEv+0x14c>
     2ee:	48 89 df             	mov    rdi,rbx
     2f1:	e8 00 00 00 00       	call   2f6 <_ZN4mat25printEv+0x13e>
     2f6:	48 8b 03             	mov    rax,QWORD PTR [rbx]
     2f9:	be 0a 00 00 00       	mov    esi,0xa
     2fe:	48 89 df             	mov    rdi,rbx
     301:	ff 50 30             	call   QWORD PTR [rax+0x30]
     304:	0f be f0             	movsx  esi,al
     307:	bf 00 00 00 00       	mov    edi,0x0
     30c:	e8 00 00 00 00       	call   311 <_ZN4mat25printEv+0x159>
     311:	48 89 c7             	mov    rdi,rax
     314:	e8 00 00 00 00       	call   319 <_ZN4mat25printEv+0x161>
     319:	5b                   	pop    rbx
     31a:	5d                   	pop    rbp
     31b:	41 5c                	pop    r12
     31d:	c3                   	ret    

000000000000031e <_ZN4mat2D1Ev>:
     31e:	48 8b 3f             	mov    rdi,QWORD PTR [rdi]
     321:	48 85 ff             	test   rdi,rdi
     324:	74 0d                	je     333 <_ZN4mat2D1Ev+0x15>
     326:	48 83 ec 08          	sub    rsp,0x8
     32a:	e8 00 00 00 00       	call   32f <_ZN4mat2D1Ev+0x11>
     32f:	48 83 c4 08          	add    rsp,0x8
     333:	f3 c3                	repz ret 

0000000000000335 <_Z4diffR4mat2S0_>:
     335:	41 55                	push   r13
     337:	41 54                	push   r12
     339:	55                   	push   rbp
     33a:	53                   	push   rbx
     33b:	48 83 ec 18          	sub    rsp,0x18
     33f:	66 0f ef ff          	pxor   xmm7,xmm7
     343:	f3 0f 2a 7f 08       	cvtsi2ss xmm7,DWORD PTR [rdi+0x8]
     348:	f3 0f 11 7c 24 0c    	movss  DWORD PTR [rsp+0xc],xmm7
     34e:	0f 2e 3d 00 00 00 00 	ucomiss xmm7,DWORD PTR [rip+0x0]        # 355 <_Z4diffR4mat2S0_+0x20>
     355:	0f 86 ab 00 00 00    	jbe    406 <_Z4diffR4mat2S0_+0xd1>
     35b:	49 89 fc             	mov    r12,rdi
     35e:	49 89 f5             	mov    r13,rsi
     361:	66 0f ef ff          	pxor   xmm7,xmm7
     365:	f3 0f 2a 7f 0c       	cvtsi2ss xmm7,DWORD PTR [rdi+0xc]
     36a:	f3 0f 11 7c 24 08    	movss  DWORD PTR [rsp+0x8],xmm7
     370:	bd 00 00 00 00       	mov    ebp,0x0
     375:	66 0f ef ff          	pxor   xmm7,xmm7
     379:	f3 0f 11 3c 24       	movss  DWORD PTR [rsp],xmm7
     37e:	bb 00 00 00 00       	mov    ebx,0x0
     383:	f3 0f 10 74 24 08    	movss  xmm6,DWORD PTR [rsp+0x8]
     389:	66 0f ef ff          	pxor   xmm7,xmm7
     38d:	0f 2e f7             	ucomiss xmm6,xmm7
     390:	76 58                	jbe    3ea <_Z4diffR4mat2S0_+0xb5>
     392:	89 da                	mov    edx,ebx
     394:	89 ee                	mov    esi,ebp
     396:	4c 89 ef             	mov    rdi,r13
     399:	e8 00 00 00 00       	call   39e <_Z4diffR4mat2S0_+0x69>
     39e:	f3 0f 11 44 24 04    	movss  DWORD PTR [rsp+0x4],xmm0
     3a4:	89 da                	mov    edx,ebx
     3a6:	89 ee                	mov    esi,ebp
     3a8:	4c 89 e7             	mov    rdi,r12
     3ab:	e8 00 00 00 00       	call   3b0 <_Z4diffR4mat2S0_+0x7b>
     3b0:	f3 0f 10 54 24 04    	movss  xmm2,DWORD PTR [rsp+0x4]
     3b6:	f3 0f 5c d0          	subss  xmm2,xmm0
     3ba:	f3 0f 5a c2          	cvtss2sd xmm0,xmm2
     3be:	f2 0f 59 c0          	mulsd  xmm0,xmm0
     3c2:	f3 0f 5a 0c 24       	cvtss2sd xmm1,DWORD PTR [rsp]
     3c7:	f2 0f 58 c1          	addsd  xmm0,xmm1
     3cb:	f2 0f 5a e0          	cvtsd2ss xmm4,xmm0
     3cf:	f3 0f 11 24 24       	movss  DWORD PTR [rsp],xmm4
     3d4:	83 c3 01             	add    ebx,0x1
     3d7:	66 0f ef c0          	pxor   xmm0,xmm0
     3db:	f3 0f 2a c3          	cvtsi2ss xmm0,ebx
     3df:	f3 0f 10 6c 24 08    	movss  xmm5,DWORD PTR [rsp+0x8]
     3e5:	0f 2e e8             	ucomiss xmm5,xmm0
     3e8:	77 a8                	ja     392 <_Z4diffR4mat2S0_+0x5d>
     3ea:	83 c5 01             	add    ebp,0x1
     3ed:	66 0f ef c0          	pxor   xmm0,xmm0
     3f1:	f3 0f 2a c5          	cvtsi2ss xmm0,ebp
     3f5:	f3 0f 10 74 24 0c    	movss  xmm6,DWORD PTR [rsp+0xc]
     3fb:	0f 2e f0             	ucomiss xmm6,xmm0
     3fe:	0f 87 7a ff ff ff    	ja     37e <_Z4diffR4mat2S0_+0x49>
     404:	eb 09                	jmp    40f <_Z4diffR4mat2S0_+0xda>
     406:	66 0f ef ff          	pxor   xmm7,xmm7
     40a:	f3 0f 11 3c 24       	movss  DWORD PTR [rsp],xmm7
     40f:	f3 0f 51 04 24       	sqrtss xmm0,DWORD PTR [rsp]
     414:	0f 2e c0             	ucomiss xmm0,xmm0
     417:	7b 0a                	jnp    423 <_Z4diffR4mat2S0_+0xee>
     419:	f3 0f 10 04 24       	movss  xmm0,DWORD PTR [rsp]
     41e:	e8 00 00 00 00       	call   423 <_Z4diffR4mat2S0_+0xee>
     423:	48 83 c4 18          	add    rsp,0x18
     427:	5b                   	pop    rbx
     428:	5d                   	pop    rbp
     429:	41 5c                	pop    r12
     42b:	41 5d                	pop    r13
     42d:	c3                   	ret    

000000000000042e <_ZN4mat211confAndInitEiif>:
     42e:	48 83 ec 08          	sub    rsp,0x8
     432:	89 77 08             	mov    DWORD PTR [rdi+0x8],esi
     435:	89 57 0c             	mov    DWORD PTR [rdi+0xc],edx
     438:	e8 00 00 00 00       	call   43d <_ZN4mat211confAndInitEiif+0xf>
     43d:	48 83 c4 08          	add    rsp,0x8
     441:	c3                   	ret    

0000000000000442 <_ZN2io5forceEv>:
     442:	48 83 ec 08          	sub    rsp,0x8
     446:	48 83 c7 40          	add    rdi,0x40
     44a:	e8 00 00 00 00       	call   44f <_ZN2io5forceEv+0xd>
     44f:	48 83 c4 08          	add    rsp,0x8
     453:	c3                   	ret    

0000000000000454 <_ZN2ioC1ENSt7__cxx1112basic_stringIcSt11char_traitsIcESaIcEEES5_>:
     454:	41 57                	push   r15
     456:	41 56                	push   r14
     458:	41 55                	push   r13
     45a:	41 54                	push   r12
     45c:	55                   	push   rbp
     45d:	53                   	push   rbx
     45e:	48 83 ec 28          	sub    rsp,0x28
     462:	48 89 fb             	mov    rbx,rdi
     465:	48 89 74 24 08       	mov    QWORD PTR [rsp+0x8],rsi
     46a:	48 89 14 24          	mov    QWORD PTR [rsp],rdx
     46e:	48 8d 47 10          	lea    rax,[rdi+0x10]
     472:	48 89 44 24 10       	mov    QWORD PTR [rsp+0x10],rax
     477:	48 89 07             	mov    QWORD PTR [rdi],rax
     47a:	48 c7 47 08 00 00 00 	mov    QWORD PTR [rdi+0x8],0x0
     481:	00 
     482:	c6 47 10 00          	mov    BYTE PTR [rdi+0x10],0x0
     486:	48 8d 47 30          	lea    rax,[rdi+0x30]
     48a:	48 89 44 24 18       	mov    QWORD PTR [rsp+0x18],rax
     48f:	48 89 47 20          	mov    QWORD PTR [rdi+0x20],rax
     493:	48 c7 47 28 00 00 00 	mov    QWORD PTR [rdi+0x28],0x0
     49a:	00 
     49b:	c6 47 30 00          	mov    BYTE PTR [rdi+0x30],0x0
     49f:	4c 8d 7f 40          	lea    r15,[rdi+0x40]
     4a3:	4c 8d af 38 01 00 00 	lea    r13,[rdi+0x138]
     4aa:	4c 89 ef             	mov    rdi,r13
     4ad:	e8 00 00 00 00       	call   4b2 <_ZN2ioC1ENSt7__cxx1112basic_stringIcSt11char_traitsIcESaIcEEES5_+0x5e>
     4b2:	48 c7 83 38 01 00 00 	mov    QWORD PTR [rbx+0x138],0x0
     4b9:	00 00 00 00 
     4bd:	48 c7 83 10 02 00 00 	mov    QWORD PTR [rbx+0x210],0x0
     4c4:	00 00 00 00 
     4c8:	c6 83 18 02 00 00 00 	mov    BYTE PTR [rbx+0x218],0x0
     4cf:	c6 83 19 02 00 00 00 	mov    BYTE PTR [rbx+0x219],0x0
     4d6:	48 c7 83 20 02 00 00 	mov    QWORD PTR [rbx+0x220],0x0
     4dd:	00 00 00 00 
     4e1:	48 c7 83 28 02 00 00 	mov    QWORD PTR [rbx+0x228],0x0
     4e8:	00 00 00 00 
     4ec:	48 c7 83 30 02 00 00 	mov    QWORD PTR [rbx+0x230],0x0
     4f3:	00 00 00 00 
     4f7:	48 c7 83 38 02 00 00 	mov    QWORD PTR [rbx+0x238],0x0
     4fe:	00 00 00 00 
     502:	48 8b 2d 00 00 00 00 	mov    rbp,QWORD PTR [rip+0x0]        # 509 <_ZN2ioC1ENSt7__cxx1112basic_stringIcSt11char_traitsIcESaIcEEES5_+0xb5>
     509:	48 89 6b 40          	mov    QWORD PTR [rbx+0x40],rbp
     50d:	48 8b 45 e8          	mov    rax,QWORD PTR [rbp-0x18]
     511:	48 8b 0d 00 00 00 00 	mov    rcx,QWORD PTR [rip+0x0]        # 518 <_ZN2ioC1ENSt7__cxx1112basic_stringIcSt11char_traitsIcESaIcEEES5_+0xc4>
     518:	48 89 4c 03 40       	mov    QWORD PTR [rbx+rax*1+0x40],rcx
     51d:	48 8b 43 40          	mov    rax,QWORD PTR [rbx+0x40]
     521:	4c 89 ff             	mov    rdi,r15
     524:	48 03 78 e8          	add    rdi,QWORD PTR [rax-0x18]
     528:	be 00 00 00 00       	mov    esi,0x0
     52d:	e8 00 00 00 00       	call   532 <_ZN2ioC1ENSt7__cxx1112basic_stringIcSt11char_traitsIcESaIcEEES5_+0xde>
     532:	48 c7 43 40 00 00 00 	mov    QWORD PTR [rbx+0x40],0x0
     539:	00 
     53a:	48 c7 83 38 01 00 00 	mov    QWORD PTR [rbx+0x138],0x0
     541:	00 00 00 00 
     545:	4c 8d 63 48          	lea    r12,[rbx+0x48]
     549:	4c 89 e7             	mov    rdi,r12
     54c:	e8 00 00 00 00       	call   551 <_ZN2ioC1ENSt7__cxx1112basic_stringIcSt11char_traitsIcESaIcEEES5_+0xfd>
     551:	4c 89 e6             	mov    rsi,r12
     554:	4c 89 ef             	mov    rdi,r13
     557:	e8 00 00 00 00       	call   55c <_ZN2ioC1ENSt7__cxx1112basic_stringIcSt11char_traitsIcESaIcEEES5_+0x108>
     55c:	eb 44                	jmp    5a2 <_ZN2ioC1ENSt7__cxx1112basic_stringIcSt11char_traitsIcESaIcEEES5_+0x14e>
     55e:	49 89 c6             	mov    r14,rax
     561:	4c 89 e7             	mov    rdi,r12
     564:	e8 00 00 00 00       	call   569 <_ZN2ioC1ENSt7__cxx1112basic_stringIcSt11char_traitsIcESaIcEEES5_+0x115>
     569:	4c 89 f0             	mov    rax,r14
     56c:	eb 00                	jmp    56e <_ZN2ioC1ENSt7__cxx1112basic_stringIcSt11char_traitsIcESaIcEEES5_+0x11a>
     56e:	48 89 6b 40          	mov    QWORD PTR [rbx+0x40],rbp
     572:	48 8b 55 e8          	mov    rdx,QWORD PTR [rbp-0x18]
     576:	48 8b 0d 00 00 00 00 	mov    rcx,QWORD PTR [rip+0x0]        # 57d <_ZN2ioC1ENSt7__cxx1112basic_stringIcSt11char_traitsIcESaIcEEES5_+0x129>
     57d:	48 89 4c 13 40       	mov    QWORD PTR [rbx+rdx*1+0x40],rcx
     582:	48 89 c5             	mov    rbp,rax
     585:	eb 03                	jmp    58a <_ZN2ioC1ENSt7__cxx1112basic_stringIcSt11char_traitsIcESaIcEEES5_+0x136>
     587:	48 89 c5             	mov    rbp,rax
     58a:	48 c7 83 38 01 00 00 	mov    QWORD PTR [rbx+0x138],0x0
     591:	00 00 00 00 
     595:	4c 89 ef             	mov    rdi,r13
     598:	e8 00 00 00 00       	call   59d <_ZN2ioC1ENSt7__cxx1112basic_stringIcSt11char_traitsIcESaIcEEES5_+0x149>
     59d:	e9 df 02 00 00       	jmp    881 <_ZN2ioC1ENSt7__cxx1112basic_stringIcSt11char_traitsIcESaIcEEES5_+0x42d>
     5a2:	4c 8d b3 40 02 00 00 	lea    r14,[rbx+0x240]
     5a9:	4c 8d ab 40 03 00 00 	lea    r13,[rbx+0x340]
     5b0:	4c 89 ef             	mov    rdi,r13
     5b3:	e8 00 00 00 00       	call   5b8 <_ZN2ioC1ENSt7__cxx1112basic_stringIcSt11char_traitsIcESaIcEEES5_+0x164>
     5b8:	48 c7 83 40 03 00 00 	mov    QWORD PTR [rbx+0x340],0x0
     5bf:	00 00 00 00 
     5c3:	48 c7 83 18 04 00 00 	mov    QWORD PTR [rbx+0x418],0x0
     5ca:	00 00 00 00 
     5ce:	c6 83 20 04 00 00 00 	mov    BYTE PTR [rbx+0x420],0x0
     5d5:	c6 83 21 04 00 00 00 	mov    BYTE PTR [rbx+0x421],0x0
     5dc:	48 c7 83 28 04 00 00 	mov    QWORD PTR [rbx+0x428],0x0
     5e3:	00 00 00 00 
     5e7:	48 c7 83 30 04 00 00 	mov    QWORD PTR [rbx+0x430],0x0
     5ee:	00 00 00 00 
     5f2:	48 c7 83 38 04 00 00 	mov    QWORD PTR [rbx+0x438],0x0
     5f9:	00 00 00 00 
     5fd:	48 c7 83 40 04 00 00 	mov    QWORD PTR [rbx+0x440],0x0
     604:	00 00 00 00 
     608:	48 8b 05 00 00 00 00 	mov    rax,QWORD PTR [rip+0x0]        # 60f <_ZN2ioC1ENSt7__cxx1112basic_stringIcSt11char_traitsIcESaIcEEES5_+0x1bb>
     60f:	48 89 83 40 02 00 00 	mov    QWORD PTR [rbx+0x240],rax
     616:	48 8b 40 e8          	mov    rax,QWORD PTR [rax-0x18]
     61a:	48 8b 0d 00 00 00 00 	mov    rcx,QWORD PTR [rip+0x0]        # 621 <_ZN2ioC1ENSt7__cxx1112basic_stringIcSt11char_traitsIcESaIcEEES5_+0x1cd>
     621:	48 89 8c 03 40 02 00 	mov    QWORD PTR [rbx+rax*1+0x240],rcx
     628:	00 
     629:	48 c7 83 48 02 00 00 	mov    QWORD PTR [rbx+0x248],0x0
     630:	00 00 00 00 
     634:	48 8b 83 40 02 00 00 	mov    rax,QWORD PTR [rbx+0x240]
     63b:	4c 89 f7             	mov    rdi,r14
     63e:	48 03 78 e8          	add    rdi,QWORD PTR [rax-0x18]
     642:	be 00 00 00 00       	mov    esi,0x0
     647:	e8 00 00 00 00       	call   64c <_ZN2ioC1ENSt7__cxx1112basic_stringIcSt11char_traitsIcESaIcEEES5_+0x1f8>
     64c:	48 c7 83 40 02 00 00 	mov    QWORD PTR [rbx+0x240],0x0
     653:	00 00 00 00 
     657:	48 c7 83 40 03 00 00 	mov    QWORD PTR [rbx+0x340],0x0
     65e:	00 00 00 00 
     662:	48 8d ab 50 02 00 00 	lea    rbp,[rbx+0x250]
     669:	48 89 ef             	mov    rdi,rbp
     66c:	e8 00 00 00 00       	call   671 <_ZN2ioC1ENSt7__cxx1112basic_stringIcSt11char_traitsIcESaIcEEES5_+0x21d>
     671:	48 89 ee             	mov    rsi,rbp
     674:	4c 89 ef             	mov    rdi,r13
     677:	e8 00 00 00 00       	call   67c <_ZN2ioC1ENSt7__cxx1112basic_stringIcSt11char_traitsIcESaIcEEES5_+0x228>
     67c:	eb 51                	jmp    6cf <_ZN2ioC1ENSt7__cxx1112basic_stringIcSt11char_traitsIcESaIcEEES5_+0x27b>
     67e:	49 89 c4             	mov    r12,rax
     681:	48 89 ef             	mov    rdi,rbp
     684:	e8 00 00 00 00       	call   689 <_ZN2ioC1ENSt7__cxx1112basic_stringIcSt11char_traitsIcESaIcEEES5_+0x235>
     689:	4c 89 e5             	mov    rbp,r12
     68c:	eb 03                	jmp    691 <_ZN2ioC1ENSt7__cxx1112basic_stringIcSt11char_traitsIcESaIcEEES5_+0x23d>
     68e:	48 89 c5             	mov    rbp,rax
     691:	48 8b 05 00 00 00 00 	mov    rax,QWORD PTR [rip+0x0]        # 698 <_ZN2ioC1ENSt7__cxx1112basic_stringIcSt11char_traitsIcESaIcEEES5_+0x244>
     698:	48 89 83 40 02 00 00 	mov    QWORD PTR [rbx+0x240],rax
     69f:	48 8b 40 e8          	mov    rax,QWORD PTR [rax-0x18]
     6a3:	48 8b 15 00 00 00 00 	mov    rdx,QWORD PTR [rip+0x0]        # 6aa <_ZN2ioC1ENSt7__cxx1112basic_stringIcSt11char_traitsIcESaIcEEES5_+0x256>
     6aa:	48 89 94 03 40 02 00 	mov    QWORD PTR [rbx+rax*1+0x240],rdx
     6b1:	00 
     6b2:	eb 03                	jmp    6b7 <_ZN2ioC1ENSt7__cxx1112basic_stringIcSt11char_traitsIcESaIcEEES5_+0x263>
     6b4:	48 89 c5             	mov    rbp,rax
     6b7:	48 c7 83 40 03 00 00 	mov    QWORD PTR [rbx+0x340],0x0
     6be:	00 00 00 00 
     6c2:	4c 89 ef             	mov    rdi,r13
     6c5:	e8 00 00 00 00       	call   6ca <_ZN2ioC1ENSt7__cxx1112basic_stringIcSt11char_traitsIcESaIcEEES5_+0x276>
     6ca:	e9 aa 01 00 00       	jmp    879 <_ZN2ioC1ENSt7__cxx1112basic_stringIcSt11char_traitsIcESaIcEEES5_+0x425>
     6cf:	48 8b 34 24          	mov    rsi,QWORD PTR [rsp]
     6d3:	48 89 df             	mov    rdi,rbx
     6d6:	e8 00 00 00 00       	call   6db <_ZN2ioC1ENSt7__cxx1112basic_stringIcSt11char_traitsIcESaIcEEES5_+0x287>
     6db:	48 8d 7b 20          	lea    rdi,[rbx+0x20]
     6df:	48 8b 74 24 08       	mov    rsi,QWORD PTR [rsp+0x8]
     6e4:	e8 00 00 00 00       	call   6e9 <_ZN2ioC1ENSt7__cxx1112basic_stringIcSt11char_traitsIcESaIcEEES5_+0x295>
     6e9:	be 00 00 00 00       	mov    esi,0x0
     6ee:	48 89 df             	mov    rdi,rbx
     6f1:	e8 00 00 00 00       	call   6f6 <_ZN2ioC1ENSt7__cxx1112basic_stringIcSt11char_traitsIcESaIcEEES5_+0x2a2>
     6f6:	85 c0                	test   eax,eax
     6f8:	75 51                	jne    74b <_ZN2ioC1ENSt7__cxx1112basic_stringIcSt11char_traitsIcESaIcEEES5_+0x2f7>
     6fa:	48 8b 73 20          	mov    rsi,QWORD PTR [rbx+0x20]
     6fe:	ba 08 00 00 00       	mov    edx,0x8
     703:	48 89 ef             	mov    rdi,rbp
     706:	e8 00 00 00 00       	call   70b <_ZN2ioC1ENSt7__cxx1112basic_stringIcSt11char_traitsIcESaIcEEES5_+0x2b7>
     70b:	48 85 c0             	test   rax,rax
     70e:	75 1e                	jne    72e <_ZN2ioC1ENSt7__cxx1112basic_stringIcSt11char_traitsIcESaIcEEES5_+0x2da>
     710:	48 8b 83 40 02 00 00 	mov    rax,QWORD PTR [rbx+0x240]
     717:	4c 89 f7             	mov    rdi,r14
     71a:	48 03 78 e8          	add    rdi,QWORD PTR [rax-0x18]
     71e:	8b 77 20             	mov    esi,DWORD PTR [rdi+0x20]
     721:	83 ce 04             	or     esi,0x4
     724:	e8 00 00 00 00       	call   729 <_ZN2ioC1ENSt7__cxx1112basic_stringIcSt11char_traitsIcESaIcEEES5_+0x2d5>
     729:	e9 7a 01 00 00       	jmp    8a8 <_ZN2ioC1ENSt7__cxx1112basic_stringIcSt11char_traitsIcESaIcEEES5_+0x454>
     72e:	48 8b 83 40 02 00 00 	mov    rax,QWORD PTR [rbx+0x240]
     735:	4c 89 f7             	mov    rdi,r14
     738:	48 03 78 e8          	add    rdi,QWORD PTR [rax-0x18]
     73c:	be 00 00 00 00       	mov    esi,0x0
     741:	e8 00 00 00 00       	call   746 <_ZN2ioC1ENSt7__cxx1112basic_stringIcSt11char_traitsIcESaIcEEES5_+0x2f2>
     746:	e9 5d 01 00 00       	jmp    8a8 <_ZN2ioC1ENSt7__cxx1112basic_stringIcSt11char_traitsIcESaIcEEES5_+0x454>
     74b:	be 00 00 00 00       	mov    esi,0x0
     750:	48 89 df             	mov    rdi,rbx
     753:	e8 00 00 00 00       	call   758 <_ZN2ioC1ENSt7__cxx1112basic_stringIcSt11char_traitsIcESaIcEEES5_+0x304>
     758:	85 c0                	test   eax,eax
     75a:	75 4b                	jne    7a7 <_ZN2ioC1ENSt7__cxx1112basic_stringIcSt11char_traitsIcESaIcEEES5_+0x353>
     75c:	48 8b 73 20          	mov    rsi,QWORD PTR [rbx+0x20]
     760:	ba 30 00 00 00       	mov    edx,0x30
     765:	4c 89 e7             	mov    rdi,r12
     768:	e8 00 00 00 00       	call   76d <_ZN2ioC1ENSt7__cxx1112basic_stringIcSt11char_traitsIcESaIcEEES5_+0x319>
     76d:	48 85 c0             	test   rax,rax
     770:	75 1b                	jne    78d <_ZN2ioC1ENSt7__cxx1112basic_stringIcSt11char_traitsIcESaIcEEES5_+0x339>
     772:	48 8b 43 40          	mov    rax,QWORD PTR [rbx+0x40]
     776:	4c 89 ff             	mov    rdi,r15
     779:	48 03 78 e8          	add    rdi,QWORD PTR [rax-0x18]
     77d:	8b 77 20             	mov    esi,DWORD PTR [rdi+0x20]
     780:	83 ce 04             	or     esi,0x4
     783:	e8 00 00 00 00       	call   788 <_ZN2ioC1ENSt7__cxx1112basic_stringIcSt11char_traitsIcESaIcEEES5_+0x334>
     788:	e9 1b 01 00 00       	jmp    8a8 <_ZN2ioC1ENSt7__cxx1112basic_stringIcSt11char_traitsIcESaIcEEES5_+0x454>
     78d:	48 8b 43 40          	mov    rax,QWORD PTR [rbx+0x40]
     791:	4c 89 ff             	mov    rdi,r15
     794:	48 03 78 e8          	add    rdi,QWORD PTR [rax-0x18]
     798:	be 00 00 00 00       	mov    esi,0x0
     79d:	e8 00 00 00 00       	call   7a2 <_ZN2ioC1ENSt7__cxx1112basic_stringIcSt11char_traitsIcESaIcEEES5_+0x34e>
     7a2:	e9 01 01 00 00       	jmp    8a8 <_ZN2ioC1ENSt7__cxx1112basic_stringIcSt11char_traitsIcESaIcEEES5_+0x454>
     7a7:	be 00 00 00 00       	mov    esi,0x0
     7ac:	48 8b 3c 24          	mov    rdi,QWORD PTR [rsp]
     7b0:	e8 00 00 00 00       	call   7b5 <_ZN2ioC1ENSt7__cxx1112basic_stringIcSt11char_traitsIcESaIcEEES5_+0x361>
     7b5:	85 c0                	test   eax,eax
     7b7:	75 4b                	jne    804 <_ZN2ioC1ENSt7__cxx1112basic_stringIcSt11char_traitsIcESaIcEEES5_+0x3b0>
     7b9:	48 8b 73 20          	mov    rsi,QWORD PTR [rbx+0x20]
     7bd:	ba 19 00 00 00       	mov    edx,0x19
     7c2:	4c 89 e7             	mov    rdi,r12
     7c5:	e8 00 00 00 00       	call   7ca <_ZN2ioC1ENSt7__cxx1112basic_stringIcSt11char_traitsIcESaIcEEES5_+0x376>
     7ca:	48 85 c0             	test   rax,rax
     7cd:	75 1b                	jne    7ea <_ZN2ioC1ENSt7__cxx1112basic_stringIcSt11char_traitsIcESaIcEEES5_+0x396>
     7cf:	48 8b 43 40          	mov    rax,QWORD PTR [rbx+0x40]
     7d3:	4c 89 ff             	mov    rdi,r15
     7d6:	48 03 78 e8          	add    rdi,QWORD PTR [rax-0x18]
     7da:	8b 77 20             	mov    esi,DWORD PTR [rdi+0x20]
     7dd:	83 ce 04             	or     esi,0x4
     7e0:	e8 00 00 00 00       	call   7e5 <_ZN2ioC1ENSt7__cxx1112basic_stringIcSt11char_traitsIcESaIcEEES5_+0x391>
     7e5:	e9 be 00 00 00       	jmp    8a8 <_ZN2ioC1ENSt7__cxx1112basic_stringIcSt11char_traitsIcESaIcEEES5_+0x454>
     7ea:	48 8b 43 40          	mov    rax,QWORD PTR [rbx+0x40]
     7ee:	4c 89 ff             	mov    rdi,r15
     7f1:	48 03 78 e8          	add    rdi,QWORD PTR [rax-0x18]
     7f5:	be 00 00 00 00       	mov    esi,0x0
     7fa:	e8 00 00 00 00       	call   7ff <_ZN2ioC1ENSt7__cxx1112basic_stringIcSt11char_traitsIcESaIcEEES5_+0x3ab>
     7ff:	e9 a4 00 00 00       	jmp    8a8 <_ZN2ioC1ENSt7__cxx1112basic_stringIcSt11char_traitsIcESaIcEEES5_+0x454>
     804:	ba 3e 00 00 00       	mov    edx,0x3e
     809:	be 00 00 00 00       	mov    esi,0x0
     80e:	bf 00 00 00 00       	mov    edi,0x0
     813:	e8 00 00 00 00       	call   818 <_ZN2ioC1ENSt7__cxx1112basic_stringIcSt11char_traitsIcESaIcEEES5_+0x3c4>
     818:	48 8b 05 00 00 00 00 	mov    rax,QWORD PTR [rip+0x0]        # 81f <_ZN2ioC1ENSt7__cxx1112basic_stringIcSt11char_traitsIcESaIcEEES5_+0x3cb>
     81f:	48 8b 40 e8          	mov    rax,QWORD PTR [rax-0x18]
     823:	48 8b a8 00 00 00 00 	mov    rbp,QWORD PTR [rax+0x0]
     82a:	48 85 ed             	test   rbp,rbp
     82d:	75 05                	jne    834 <_ZN2ioC1ENSt7__cxx1112basic_stringIcSt11char_traitsIcESaIcEEES5_+0x3e0>
     82f:	e8 00 00 00 00       	call   834 <_ZN2ioC1ENSt7__cxx1112basic_stringIcSt11char_traitsIcESaIcEEES5_+0x3e0>
     834:	80 7d 38 00          	cmp    BYTE PTR [rbp+0x38],0x0
     838:	74 06                	je     840 <_ZN2ioC1ENSt7__cxx1112basic_stringIcSt11char_traitsIcESaIcEEES5_+0x3ec>
     83a:	0f b6 45 43          	movzx  eax,BYTE PTR [rbp+0x43]
     83e:	eb 17                	jmp    857 <_ZN2ioC1ENSt7__cxx1112basic_stringIcSt11char_traitsIcESaIcEEES5_+0x403>
     840:	48 89 ef             	mov    rdi,rbp
     843:	e8 00 00 00 00       	call   848 <_ZN2ioC1ENSt7__cxx1112basic_stringIcSt11char_traitsIcESaIcEEES5_+0x3f4>
     848:	48 8b 45 00          	mov    rax,QWORD PTR [rbp+0x0]
     84c:	be 0a 00 00 00       	mov    esi,0xa
     851:	48 89 ef             	mov    rdi,rbp
     854:	ff 50 30             	call   QWORD PTR [rax+0x30]
     857:	0f be f0             	movsx  esi,al
     85a:	bf 00 00 00 00       	mov    edi,0x0
     85f:	e8 00 00 00 00       	call   864 <_ZN2ioC1ENSt7__cxx1112basic_stringIcSt11char_traitsIcESaIcEEES5_+0x410>
     864:	48 89 c7             	mov    rdi,rax
     867:	e8 00 00 00 00       	call   86c <_ZN2ioC1ENSt7__cxx1112basic_stringIcSt11char_traitsIcESaIcEEES5_+0x418>
     86c:	eb 3a                	jmp    8a8 <_ZN2ioC1ENSt7__cxx1112basic_stringIcSt11char_traitsIcESaIcEEES5_+0x454>
     86e:	48 89 c5             	mov    rbp,rax
     871:	4c 89 f7             	mov    rdi,r14
     874:	e8 00 00 00 00       	call   879 <_ZN2ioC1ENSt7__cxx1112basic_stringIcSt11char_traitsIcESaIcEEES5_+0x425>
     879:	4c 89 ff             	mov    rdi,r15
     87c:	e8 00 00 00 00       	call   881 <_ZN2ioC1ENSt7__cxx1112basic_stringIcSt11char_traitsIcESaIcEEES5_+0x42d>
     881:	48 8b 7b 20          	mov    rdi,QWORD PTR [rbx+0x20]
     885:	48 39 7c 24 18       	cmp    QWORD PTR [rsp+0x18],rdi
     88a:	74 05                	je     891 <_ZN2ioC1ENSt7__cxx1112basic_stringIcSt11char_traitsIcESaIcEEES5_+0x43d>
     88c:	e8 00 00 00 00       	call   891 <_ZN2ioC1ENSt7__cxx1112basic_stringIcSt11char_traitsIcESaIcEEES5_+0x43d>
     891:	48 8b 3b             	mov    rdi,QWORD PTR [rbx]
     894:	48 39 7c 24 10       	cmp    QWORD PTR [rsp+0x10],rdi
     899:	74 05                	je     8a0 <_ZN2ioC1ENSt7__cxx1112basic_stringIcSt11char_traitsIcESaIcEEES5_+0x44c>
     89b:	e8 00 00 00 00       	call   8a0 <_ZN2ioC1ENSt7__cxx1112basic_stringIcSt11char_traitsIcESaIcEEES5_+0x44c>
     8a0:	48 89 ef             	mov    rdi,rbp
     8a3:	e8 00 00 00 00       	call   8a8 <_ZN2ioC1ENSt7__cxx1112basic_stringIcSt11char_traitsIcESaIcEEES5_+0x454>
     8a8:	48 83 c4 28          	add    rsp,0x28
     8ac:	5b                   	pop    rbx
     8ad:	5d                   	pop    rbp
     8ae:	41 5c                	pop    r12
     8b0:	41 5d                	pop    r13
     8b2:	41 5e                	pop    r14
     8b4:	41 5f                	pop    r15
     8b6:	c3                   	ret    
     8b7:	90                   	nop

00000000000008b8 <_ZN2ioD1Ev>:
     8b8:	41 54                	push   r12
     8ba:	55                   	push   rbp
     8bb:	53                   	push   rbx
     8bc:	48 89 fb             	mov    rbx,rdi
     8bf:	4c 8d 67 40          	lea    r12,[rdi+0x40]
     8c3:	48 8d 6f 48          	lea    rbp,[rdi+0x48]
     8c7:	48 89 ef             	mov    rdi,rbp
     8ca:	e8 00 00 00 00       	call   8cf <_ZN2ioD1Ev+0x17>
     8cf:	48 85 c0             	test   rax,rax
     8d2:	75 16                	jne    8ea <_ZN2ioD1Ev+0x32>
     8d4:	48 8b 43 40          	mov    rax,QWORD PTR [rbx+0x40]
     8d8:	4c 89 e7             	mov    rdi,r12
     8db:	48 03 78 e8          	add    rdi,QWORD PTR [rax-0x18]
     8df:	8b 77 20             	mov    esi,DWORD PTR [rdi+0x20]
     8e2:	83 ce 04             	or     esi,0x4
     8e5:	e8 00 00 00 00       	call   8ea <_ZN2ioD1Ev+0x32>
     8ea:	48 c7 83 40 02 00 00 	mov    QWORD PTR [rbx+0x240],0x0
     8f1:	00 00 00 00 
     8f5:	48 c7 83 40 03 00 00 	mov    QWORD PTR [rbx+0x340],0x0
     8fc:	00 00 00 00 
     900:	48 c7 83 50 02 00 00 	mov    QWORD PTR [rbx+0x250],0x0
     907:	00 00 00 00 
     90b:	48 8d bb 50 02 00 00 	lea    rdi,[rbx+0x250]
     912:	e8 00 00 00 00       	call   917 <_ZN2ioD1Ev+0x5f>
     917:	48 8d bb b8 02 00 00 	lea    rdi,[rbx+0x2b8]
     91e:	e8 00 00 00 00       	call   923 <_ZN2ioD1Ev+0x6b>
     923:	48 c7 83 50 02 00 00 	mov    QWORD PTR [rbx+0x250],0x0
     92a:	00 00 00 00 
     92e:	48 8d bb 88 02 00 00 	lea    rdi,[rbx+0x288]
     935:	e8 00 00 00 00       	call   93a <_ZN2ioD1Ev+0x82>
     93a:	48 8b 05 00 00 00 00 	mov    rax,QWORD PTR [rip+0x0]        # 941 <_ZN2ioD1Ev+0x89>
     941:	48 89 83 40 02 00 00 	mov    QWORD PTR [rbx+0x240],rax
     948:	48 8b 40 e8          	mov    rax,QWORD PTR [rax-0x18]
     94c:	48 8b 15 00 00 00 00 	mov    rdx,QWORD PTR [rip+0x0]        # 953 <_ZN2ioD1Ev+0x9b>
     953:	48 89 94 03 40 02 00 	mov    QWORD PTR [rbx+rax*1+0x240],rdx
     95a:	00 
     95b:	48 c7 83 40 03 00 00 	mov    QWORD PTR [rbx+0x340],0x0
     962:	00 00 00 00 
     966:	48 8d bb 40 03 00 00 	lea    rdi,[rbx+0x340]
     96d:	e8 00 00 00 00       	call   972 <_ZN2ioD1Ev+0xba>
     972:	48 c7 43 40 00 00 00 	mov    QWORD PTR [rbx+0x40],0x0
     979:	00 
     97a:	48 c7 83 38 01 00 00 	mov    QWORD PTR [rbx+0x138],0x0
     981:	00 00 00 00 
     985:	48 c7 43 48 00 00 00 	mov    QWORD PTR [rbx+0x48],0x0
     98c:	00 
     98d:	48 89 ef             	mov    rdi,rbp
     990:	e8 00 00 00 00       	call   995 <_ZN2ioD1Ev+0xdd>
     995:	48 8d bb b0 00 00 00 	lea    rdi,[rbx+0xb0]
     99c:	e8 00 00 00 00       	call   9a1 <_ZN2ioD1Ev+0xe9>
     9a1:	48 c7 43 48 00 00 00 	mov    QWORD PTR [rbx+0x48],0x0
     9a8:	00 
     9a9:	48 8d bb 80 00 00 00 	lea    rdi,[rbx+0x80]
     9b0:	e8 00 00 00 00       	call   9b5 <_ZN2ioD1Ev+0xfd>
     9b5:	48 8b 05 00 00 00 00 	mov    rax,QWORD PTR [rip+0x0]        # 9bc <_ZN2ioD1Ev+0x104>
     9bc:	48 89 43 40          	mov    QWORD PTR [rbx+0x40],rax
     9c0:	48 8b 40 e8          	mov    rax,QWORD PTR [rax-0x18]
     9c4:	48 8b 15 00 00 00 00 	mov    rdx,QWORD PTR [rip+0x0]        # 9cb <_ZN2ioD1Ev+0x113>
     9cb:	48 89 54 03 40       	mov    QWORD PTR [rbx+rax*1+0x40],rdx
     9d0:	48 c7 83 38 01 00 00 	mov    QWORD PTR [rbx+0x138],0x0
     9d7:	00 00 00 00 
     9db:	48 8d bb 38 01 00 00 	lea    rdi,[rbx+0x138]
     9e2:	e8 00 00 00 00       	call   9e7 <_ZN2ioD1Ev+0x12f>
     9e7:	48 8b 7b 20          	mov    rdi,QWORD PTR [rbx+0x20]
     9eb:	48 8d 43 30          	lea    rax,[rbx+0x30]
     9ef:	48 39 c7             	cmp    rdi,rax
     9f2:	74 05                	je     9f9 <_ZN2ioD1Ev+0x141>
     9f4:	e8 00 00 00 00       	call   9f9 <_ZN2ioD1Ev+0x141>
     9f9:	48 8b 3b             	mov    rdi,QWORD PTR [rbx]
     9fc:	48 83 c3 10          	add    rbx,0x10
     a00:	48 39 df             	cmp    rdi,rbx
     a03:	74 05                	je     a0a <_ZN2ioD1Ev+0x152>
     a05:	e8 00 00 00 00       	call   a0a <_ZN2ioD1Ev+0x152>
     a0a:	5b                   	pop    rbx
     a0b:	5d                   	pop    rbp
     a0c:	41 5c                	pop    r12
     a0e:	c3                   	ret    
     a0f:	90                   	nop

0000000000000a10 <_ZN2io5writeENSt7__cxx1112basic_stringIcSt11char_traitsIcESaIcEEE>:
     a10:	55                   	push   rbp
     a11:	53                   	push   rbx
     a12:	48 83 ec 08          	sub    rsp,0x8
     a16:	48 89 fb             	mov    rbx,rdi
     a19:	48 89 f5             	mov    rbp,rsi
     a1c:	be 00 00 00 00       	mov    esi,0x0
     a21:	e8 00 00 00 00       	call   a26 <_ZN2io5writeENSt7__cxx1112basic_stringIcSt11char_traitsIcESaIcEEE+0x16>
     a26:	85 c0                	test   eax,eax
     a28:	75 69                	jne    a93 <_ZN2io5writeENSt7__cxx1112basic_stringIcSt11char_traitsIcESaIcEEE+0x83>
     a2a:	ba 26 00 00 00       	mov    edx,0x26
     a2f:	be 00 00 00 00       	mov    esi,0x0
     a34:	bf 00 00 00 00       	mov    edi,0x0
     a39:	e8 00 00 00 00       	call   a3e <_ZN2io5writeENSt7__cxx1112basic_stringIcSt11char_traitsIcESaIcEEE+0x2e>
     a3e:	48 8b 05 00 00 00 00 	mov    rax,QWORD PTR [rip+0x0]        # a45 <_ZN2io5writeENSt7__cxx1112basic_stringIcSt11char_traitsIcESaIcEEE+0x35>
     a45:	48 8b 40 e8          	mov    rax,QWORD PTR [rax-0x18]
     a49:	48 8b 98 00 00 00 00 	mov    rbx,QWORD PTR [rax+0x0]
     a50:	48 85 db             	test   rbx,rbx
     a53:	75 05                	jne    a5a <_ZN2io5writeENSt7__cxx1112basic_stringIcSt11char_traitsIcESaIcEEE+0x4a>
     a55:	e8 00 00 00 00       	call   a5a <_ZN2io5writeENSt7__cxx1112basic_stringIcSt11char_traitsIcESaIcEEE+0x4a>
     a5a:	80 7b 38 00          	cmp    BYTE PTR [rbx+0x38],0x0
     a5e:	74 06                	je     a66 <_ZN2io5writeENSt7__cxx1112basic_stringIcSt11char_traitsIcESaIcEEE+0x56>
     a60:	0f b6 43 43          	movzx  eax,BYTE PTR [rbx+0x43]
     a64:	eb 16                	jmp    a7c <_ZN2io5writeENSt7__cxx1112basic_stringIcSt11char_traitsIcESaIcEEE+0x6c>
     a66:	48 89 df             	mov    rdi,rbx
     a69:	e8 00 00 00 00       	call   a6e <_ZN2io5writeENSt7__cxx1112basic_stringIcSt11char_traitsIcESaIcEEE+0x5e>
     a6e:	48 8b 03             	mov    rax,QWORD PTR [rbx]
     a71:	be 0a 00 00 00       	mov    esi,0xa
     a76:	48 89 df             	mov    rdi,rbx
     a79:	ff 50 30             	call   QWORD PTR [rax+0x30]
     a7c:	0f be f0             	movsx  esi,al
     a7f:	bf 00 00 00 00       	mov    edi,0x0
     a84:	e8 00 00 00 00       	call   a89 <_ZN2io5writeENSt7__cxx1112basic_stringIcSt11char_traitsIcESaIcEEE+0x79>
     a89:	48 89 c7             	mov    rdi,rax
     a8c:	e8 00 00 00 00       	call   a91 <_ZN2io5writeENSt7__cxx1112basic_stringIcSt11char_traitsIcESaIcEEE+0x81>
     a91:	eb 11                	jmp    aa4 <_ZN2io5writeENSt7__cxx1112basic_stringIcSt11char_traitsIcESaIcEEE+0x94>
     a93:	48 8b 55 08          	mov    rdx,QWORD PTR [rbp+0x8]
     a97:	48 8d 7b 40          	lea    rdi,[rbx+0x40]
     a9b:	48 8b 75 00          	mov    rsi,QWORD PTR [rbp+0x0]
     a9f:	e8 00 00 00 00       	call   aa4 <_ZN2io5writeENSt7__cxx1112basic_stringIcSt11char_traitsIcESaIcEEE+0x94>
     aa4:	48 83 c4 08          	add    rsp,0x8
     aa8:	5b                   	pop    rbx
     aa9:	5d                   	pop    rbp
     aaa:	c3                   	ret    
     aab:	90                   	nop

0000000000000aac <_ZN2io10writeFloatEf>:
     aac:	53                   	push   rbx
     aad:	48 83 ec 10          	sub    rsp,0x10
     ab1:	48 89 fb             	mov    rbx,rdi
     ab4:	f3 0f 11 44 24 0c    	movss  DWORD PTR [rsp+0xc],xmm0
     aba:	be 00 00 00 00       	mov    esi,0x0
     abf:	e8 00 00 00 00       	call   ac4 <_ZN2io10writeFloatEf+0x18>
     ac4:	85 c0                	test   eax,eax
     ac6:	75 69                	jne    b31 <_ZN2io10writeFloatEf+0x85>
     ac8:	ba 26 00 00 00       	mov    edx,0x26
     acd:	be 00 00 00 00       	mov    esi,0x0
     ad2:	bf 00 00 00 00       	mov    edi,0x0
     ad7:	e8 00 00 00 00       	call   adc <_ZN2io10writeFloatEf+0x30>
     adc:	48 8b 05 00 00 00 00 	mov    rax,QWORD PTR [rip+0x0]        # ae3 <_ZN2io10writeFloatEf+0x37>
     ae3:	48 8b 40 e8          	mov    rax,QWORD PTR [rax-0x18]
     ae7:	48 8b 98 00 00 00 00 	mov    rbx,QWORD PTR [rax+0x0]
     aee:	48 85 db             	test   rbx,rbx
     af1:	75 05                	jne    af8 <_ZN2io10writeFloatEf+0x4c>
     af3:	e8 00 00 00 00       	call   af8 <_ZN2io10writeFloatEf+0x4c>
     af8:	80 7b 38 00          	cmp    BYTE PTR [rbx+0x38],0x0
     afc:	74 06                	je     b04 <_ZN2io10writeFloatEf+0x58>
     afe:	0f b6 43 43          	movzx  eax,BYTE PTR [rbx+0x43]
     b02:	eb 16                	jmp    b1a <_ZN2io10writeFloatEf+0x6e>
     b04:	48 89 df             	mov    rdi,rbx
     b07:	e8 00 00 00 00       	call   b0c <_ZN2io10writeFloatEf+0x60>
     b0c:	48 8b 03             	mov    rax,QWORD PTR [rbx]
     b0f:	be 0a 00 00 00       	mov    esi,0xa
     b14:	48 89 df             	mov    rdi,rbx
     b17:	ff 50 30             	call   QWORD PTR [rax+0x30]
     b1a:	0f be f0             	movsx  esi,al
     b1d:	bf 00 00 00 00       	mov    edi,0x0
     b22:	e8 00 00 00 00       	call   b27 <_ZN2io10writeFloatEf+0x7b>
     b27:	48 89 c7             	mov    rdi,rax
     b2a:	e8 00 00 00 00       	call   b2f <_ZN2io10writeFloatEf+0x83>
     b2f:	eb 0f                	jmp    b40 <_ZN2io10writeFloatEf+0x94>
     b31:	f3 0f 5a 44 24 0c    	cvtss2sd xmm0,DWORD PTR [rsp+0xc]
     b37:	48 8d 7b 40          	lea    rdi,[rbx+0x40]
     b3b:	e8 00 00 00 00       	call   b40 <_ZN2io10writeFloatEf+0x94>
     b40:	48 83 c4 10          	add    rsp,0x10
     b44:	5b                   	pop    rbx
     b45:	c3                   	ret    

0000000000000b46 <_ZN2io8writeIntEi>:
     b46:	55                   	push   rbp
     b47:	53                   	push   rbx
     b48:	48 83 ec 08          	sub    rsp,0x8
     b4c:	48 89 fb             	mov    rbx,rdi
     b4f:	89 f5                	mov    ebp,esi
     b51:	be 00 00 00 00       	mov    esi,0x0
     b56:	e8 00 00 00 00       	call   b5b <_ZN2io8writeIntEi+0x15>
     b5b:	85 c0                	test   eax,eax
     b5d:	75 69                	jne    bc8 <_ZN2io8writeIntEi+0x82>
     b5f:	ba 26 00 00 00       	mov    edx,0x26
     b64:	be 00 00 00 00       	mov    esi,0x0
     b69:	bf 00 00 00 00       	mov    edi,0x0
     b6e:	e8 00 00 00 00       	call   b73 <_ZN2io8writeIntEi+0x2d>
     b73:	48 8b 05 00 00 00 00 	mov    rax,QWORD PTR [rip+0x0]        # b7a <_ZN2io8writeIntEi+0x34>
     b7a:	48 8b 40 e8          	mov    rax,QWORD PTR [rax-0x18]
     b7e:	48 8b 98 00 00 00 00 	mov    rbx,QWORD PTR [rax+0x0]
     b85:	48 85 db             	test   rbx,rbx
     b88:	75 05                	jne    b8f <_ZN2io8writeIntEi+0x49>
     b8a:	e8 00 00 00 00       	call   b8f <_ZN2io8writeIntEi+0x49>
     b8f:	80 7b 38 00          	cmp    BYTE PTR [rbx+0x38],0x0
     b93:	74 06                	je     b9b <_ZN2io8writeIntEi+0x55>
     b95:	0f b6 43 43          	movzx  eax,BYTE PTR [rbx+0x43]
     b99:	eb 16                	jmp    bb1 <_ZN2io8writeIntEi+0x6b>
     b9b:	48 89 df             	mov    rdi,rbx
     b9e:	e8 00 00 00 00       	call   ba3 <_ZN2io8writeIntEi+0x5d>
     ba3:	48 8b 03             	mov    rax,QWORD PTR [rbx]
     ba6:	be 0a 00 00 00       	mov    esi,0xa
     bab:	48 89 df             	mov    rdi,rbx
     bae:	ff 50 30             	call   QWORD PTR [rax+0x30]
     bb1:	0f be f0             	movsx  esi,al
     bb4:	bf 00 00 00 00       	mov    edi,0x0
     bb9:	e8 00 00 00 00       	call   bbe <_ZN2io8writeIntEi+0x78>
     bbe:	48 89 c7             	mov    rdi,rax
     bc1:	e8 00 00 00 00       	call   bc6 <_ZN2io8writeIntEi+0x80>
     bc6:	eb 0b                	jmp    bd3 <_ZN2io8writeIntEi+0x8d>
     bc8:	48 8d 7b 40          	lea    rdi,[rbx+0x40]
     bcc:	89 ee                	mov    esi,ebp
     bce:	e8 00 00 00 00       	call   bd3 <_ZN2io8writeIntEi+0x8d>
     bd3:	48 83 c4 08          	add    rsp,0x8
     bd7:	5b                   	pop    rbx
     bd8:	5d                   	pop    rbp
     bd9:	c3                   	ret    

0000000000000bda <_ZN2io7newLineEv>:
     bda:	53                   	push   rbx
     bdb:	48 89 fb             	mov    rbx,rdi
     bde:	be 00 00 00 00       	mov    esi,0x0
     be3:	e8 00 00 00 00       	call   be8 <_ZN2io7newLineEv+0xe>
     be8:	85 c0                	test   eax,eax
     bea:	75 69                	jne    c55 <_ZN2io7newLineEv+0x7b>
     bec:	ba 26 00 00 00       	mov    edx,0x26
     bf1:	be 00 00 00 00       	mov    esi,0x0
     bf6:	bf 00 00 00 00       	mov    edi,0x0
     bfb:	e8 00 00 00 00       	call   c00 <_ZN2io7newLineEv+0x26>
     c00:	48 8b 05 00 00 00 00 	mov    rax,QWORD PTR [rip+0x0]        # c07 <_ZN2io7newLineEv+0x2d>
     c07:	48 8b 40 e8          	mov    rax,QWORD PTR [rax-0x18]
     c0b:	48 8b 98 00 00 00 00 	mov    rbx,QWORD PTR [rax+0x0]
     c12:	48 85 db             	test   rbx,rbx
     c15:	75 05                	jne    c1c <_ZN2io7newLineEv+0x42>
     c17:	e8 00 00 00 00       	call   c1c <_ZN2io7newLineEv+0x42>
     c1c:	80 7b 38 00          	cmp    BYTE PTR [rbx+0x38],0x0
     c20:	74 06                	je     c28 <_ZN2io7newLineEv+0x4e>
     c22:	0f b6 43 43          	movzx  eax,BYTE PTR [rbx+0x43]
     c26:	eb 16                	jmp    c3e <_ZN2io7newLineEv+0x64>
     c28:	48 89 df             	mov    rdi,rbx
     c2b:	e8 00 00 00 00       	call   c30 <_ZN2io7newLineEv+0x56>
     c30:	48 8b 03             	mov    rax,QWORD PTR [rbx]
     c33:	be 0a 00 00 00       	mov    esi,0xa
     c38:	48 89 df             	mov    rdi,rbx
     c3b:	ff 50 30             	call   QWORD PTR [rax+0x30]
     c3e:	0f be f0             	movsx  esi,al
     c41:	bf 00 00 00 00       	mov    edi,0x0
     c46:	e8 00 00 00 00       	call   c4b <_ZN2io7newLineEv+0x71>
     c4b:	48 89 c7             	mov    rdi,rax
     c4e:	e8 00 00 00 00       	call   c53 <_ZN2io7newLineEv+0x79>
     c53:	eb 13                	jmp    c68 <_ZN2io7newLineEv+0x8e>
     c55:	48 8d 7b 40          	lea    rdi,[rbx+0x40]
     c59:	ba 01 00 00 00       	mov    edx,0x1
     c5e:	be 00 00 00 00       	mov    esi,0x0
     c63:	e8 00 00 00 00       	call   c68 <_ZN2io7newLineEv+0x8e>
     c68:	5b                   	pop    rbx
     c69:	c3                   	ret    

0000000000000c6a <_ZN2io8readLineERNSt7__cxx1112basic_stringIcSt11char_traitsIcESaIcEEE>:
     c6a:	41 54                	push   r12
     c6c:	55                   	push   rbp
     c6d:	53                   	push   rbx
     c6e:	48 89 fb             	mov    rbx,rdi
     c71:	48 89 f5             	mov    rbp,rsi
     c74:	be 00 00 00 00       	mov    esi,0x0
     c79:	e8 00 00 00 00       	call   c7e <_ZN2io8readLineERNSt7__cxx1112basic_stringIcSt11char_traitsIcESaIcEEE+0x14>
     c7e:	85 c0                	test   eax,eax
     c80:	75 6e                	jne    cf0 <_ZN2io8readLineERNSt7__cxx1112basic_stringIcSt11char_traitsIcESaIcEEE+0x86>
     c82:	ba 35 00 00 00       	mov    edx,0x35
     c87:	be 00 00 00 00       	mov    esi,0x0
     c8c:	bf 00 00 00 00       	mov    edi,0x0
     c91:	e8 00 00 00 00       	call   c96 <_ZN2io8readLineERNSt7__cxx1112basic_stringIcSt11char_traitsIcESaIcEEE+0x2c>
     c96:	48 8b 05 00 00 00 00 	mov    rax,QWORD PTR [rip+0x0]        # c9d <_ZN2io8readLineERNSt7__cxx1112basic_stringIcSt11char_traitsIcESaIcEEE+0x33>
     c9d:	48 8b 40 e8          	mov    rax,QWORD PTR [rax-0x18]
     ca1:	48 8b 98 00 00 00 00 	mov    rbx,QWORD PTR [rax+0x0]
     ca8:	48 85 db             	test   rbx,rbx
     cab:	75 05                	jne    cb2 <_ZN2io8readLineERNSt7__cxx1112basic_stringIcSt11char_traitsIcESaIcEEE+0x48>
     cad:	e8 00 00 00 00       	call   cb2 <_ZN2io8readLineERNSt7__cxx1112basic_stringIcSt11char_traitsIcESaIcEEE+0x48>
     cb2:	80 7b 38 00          	cmp    BYTE PTR [rbx+0x38],0x0
     cb6:	74 06                	je     cbe <_ZN2io8readLineERNSt7__cxx1112basic_stringIcSt11char_traitsIcESaIcEEE+0x54>
     cb8:	0f b6 43 43          	movzx  eax,BYTE PTR [rbx+0x43]
     cbc:	eb 16                	jmp    cd4 <_ZN2io8readLineERNSt7__cxx1112basic_stringIcSt11char_traitsIcESaIcEEE+0x6a>
     cbe:	48 89 df             	mov    rdi,rbx
     cc1:	e8 00 00 00 00       	call   cc6 <_ZN2io8readLineERNSt7__cxx1112basic_stringIcSt11char_traitsIcESaIcEEE+0x5c>
     cc6:	48 8b 03             	mov    rax,QWORD PTR [rbx]
     cc9:	be 0a 00 00 00       	mov    esi,0xa
     cce:	48 89 df             	mov    rdi,rbx
     cd1:	ff 50 30             	call   QWORD PTR [rax+0x30]
     cd4:	0f be f0             	movsx  esi,al
     cd7:	bf 00 00 00 00       	mov    edi,0x0
     cdc:	e8 00 00 00 00       	call   ce1 <_ZN2io8readLineERNSt7__cxx1112basic_stringIcSt11char_traitsIcESaIcEEE+0x77>
     ce1:	48 89 c7             	mov    rdi,rax
     ce4:	e8 00 00 00 00       	call   ce9 <_ZN2io8readLineERNSt7__cxx1112basic_stringIcSt11char_traitsIcESaIcEEE+0x7f>
     ce9:	b8 00 00 00 00       	mov    eax,0x0
     cee:	eb 63                	jmp    d53 <_ZN2io8readLineERNSt7__cxx1112basic_stringIcSt11char_traitsIcESaIcEEE+0xe9>
     cf0:	4c 8d a3 40 02 00 00 	lea    r12,[rbx+0x240]
     cf7:	48 8b 83 40 02 00 00 	mov    rax,QWORD PTR [rbx+0x240]
     cfe:	48 8b 40 e8          	mov    rax,QWORD PTR [rax-0x18]
     d02:	49 8b 9c 04 f0 00 00 	mov    rbx,QWORD PTR [r12+rax*1+0xf0]
     d09:	00 
     d0a:	48 85 db             	test   rbx,rbx
     d0d:	75 05                	jne    d14 <_ZN2io8readLineERNSt7__cxx1112basic_stringIcSt11char_traitsIcESaIcEEE+0xaa>
     d0f:	e8 00 00 00 00       	call   d14 <_ZN2io8readLineERNSt7__cxx1112basic_stringIcSt11char_traitsIcESaIcEEE+0xaa>
     d14:	80 7b 38 00          	cmp    BYTE PTR [rbx+0x38],0x0
     d18:	74 06                	je     d20 <_ZN2io8readLineERNSt7__cxx1112basic_stringIcSt11char_traitsIcESaIcEEE+0xb6>
     d1a:	0f b6 43 43          	movzx  eax,BYTE PTR [rbx+0x43]
     d1e:	eb 16                	jmp    d36 <_ZN2io8readLineERNSt7__cxx1112basic_stringIcSt11char_traitsIcESaIcEEE+0xcc>
     d20:	48 89 df             	mov    rdi,rbx
     d23:	e8 00 00 00 00       	call   d28 <_ZN2io8readLineERNSt7__cxx1112basic_stringIcSt11char_traitsIcESaIcEEE+0xbe>
     d28:	48 8b 03             	mov    rax,QWORD PTR [rbx]
     d2b:	be 0a 00 00 00       	mov    esi,0xa
     d30:	48 89 df             	mov    rdi,rbx
     d33:	ff 50 30             	call   QWORD PTR [rax+0x30]
     d36:	0f be d0             	movsx  edx,al
     d39:	48 89 ee             	mov    rsi,rbp
     d3c:	4c 89 e7             	mov    rdi,r12
     d3f:	e8 00 00 00 00       	call   d44 <_ZN2io8readLineERNSt7__cxx1112basic_stringIcSt11char_traitsIcESaIcEEE+0xda>
     d44:	48 8b 10             	mov    rdx,QWORD PTR [rax]
     d47:	48 8b 52 e8          	mov    rdx,QWORD PTR [rdx-0x18]
     d4b:	f6 44 10 20 05       	test   BYTE PTR [rax+rdx*1+0x20],0x5
     d50:	0f 94 c0             	sete   al
     d53:	5b                   	pop    rbx
     d54:	5d                   	pop    rbp
     d55:	41 5c                	pop    r12
     d57:	c3                   	ret    

0000000000000d58 <_ZN2io8readWordERNSt7__cxx1112basic_stringIcSt11char_traitsIcESaIcEEE>:
     d58:	55                   	push   rbp
     d59:	53                   	push   rbx
     d5a:	48 83 ec 08          	sub    rsp,0x8
     d5e:	48 89 fb             	mov    rbx,rdi
     d61:	48 89 f5             	mov    rbp,rsi
     d64:	be 00 00 00 00       	mov    esi,0x0
     d69:	e8 00 00 00 00       	call   d6e <_ZN2io8readWordERNSt7__cxx1112basic_stringIcSt11char_traitsIcESaIcEEE+0x16>
     d6e:	85 c0                	test   eax,eax
     d70:	75 6e                	jne    de0 <_ZN2io8readWordERNSt7__cxx1112basic_stringIcSt11char_traitsIcESaIcEEE+0x88>
     d72:	ba 35 00 00 00       	mov    edx,0x35
     d77:	be 00 00 00 00       	mov    esi,0x0
     d7c:	bf 00 00 00 00       	mov    edi,0x0
     d81:	e8 00 00 00 00       	call   d86 <_ZN2io8readWordERNSt7__cxx1112basic_stringIcSt11char_traitsIcESaIcEEE+0x2e>
     d86:	48 8b 05 00 00 00 00 	mov    rax,QWORD PTR [rip+0x0]        # d8d <_ZN2io8readWordERNSt7__cxx1112basic_stringIcSt11char_traitsIcESaIcEEE+0x35>
     d8d:	48 8b 40 e8          	mov    rax,QWORD PTR [rax-0x18]
     d91:	48 8b 98 00 00 00 00 	mov    rbx,QWORD PTR [rax+0x0]
     d98:	48 85 db             	test   rbx,rbx
     d9b:	75 05                	jne    da2 <_ZN2io8readWordERNSt7__cxx1112basic_stringIcSt11char_traitsIcESaIcEEE+0x4a>
     d9d:	e8 00 00 00 00       	call   da2 <_ZN2io8readWordERNSt7__cxx1112basic_stringIcSt11char_traitsIcESaIcEEE+0x4a>
     da2:	80 7b 38 00          	cmp    BYTE PTR [rbx+0x38],0x0
     da6:	74 06                	je     dae <_ZN2io8readWordERNSt7__cxx1112basic_stringIcSt11char_traitsIcESaIcEEE+0x56>
     da8:	0f b6 43 43          	movzx  eax,BYTE PTR [rbx+0x43]
     dac:	eb 16                	jmp    dc4 <_ZN2io8readWordERNSt7__cxx1112basic_stringIcSt11char_traitsIcESaIcEEE+0x6c>
     dae:	48 89 df             	mov    rdi,rbx
     db1:	e8 00 00 00 00       	call   db6 <_ZN2io8readWordERNSt7__cxx1112basic_stringIcSt11char_traitsIcESaIcEEE+0x5e>
     db6:	48 8b 03             	mov    rax,QWORD PTR [rbx]
     db9:	be 0a 00 00 00       	mov    esi,0xa
     dbe:	48 89 df             	mov    rdi,rbx
     dc1:	ff 50 30             	call   QWORD PTR [rax+0x30]
     dc4:	0f be f0             	movsx  esi,al
     dc7:	bf 00 00 00 00       	mov    edi,0x0
     dcc:	e8 00 00 00 00       	call   dd1 <_ZN2io8readWordERNSt7__cxx1112basic_stringIcSt11char_traitsIcESaIcEEE+0x79>
     dd1:	48 89 c7             	mov    rdi,rax
     dd4:	e8 00 00 00 00       	call   dd9 <_ZN2io8readWordERNSt7__cxx1112basic_stringIcSt11char_traitsIcESaIcEEE+0x81>
     dd9:	b8 00 00 00 00       	mov    eax,0x0
     dde:	eb 1e                	jmp    dfe <_ZN2io8readWordERNSt7__cxx1112basic_stringIcSt11char_traitsIcESaIcEEE+0xa6>
     de0:	48 8d bb 40 02 00 00 	lea    rdi,[rbx+0x240]
     de7:	48 89 ee             	mov    rsi,rbp
     dea:	e8 00 00 00 00       	call   def <_ZN2io8readWordERNSt7__cxx1112basic_stringIcSt11char_traitsIcESaIcEEE+0x97>
     def:	48 8b 10             	mov    rdx,QWORD PTR [rax]
     df2:	48 8b 52 e8          	mov    rdx,QWORD PTR [rdx-0x18]
     df6:	f6 44 10 20 05       	test   BYTE PTR [rax+rdx*1+0x20],0x5
     dfb:	0f 94 c0             	sete   al
     dfe:	48 83 c4 08          	add    rsp,0x8
     e02:	5b                   	pop    rbx
     e03:	5d                   	pop    rbp
     e04:	c3                   	ret    
     e05:	90                   	nop

0000000000000e06 <_ZN2io9readFloatERf>:
     e06:	55                   	push   rbp
     e07:	53                   	push   rbx
     e08:	48 83 ec 08          	sub    rsp,0x8
     e0c:	48 89 fb             	mov    rbx,rdi
     e0f:	48 89 f5             	mov    rbp,rsi
     e12:	be 00 00 00 00       	mov    esi,0x0
     e17:	e8 00 00 00 00       	call   e1c <_ZN2io9readFloatERf+0x16>
     e1c:	85 c0                	test   eax,eax
     e1e:	75 6e                	jne    e8e <_ZN2io9readFloatERf+0x88>
     e20:	ba 35 00 00 00       	mov    edx,0x35
     e25:	be 00 00 00 00       	mov    esi,0x0
     e2a:	bf 00 00 00 00       	mov    edi,0x0
     e2f:	e8 00 00 00 00       	call   e34 <_ZN2io9readFloatERf+0x2e>
     e34:	48 8b 05 00 00 00 00 	mov    rax,QWORD PTR [rip+0x0]        # e3b <_ZN2io9readFloatERf+0x35>
     e3b:	48 8b 40 e8          	mov    rax,QWORD PTR [rax-0x18]
     e3f:	48 8b 98 00 00 00 00 	mov    rbx,QWORD PTR [rax+0x0]
     e46:	48 85 db             	test   rbx,rbx
     e49:	75 05                	jne    e50 <_ZN2io9readFloatERf+0x4a>
     e4b:	e8 00 00 00 00       	call   e50 <_ZN2io9readFloatERf+0x4a>
     e50:	80 7b 38 00          	cmp    BYTE PTR [rbx+0x38],0x0
     e54:	74 06                	je     e5c <_ZN2io9readFloatERf+0x56>
     e56:	0f b6 43 43          	movzx  eax,BYTE PTR [rbx+0x43]
     e5a:	eb 16                	jmp    e72 <_ZN2io9readFloatERf+0x6c>
     e5c:	48 89 df             	mov    rdi,rbx
     e5f:	e8 00 00 00 00       	call   e64 <_ZN2io9readFloatERf+0x5e>
     e64:	48 8b 03             	mov    rax,QWORD PTR [rbx]
     e67:	be 0a 00 00 00       	mov    esi,0xa
     e6c:	48 89 df             	mov    rdi,rbx
     e6f:	ff 50 30             	call   QWORD PTR [rax+0x30]
     e72:	0f be f0             	movsx  esi,al
     e75:	bf 00 00 00 00       	mov    edi,0x0
     e7a:	e8 00 00 00 00       	call   e7f <_ZN2io9readFloatERf+0x79>
     e7f:	48 89 c7             	mov    rdi,rax
     e82:	e8 00 00 00 00       	call   e87 <_ZN2io9readFloatERf+0x81>
     e87:	b8 00 00 00 00       	mov    eax,0x0
     e8c:	eb 1e                	jmp    eac <_ZN2io9readFloatERf+0xa6>
     e8e:	48 8d bb 40 02 00 00 	lea    rdi,[rbx+0x240]
     e95:	48 89 ee             	mov    rsi,rbp
     e98:	e8 00 00 00 00       	call   e9d <_ZN2io9readFloatERf+0x97>
     e9d:	48 8b 10             	mov    rdx,QWORD PTR [rax]
     ea0:	48 8b 52 e8          	mov    rdx,QWORD PTR [rdx-0x18]
     ea4:	f6 44 10 20 05       	test   BYTE PTR [rax+rdx*1+0x20],0x5
     ea9:	0f 94 c0             	sete   al
     eac:	48 83 c4 08          	add    rsp,0x8
     eb0:	5b                   	pop    rbx
     eb1:	5d                   	pop    rbp
     eb2:	c3                   	ret    
     eb3:	90                   	nop

0000000000000eb4 <_ZN2io7readIntERi>:
     eb4:	55                   	push   rbp
     eb5:	53                   	push   rbx
     eb6:	48 83 ec 08          	sub    rsp,0x8
     eba:	48 89 fb             	mov    rbx,rdi
     ebd:	48 89 f5             	mov    rbp,rsi
     ec0:	be 00 00 00 00       	mov    esi,0x0
     ec5:	e8 00 00 00 00       	call   eca <_ZN2io7readIntERi+0x16>
     eca:	85 c0                	test   eax,eax
     ecc:	75 6e                	jne    f3c <_ZN2io7readIntERi+0x88>
     ece:	ba 35 00 00 00       	mov    edx,0x35
     ed3:	be 00 00 00 00       	mov    esi,0x0
     ed8:	bf 00 00 00 00       	mov    edi,0x0
     edd:	e8 00 00 00 00       	call   ee2 <_ZN2io7readIntERi+0x2e>
     ee2:	48 8b 05 00 00 00 00 	mov    rax,QWORD PTR [rip+0x0]        # ee9 <_ZN2io7readIntERi+0x35>
     ee9:	48 8b 40 e8          	mov    rax,QWORD PTR [rax-0x18]
     eed:	48 8b 98 00 00 00 00 	mov    rbx,QWORD PTR [rax+0x0]
     ef4:	48 85 db             	test   rbx,rbx
     ef7:	75 05                	jne    efe <_ZN2io7readIntERi+0x4a>
     ef9:	e8 00 00 00 00       	call   efe <_ZN2io7readIntERi+0x4a>
     efe:	80 7b 38 00          	cmp    BYTE PTR [rbx+0x38],0x0
     f02:	74 06                	je     f0a <_ZN2io7readIntERi+0x56>
     f04:	0f b6 43 43          	movzx  eax,BYTE PTR [rbx+0x43]
     f08:	eb 16                	jmp    f20 <_ZN2io7readIntERi+0x6c>
     f0a:	48 89 df             	mov    rdi,rbx
     f0d:	e8 00 00 00 00       	call   f12 <_ZN2io7readIntERi+0x5e>
     f12:	48 8b 03             	mov    rax,QWORD PTR [rbx]
     f15:	be 0a 00 00 00       	mov    esi,0xa
     f1a:	48 89 df             	mov    rdi,rbx
     f1d:	ff 50 30             	call   QWORD PTR [rax+0x30]
     f20:	0f be f0             	movsx  esi,al
     f23:	bf 00 00 00 00       	mov    edi,0x0
     f28:	e8 00 00 00 00       	call   f2d <_ZN2io7readIntERi+0x79>
     f2d:	48 89 c7             	mov    rdi,rax
     f30:	e8 00 00 00 00       	call   f35 <_ZN2io7readIntERi+0x81>
     f35:	b8 00 00 00 00       	mov    eax,0x0
     f3a:	eb 1e                	jmp    f5a <_ZN2io7readIntERi+0xa6>
     f3c:	48 8d bb 40 02 00 00 	lea    rdi,[rbx+0x240]
     f43:	48 89 ee             	mov    rsi,rbp
     f46:	e8 00 00 00 00       	call   f4b <_ZN2io7readIntERi+0x97>
     f4b:	48 8b 10             	mov    rdx,QWORD PTR [rax]
     f4e:	48 8b 52 e8          	mov    rdx,QWORD PTR [rdx-0x18]
     f52:	f6 44 10 20 05       	test   BYTE PTR [rax+rdx*1+0x20],0x5
     f57:	0f 94 c0             	sete   al
     f5a:	48 83 c4 08          	add    rsp,0x8
     f5e:	5b                   	pop    rbx
     f5f:	5d                   	pop    rbp
     f60:	c3                   	ret    
     f61:	90                   	nop

0000000000000f62 <_ZN2io8readBoolERb>:
     f62:	55                   	push   rbp
     f63:	53                   	push   rbx
     f64:	48 83 ec 08          	sub    rsp,0x8
     f68:	48 89 fb             	mov    rbx,rdi
     f6b:	48 89 f5             	mov    rbp,rsi
     f6e:	be 00 00 00 00       	mov    esi,0x0
     f73:	e8 00 00 00 00       	call   f78 <_ZN2io8readBoolERb+0x16>
     f78:	85 c0                	test   eax,eax
     f7a:	75 6e                	jne    fea <_ZN2io8readBoolERb+0x88>
     f7c:	ba 35 00 00 00       	mov    edx,0x35
     f81:	be 00 00 00 00       	mov    esi,0x0
     f86:	bf 00 00 00 00       	mov    edi,0x0
     f8b:	e8 00 00 00 00       	call   f90 <_ZN2io8readBoolERb+0x2e>
     f90:	48 8b 05 00 00 00 00 	mov    rax,QWORD PTR [rip+0x0]        # f97 <_ZN2io8readBoolERb+0x35>
     f97:	48 8b 40 e8          	mov    rax,QWORD PTR [rax-0x18]
     f9b:	48 8b 98 00 00 00 00 	mov    rbx,QWORD PTR [rax+0x0]
     fa2:	48 85 db             	test   rbx,rbx
     fa5:	75 05                	jne    fac <_ZN2io8readBoolERb+0x4a>
     fa7:	e8 00 00 00 00       	call   fac <_ZN2io8readBoolERb+0x4a>
     fac:	80 7b 38 00          	cmp    BYTE PTR [rbx+0x38],0x0
     fb0:	74 06                	je     fb8 <_ZN2io8readBoolERb+0x56>
     fb2:	0f b6 43 43          	movzx  eax,BYTE PTR [rbx+0x43]
     fb6:	eb 16                	jmp    fce <_ZN2io8readBoolERb+0x6c>
     fb8:	48 89 df             	mov    rdi,rbx
     fbb:	e8 00 00 00 00       	call   fc0 <_ZN2io8readBoolERb+0x5e>
     fc0:	48 8b 03             	mov    rax,QWORD PTR [rbx]
     fc3:	be 0a 00 00 00       	mov    esi,0xa
     fc8:	48 89 df             	mov    rdi,rbx
     fcb:	ff 50 30             	call   QWORD PTR [rax+0x30]
     fce:	0f be f0             	movsx  esi,al
     fd1:	bf 00 00 00 00       	mov    edi,0x0
     fd6:	e8 00 00 00 00       	call   fdb <_ZN2io8readBoolERb+0x79>
     fdb:	48 89 c7             	mov    rdi,rax
     fde:	e8 00 00 00 00       	call   fe3 <_ZN2io8readBoolERb+0x81>
     fe3:	b8 00 00 00 00       	mov    eax,0x0
     fe8:	eb 1e                	jmp    1008 <_ZN2io8readBoolERb+0xa6>
     fea:	48 8d bb 40 02 00 00 	lea    rdi,[rbx+0x240]
     ff1:	48 89 ee             	mov    rsi,rbp
     ff4:	e8 00 00 00 00       	call   ff9 <_ZN2io8readBoolERb+0x97>
     ff9:	48 8b 10             	mov    rdx,QWORD PTR [rax]
     ffc:	48 8b 52 e8          	mov    rdx,QWORD PTR [rdx-0x18]
    1000:	f6 44 10 20 05       	test   BYTE PTR [rax+rdx*1+0x20],0x5
    1005:	0f 94 c0             	sete   al
    1008:	48 83 c4 08          	add    rsp,0x8
    100c:	5b                   	pop    rbx
    100d:	5d                   	pop    rbp
    100e:	c3                   	ret    
    100f:	90                   	nop

0000000000001010 <_ZN2io5closeEv>:
    1010:	53                   	push   rbx
    1011:	48 89 fb             	mov    rbx,rdi
    1014:	48 8d bf 50 02 00 00 	lea    rdi,[rdi+0x250]
    101b:	e8 00 00 00 00       	call   1020 <_ZN2io5closeEv+0x10>
    1020:	48 85 c0             	test   rax,rax
    1023:	75 1e                	jne    1043 <_ZN2io5closeEv+0x33>
    1025:	48 8b 83 40 02 00 00 	mov    rax,QWORD PTR [rbx+0x240]
    102c:	48 8b 40 e8          	mov    rax,QWORD PTR [rax-0x18]
    1030:	48 8d bc 03 40 02 00 	lea    rdi,[rbx+rax*1+0x240]
    1037:	00 
    1038:	8b 77 20             	mov    esi,DWORD PTR [rdi+0x20]
    103b:	83 ce 04             	or     esi,0x4
    103e:	e8 00 00 00 00       	call   1043 <_ZN2io5closeEv+0x33>
    1043:	48 8d 7b 48          	lea    rdi,[rbx+0x48]
    1047:	e8 00 00 00 00       	call   104c <_ZN2io5closeEv+0x3c>
    104c:	48 85 c0             	test   rax,rax
    104f:	75 18                	jne    1069 <_ZN2io5closeEv+0x59>
    1051:	48 8b 43 40          	mov    rax,QWORD PTR [rbx+0x40]
    1055:	48 8b 40 e8          	mov    rax,QWORD PTR [rax-0x18]
    1059:	48 8d 7c 03 40       	lea    rdi,[rbx+rax*1+0x40]
    105e:	8b 77 20             	mov    esi,DWORD PTR [rdi+0x20]
    1061:	83 ce 04             	or     esi,0x4
    1064:	e8 00 00 00 00       	call   1069 <_ZN2io5closeEv+0x59>
    1069:	5b                   	pop    rbx
    106a:	c3                   	ret    
    106b:	90                   	nop

000000000000106c <_ZN9simulator19setCavityFlowSpeedsEv>:
    106c:	83 7f 24 00          	cmp    DWORD PTR [rdi+0x24],0x0
    1070:	7e 7d                	jle    10ef <_ZN9simulator19setCavityFlowSpeedsEv+0x83>
    1072:	41 56                	push   r14
    1074:	41 55                	push   r13
    1076:	41 54                	push   r12
    1078:	55                   	push   rbp
    1079:	53                   	push   rbx
    107a:	48 89 fd             	mov    rbp,rdi
    107d:	bb 00 00 00 00       	mov    ebx,0x0
    1082:	4c 8d b7 b0 00 00 00 	lea    r14,[rdi+0xb0]
    1089:	4c 8d af e0 00 00 00 	lea    r13,[rdi+0xe0]
    1090:	4c 8d a7 10 01 00 00 	lea    r12,[rdi+0x110]
    1097:	8b 45 28             	mov    eax,DWORD PTR [rbp+0x28]
    109a:	8d 50 ff             	lea    edx,[rax-0x1]
    109d:	f3 0f 10 05 00 00 00 	movss  xmm0,DWORD PTR [rip+0x0]        # 10a5 <_ZN9simulator19setCavityFlowSpeedsEv+0x39>
    10a4:	00 
    10a5:	89 de                	mov    esi,ebx
    10a7:	4c 89 f7             	mov    rdi,r14
    10aa:	e8 00 00 00 00       	call   10af <_ZN9simulator19setCavityFlowSpeedsEv+0x43>
    10af:	8b 45 28             	mov    eax,DWORD PTR [rbp+0x28]
    10b2:	8d 50 ff             	lea    edx,[rax-0x1]
    10b5:	f3 0f 10 05 00 00 00 	movss  xmm0,DWORD PTR [rip+0x0]        # 10bd <_ZN9simulator19setCavityFlowSpeedsEv+0x51>
    10bc:	00 
    10bd:	89 de                	mov    esi,ebx
    10bf:	4c 89 ef             	mov    rdi,r13
    10c2:	e8 00 00 00 00       	call   10c7 <_ZN9simulator19setCavityFlowSpeedsEv+0x5b>
    10c7:	8b 45 28             	mov    eax,DWORD PTR [rbp+0x28]
    10ca:	8d 50 ff             	lea    edx,[rax-0x1]
    10cd:	f3 0f 10 05 00 00 00 	movss  xmm0,DWORD PTR [rip+0x0]        # 10d5 <_ZN9simulator19setCavityFlowSpeedsEv+0x69>
    10d4:	00 
    10d5:	89 de                	mov    esi,ebx
    10d7:	4c 89 e7             	mov    rdi,r12
    10da:	e8 00 00 00 00       	call   10df <_ZN9simulator19setCavityFlowSpeedsEv+0x73>
    10df:	83 c3 01             	add    ebx,0x1
    10e2:	39 5d 24             	cmp    DWORD PTR [rbp+0x24],ebx
    10e5:	7f b0                	jg     1097 <_ZN9simulator19setCavityFlowSpeedsEv+0x2b>
    10e7:	5b                   	pop    rbx
    10e8:	5d                   	pop    rbp
    10e9:	41 5c                	pop    r12
    10eb:	41 5d                	pop    r13
    10ed:	41 5e                	pop    r14
    10ef:	f3 c3                	repz ret 
    10f1:	90                   	nop

00000000000010f2 <_ZN9simulator11setPBordersEv>:
    10f2:	41 57                	push   r15
    10f4:	41 56                	push   r14
    10f6:	41 55                	push   r13
    10f8:	41 54                	push   r12
    10fa:	55                   	push   rbp
    10fb:	53                   	push   rbx
    10fc:	48 89 fd             	mov    rbp,rdi
    10ff:	bb 00 00 00 00       	mov    ebx,0x0
    1104:	4c 8d bf d0 00 00 00 	lea    r15,[rdi+0xd0]
    110b:	4c 8d b7 00 01 00 00 	lea    r14,[rdi+0x100]
    1112:	4c 8d af 30 01 00 00 	lea    r13,[rdi+0x130]
    1119:	83 7f 24 00          	cmp    DWORD PTR [rdi+0x24],0x0
    111d:	7f 29                	jg     1148 <_ZN9simulator11setPBordersEv+0x56>
    111f:	83 7d 28 00          	cmp    DWORD PTR [rbp+0x28],0x0
    1123:	0f 8e bc 01 00 00    	jle    12e5 <_ZN9simulator11setPBordersEv+0x1f3>
    1129:	bb 00 00 00 00       	mov    ebx,0x0
    112e:	4c 8d bd d0 00 00 00 	lea    r15,[rbp+0xd0]
    1135:	4c 8d b5 00 01 00 00 	lea    r14,[rbp+0x100]
    113c:	4c 8d ad 30 01 00 00 	lea    r13,[rbp+0x130]
    1143:	e9 d1 00 00 00       	jmp    1219 <_ZN9simulator11setPBordersEv+0x127>
    1148:	ba 01 00 00 00       	mov    edx,0x1
    114d:	89 de                	mov    esi,ebx
    114f:	4c 89 ff             	mov    rdi,r15
    1152:	e8 00 00 00 00       	call   1157 <_ZN9simulator11setPBordersEv+0x65>
    1157:	ba 00 00 00 00       	mov    edx,0x0
    115c:	89 de                	mov    esi,ebx
    115e:	4c 89 ff             	mov    rdi,r15
    1161:	e8 00 00 00 00       	call   1166 <_ZN9simulator11setPBordersEv+0x74>
    1166:	ba 01 00 00 00       	mov    edx,0x1
    116b:	89 de                	mov    esi,ebx
    116d:	4c 89 f7             	mov    rdi,r14
    1170:	e8 00 00 00 00       	call   1175 <_ZN9simulator11setPBordersEv+0x83>
    1175:	ba 00 00 00 00       	mov    edx,0x0
    117a:	89 de                	mov    esi,ebx
    117c:	4c 89 f7             	mov    rdi,r14
    117f:	e8 00 00 00 00       	call   1184 <_ZN9simulator11setPBordersEv+0x92>
    1184:	ba 01 00 00 00       	mov    edx,0x1
    1189:	89 de                	mov    esi,ebx
    118b:	4c 89 ef             	mov    rdi,r13
    118e:	e8 00 00 00 00       	call   1193 <_ZN9simulator11setPBordersEv+0xa1>
    1193:	ba 00 00 00 00       	mov    edx,0x0
    1198:	89 de                	mov    esi,ebx
    119a:	4c 89 ef             	mov    rdi,r13
    119d:	e8 00 00 00 00       	call   11a2 <_ZN9simulator11setPBordersEv+0xb0>
    11a2:	44 8b 65 28          	mov    r12d,DWORD PTR [rbp+0x28]
    11a6:	41 8d 54 24 fe       	lea    edx,[r12-0x2]
    11ab:	89 de                	mov    esi,ebx
    11ad:	4c 89 ff             	mov    rdi,r15
    11b0:	e8 00 00 00 00       	call   11b5 <_ZN9simulator11setPBordersEv+0xc3>
    11b5:	41 8d 54 24 ff       	lea    edx,[r12-0x1]
    11ba:	89 de                	mov    esi,ebx
    11bc:	4c 89 ff             	mov    rdi,r15
    11bf:	e8 00 00 00 00       	call   11c4 <_ZN9simulator11setPBordersEv+0xd2>
    11c4:	44 8b 65 28          	mov    r12d,DWORD PTR [rbp+0x28]
    11c8:	41 8d 54 24 fe       	lea    edx,[r12-0x2]
    11cd:	89 de                	mov    esi,ebx
    11cf:	4c 89 f7             	mov    rdi,r14
    11d2:	e8 00 00 00 00       	call   11d7 <_ZN9simulator11setPBordersEv+0xe5>
    11d7:	41 8d 54 24 ff       	lea    edx,[r12-0x1]
    11dc:	89 de                	mov    esi,ebx
    11de:	4c 89 f7             	mov    rdi,r14
    11e1:	e8 00 00 00 00       	call   11e6 <_ZN9simulator11setPBordersEv+0xf4>
    11e6:	44 8b 65 28          	mov    r12d,DWORD PTR [rbp+0x28]
    11ea:	41 8d 54 24 fe       	lea    edx,[r12-0x2]
    11ef:	89 de                	mov    esi,ebx
    11f1:	4c 89 ef             	mov    rdi,r13
    11f4:	e8 00 00 00 00       	call   11f9 <_ZN9simulator11setPBordersEv+0x107>
    11f9:	41 8d 54 24 ff       	lea    edx,[r12-0x1]
    11fe:	89 de                	mov    esi,ebx
    1200:	4c 89 ef             	mov    rdi,r13
    1203:	e8 00 00 00 00       	call   1208 <_ZN9simulator11setPBordersEv+0x116>
    1208:	83 c3 01             	add    ebx,0x1
    120b:	39 5d 24             	cmp    DWORD PTR [rbp+0x24],ebx
    120e:	0f 8f 34 ff ff ff    	jg     1148 <_ZN9simulator11setPBordersEv+0x56>
    1214:	e9 06 ff ff ff       	jmp    111f <_ZN9simulator11setPBordersEv+0x2d>
    1219:	44 8b 65 24          	mov    r12d,DWORD PTR [rbp+0x24]
    121d:	41 8d 74 24 fe       	lea    esi,[r12-0x2]
    1222:	89 da                	mov    edx,ebx
    1224:	4c 89 ff             	mov    rdi,r15
    1227:	e8 00 00 00 00       	call   122c <_ZN9simulator11setPBordersEv+0x13a>
    122c:	41 8d 74 24 ff       	lea    esi,[r12-0x1]
    1231:	89 da                	mov    edx,ebx
    1233:	4c 89 ff             	mov    rdi,r15
    1236:	e8 00 00 00 00       	call   123b <_ZN9simulator11setPBordersEv+0x149>
    123b:	44 8b 65 24          	mov    r12d,DWORD PTR [rbp+0x24]
    123f:	41 8d 74 24 fe       	lea    esi,[r12-0x2]
    1244:	89 da                	mov    edx,ebx
    1246:	4c 89 f7             	mov    rdi,r14
    1249:	e8 00 00 00 00       	call   124e <_ZN9simulator11setPBordersEv+0x15c>
    124e:	41 8d 74 24 ff       	lea    esi,[r12-0x1]
    1253:	89 da                	mov    edx,ebx
    1255:	4c 89 f7             	mov    rdi,r14
    1258:	e8 00 00 00 00       	call   125d <_ZN9simulator11setPBordersEv+0x16b>
    125d:	44 8b 65 24          	mov    r12d,DWORD PTR [rbp+0x24]
    1261:	41 8d 74 24 fe       	lea    esi,[r12-0x2]
    1266:	89 da                	mov    edx,ebx
    1268:	4c 89 ef             	mov    rdi,r13
    126b:	e8 00 00 00 00       	call   1270 <_ZN9simulator11setPBordersEv+0x17e>
    1270:	41 8d 74 24 ff       	lea    esi,[r12-0x1]
    1275:	89 da                	mov    edx,ebx
    1277:	4c 89 ef             	mov    rdi,r13
    127a:	e8 00 00 00 00       	call   127f <_ZN9simulator11setPBordersEv+0x18d>
    127f:	89 da                	mov    edx,ebx
    1281:	be 01 00 00 00       	mov    esi,0x1
    1286:	4c 89 ff             	mov    rdi,r15
    1289:	e8 00 00 00 00       	call   128e <_ZN9simulator11setPBordersEv+0x19c>
    128e:	89 da                	mov    edx,ebx
    1290:	be 00 00 00 00       	mov    esi,0x0
    1295:	4c 89 ff             	mov    rdi,r15
    1298:	e8 00 00 00 00       	call   129d <_ZN9simulator11setPBordersEv+0x1ab>
    129d:	89 da                	mov    edx,ebx
    129f:	be 01 00 00 00       	mov    esi,0x1
    12a4:	4c 89 f7             	mov    rdi,r14
    12a7:	e8 00 00 00 00       	call   12ac <_ZN9simulator11setPBordersEv+0x1ba>
    12ac:	89 da                	mov    edx,ebx
    12ae:	be 00 00 00 00       	mov    esi,0x0
    12b3:	4c 89 f7             	mov    rdi,r14
    12b6:	e8 00 00 00 00       	call   12bb <_ZN9simulator11setPBordersEv+0x1c9>
    12bb:	89 da                	mov    edx,ebx
    12bd:	be 01 00 00 00       	mov    esi,0x1
    12c2:	4c 89 ef             	mov    rdi,r13
    12c5:	e8 00 00 00 00       	call   12ca <_ZN9simulator11setPBordersEv+0x1d8>
    12ca:	89 da                	mov    edx,ebx
    12cc:	be 00 00 00 00       	mov    esi,0x0
    12d1:	4c 89 ef             	mov    rdi,r13
    12d4:	e8 00 00 00 00       	call   12d9 <_ZN9simulator11setPBordersEv+0x1e7>
    12d9:	83 c3 01             	add    ebx,0x1
    12dc:	39 5d 28             	cmp    DWORD PTR [rbp+0x28],ebx
    12df:	0f 8f 34 ff ff ff    	jg     1219 <_ZN9simulator11setPBordersEv+0x127>
    12e5:	5b                   	pop    rbx
    12e6:	5d                   	pop    rbp
    12e7:	41 5c                	pop    r12
    12e9:	41 5d                	pop    r13
    12eb:	41 5e                	pop    r14
    12ed:	41 5f                	pop    r15
    12ef:	c3                   	ret    

00000000000012f0 <_ZN9simulator14calcVelocitiesEii>:
    12f0:	41 57                	push   r15
    12f2:	41 56                	push   r14
    12f4:	41 55                	push   r13
    12f6:	41 54                	push   r12
    12f8:	55                   	push   rbp
    12f9:	53                   	push   rbx
    12fa:	48 83 ec 30          	sub    rsp,0x30
    12fe:	48 89 fb             	mov    rbx,rdi
    1301:	89 f5                	mov    ebp,esi
    1303:	41 89 d4             	mov    r12d,edx
    1306:	4c 8d bf e0 00 00 00 	lea    r15,[rdi+0xe0]
    130d:	4c 89 ff             	mov    rdi,r15
    1310:	e8 00 00 00 00       	call   1315 <_ZN9simulator14calcVelocitiesEii+0x25>
    1315:	0f 28 e0             	movaps xmm4,xmm0
    1318:	f3 0f 10 7b 1c       	movss  xmm7,DWORD PTR [rbx+0x1c]
    131d:	f3 0f 10 5b 14       	movss  xmm3,DWORD PTR [rbx+0x14]
    1322:	f3 0f 11 7c 24 04    	movss  DWORD PTR [rsp+0x4],xmm7
    1328:	0f 28 c7             	movaps xmm0,xmm7
    132b:	f3 0f 11 5c 24 10    	movss  DWORD PTR [rsp+0x10],xmm3
    1331:	f3 0f 5e c3          	divss  xmm0,xmm3
    1335:	0f 28 f0             	movaps xmm6,xmm0
    1338:	f3 0f 11 24 24       	movss  DWORD PTR [rsp],xmm4
    133d:	f3 0f 59 f4          	mulss  xmm6,xmm4
    1341:	f3 0f 11 74 24 08    	movss  DWORD PTR [rsp+0x8],xmm6
    1347:	8d 45 ff             	lea    eax,[rbp-0x1]
    134a:	44 89 e2             	mov    edx,r12d
    134d:	89 44 24 14          	mov    DWORD PTR [rsp+0x14],eax
    1351:	89 c6                	mov    esi,eax
    1353:	4c 89 ff             	mov    rdi,r15
    1356:	e8 00 00 00 00       	call   135b <_ZN9simulator14calcVelocitiesEii+0x6b>
    135b:	f3 0f 10 24 24       	movss  xmm4,DWORD PTR [rsp]
    1360:	0f 28 ec             	movaps xmm5,xmm4
    1363:	f3 0f 11 44 24 18    	movss  DWORD PTR [rsp+0x18],xmm0
    1369:	f3 0f 5c e8          	subss  xmm5,xmm0
    136d:	0f 28 c5             	movaps xmm0,xmm5
    1370:	f3 0f 59 44 24 08    	mulss  xmm0,DWORD PTR [rsp+0x8]
    1376:	0f 28 f4             	movaps xmm6,xmm4
    1379:	f3 0f 5c f0          	subss  xmm6,xmm0
    137d:	f3 0f 11 74 24 0c    	movss  DWORD PTR [rsp+0xc],xmm6
    1383:	4c 8d b3 f0 00 00 00 	lea    r14,[rbx+0xf0]
    138a:	44 89 e2             	mov    edx,r12d
    138d:	89 ee                	mov    esi,ebp
    138f:	4c 89 f7             	mov    rdi,r14
    1392:	e8 00 00 00 00       	call   1397 <_ZN9simulator14calcVelocitiesEii+0xa7>
    1397:	f3 0f 10 4b 18       	movss  xmm1,DWORD PTR [rbx+0x18]
    139c:	44 0f 28 c1          	movaps xmm8,xmm1
    13a0:	f3 0f 10 4c 24 04    	movss  xmm1,DWORD PTR [rsp+0x4]
    13a6:	f3 44 0f 11 44 24 1c 	movss  DWORD PTR [rsp+0x1c],xmm8
    13ad:	f3 41 0f 5e c8       	divss  xmm1,xmm8
    13b2:	44 0f 28 d1          	movaps xmm10,xmm1
    13b6:	f3 44 0f 59 d0       	mulss  xmm10,xmm0
    13bb:	f3 44 0f 11 54 24 20 	movss  DWORD PTR [rsp+0x20],xmm10
    13c2:	41 8d 4c 24 ff       	lea    ecx,[r12-0x1]
    13c7:	89 4c 24 08          	mov    DWORD PTR [rsp+0x8],ecx
    13cb:	89 ca                	mov    edx,ecx
    13cd:	89 ee                	mov    esi,ebp
    13cf:	4c 89 ff             	mov    rdi,r15
    13d2:	e8 00 00 00 00       	call   13d7 <_ZN9simulator14calcVelocitiesEii+0xe7>
    13d7:	f3 0f 10 3c 24       	movss  xmm7,DWORD PTR [rsp]
    13dc:	f3 0f 11 44 24 24    	movss  DWORD PTR [rsp+0x24],xmm0
    13e2:	f3 0f 5c f8          	subss  xmm7,xmm0
    13e6:	0f 28 c7             	movaps xmm0,xmm7
    13e9:	f3 0f 59 44 24 20    	mulss  xmm0,DWORD PTR [rsp+0x20]
    13ef:	f3 0f 10 6c 24 0c    	movss  xmm5,DWORD PTR [rsp+0xc]
    13f5:	f3 0f 5c e8          	subss  xmm5,xmm0
    13f9:	f3 0f 11 6c 24 20    	movss  DWORD PTR [rsp+0x20],xmm5
    13ff:	f3 0f 10 43 10       	movss  xmm0,DWORD PTR [rbx+0x10]
    1404:	f3 0f 58 c0          	addss  xmm0,xmm0
    1408:	f3 0f 59 44 24 10    	mulss  xmm0,DWORD PTR [rsp+0x10]
    140e:	f3 0f 10 5c 24 04    	movss  xmm3,DWORD PTR [rsp+0x4]
    1414:	f3 0f 5e d8          	divss  xmm3,xmm0
    1418:	f3 0f 11 5c 24 28    	movss  DWORD PTR [rsp+0x28],xmm3
    141e:	8d 55 01             	lea    edx,[rbp+0x1]
    1421:	89 d6                	mov    esi,edx
    1423:	4c 8d ab 00 01 00 00 	lea    r13,[rbx+0x100]
    142a:	44 89 e2             	mov    edx,r12d
    142d:	89 74 24 0c          	mov    DWORD PTR [rsp+0xc],esi
    1431:	4c 89 ef             	mov    rdi,r13
    1434:	e8 00 00 00 00       	call   1439 <_ZN9simulator14calcVelocitiesEii+0x149>
    1439:	f3 0f 11 44 24 2c    	movss  DWORD PTR [rsp+0x2c],xmm0
    143f:	44 89 e2             	mov    edx,r12d
    1442:	8b 74 24 14          	mov    esi,DWORD PTR [rsp+0x14]
    1446:	4c 89 ef             	mov    rdi,r13
    1449:	e8 00 00 00 00       	call   144e <_ZN9simulator14calcVelocitiesEii+0x15e>
    144e:	f3 44 0f 10 5c 24 2c 	movss  xmm11,DWORD PTR [rsp+0x2c]
    1455:	f3 44 0f 5c d8       	subss  xmm11,xmm0
    145a:	41 0f 28 c3          	movaps xmm0,xmm11
    145e:	f3 0f 59 44 24 28    	mulss  xmm0,DWORD PTR [rsp+0x28]
    1464:	f3 0f 10 6c 24 20    	movss  xmm5,DWORD PTR [rsp+0x20]
    146a:	f3 0f 5c e8          	subss  xmm5,xmm0
    146e:	f3 0f 11 6c 24 20    	movss  DWORD PTR [rsp+0x20],xmm5
    1474:	f3 0f 10 54 24 10    	movss  xmm2,DWORD PTR [rsp+0x10]
    147a:	0f 28 c2             	movaps xmm0,xmm2
    147d:	f3 0f 59 c2          	mulss  xmm0,xmm2
    1481:	f3 0f 10 54 24 04    	movss  xmm2,DWORD PTR [rsp+0x4]
    1487:	f3 0f 5e d0          	divss  xmm2,xmm0
    148b:	f3 0f 11 54 24 10    	movss  DWORD PTR [rsp+0x10],xmm2
    1491:	44 89 e2             	mov    edx,r12d
    1494:	8b 74 24 0c          	mov    esi,DWORD PTR [rsp+0xc]
    1498:	4c 89 ff             	mov    rdi,r15
    149b:	e8 00 00 00 00       	call   14a0 <_ZN9simulator14calcVelocitiesEii+0x1b0>
    14a0:	f3 0f 10 3c 24       	movss  xmm7,DWORD PTR [rsp]
    14a5:	0f 28 e7             	movaps xmm4,xmm7
    14a8:	f3 0f 58 e7          	addss  xmm4,xmm7
    14ac:	f3 0f 11 24 24       	movss  DWORD PTR [rsp],xmm4
    14b1:	f3 0f 5c c4          	subss  xmm0,xmm4
    14b5:	f3 0f 58 44 24 18    	addss  xmm0,DWORD PTR [rsp+0x18]
    14bb:	f3 0f 59 44 24 10    	mulss  xmm0,DWORD PTR [rsp+0x10]
    14c1:	f3 0f 11 44 24 18    	movss  DWORD PTR [rsp+0x18],xmm0
    14c7:	f3 0f 10 7c 24 1c    	movss  xmm7,DWORD PTR [rsp+0x1c]
    14cd:	0f 28 c7             	movaps xmm0,xmm7
    14d0:	f3 0f 59 c7          	mulss  xmm0,xmm7
    14d4:	f3 0f 10 54 24 04    	movss  xmm2,DWORD PTR [rsp+0x4]
    14da:	f3 0f 5e d0          	divss  xmm2,xmm0
    14de:	f3 0f 11 54 24 04    	movss  DWORD PTR [rsp+0x4],xmm2
    14e4:	41 8d 7c 24 01       	lea    edi,[r12+0x1]
    14e9:	89 7c 24 10          	mov    DWORD PTR [rsp+0x10],edi
    14ed:	89 fa                	mov    edx,edi
    14ef:	89 ee                	mov    esi,ebp
    14f1:	4c 89 ff             	mov    rdi,r15
    14f4:	e8 00 00 00 00       	call   14f9 <_ZN9simulator14calcVelocitiesEii+0x209>
    14f9:	f3 0f 5c 04 24       	subss  xmm0,DWORD PTR [rsp]
    14fe:	f3 0f 58 44 24 24    	addss  xmm0,DWORD PTR [rsp+0x24]
    1504:	f3 0f 59 44 24 04    	mulss  xmm0,DWORD PTR [rsp+0x4]
    150a:	f3 0f 58 44 24 18    	addss  xmm0,DWORD PTR [rsp+0x18]
    1510:	f3 0f 59 43 0c       	mulss  xmm0,DWORD PTR [rbx+0xc]
    1515:	f3 0f 58 44 24 20    	addss  xmm0,DWORD PTR [rsp+0x20]
    151b:	48 8d bb 10 01 00 00 	lea    rdi,[rbx+0x110]
    1522:	44 89 e2             	mov    edx,r12d
    1525:	89 ee                	mov    esi,ebp
    1527:	e8 00 00 00 00       	call   152c <_ZN9simulator14calcVelocitiesEii+0x23c>
    152c:	44 89 e2             	mov    edx,r12d
    152f:	89 ee                	mov    esi,ebp
    1531:	4c 89 f7             	mov    rdi,r14
    1534:	e8 00 00 00 00       	call   1539 <_ZN9simulator14calcVelocitiesEii+0x249>
    1539:	f3 0f 11 04 24       	movss  DWORD PTR [rsp],xmm0
    153e:	44 89 e2             	mov    edx,r12d
    1541:	89 ee                	mov    esi,ebp
    1543:	4c 89 ff             	mov    rdi,r15
    1546:	e8 00 00 00 00       	call   154b <_ZN9simulator14calcVelocitiesEii+0x25b>
    154b:	f3 0f 10 6b 1c       	movss  xmm5,DWORD PTR [rbx+0x1c]
    1550:	f3 0f 10 5b 14       	movss  xmm3,DWORD PTR [rbx+0x14]
    1555:	f3 0f 11 6c 24 04    	movss  DWORD PTR [rsp+0x4],xmm5
    155b:	0f 28 cd             	movaps xmm1,xmm5
    155e:	f3 0f 11 5c 24 18    	movss  DWORD PTR [rsp+0x18],xmm3
    1564:	f3 0f 5e cb          	divss  xmm1,xmm3
    1568:	0f 28 f9             	movaps xmm7,xmm1
    156b:	f3 0f 59 f8          	mulss  xmm7,xmm0
    156f:	f3 0f 11 7c 24 1c    	movss  DWORD PTR [rsp+0x1c],xmm7
    1575:	44 89 e2             	mov    edx,r12d
    1578:	44 8b 7c 24 14       	mov    r15d,DWORD PTR [rsp+0x14]
    157d:	44 89 fe             	mov    esi,r15d
    1580:	4c 89 f7             	mov    rdi,r14
    1583:	e8 00 00 00 00       	call   1588 <_ZN9simulator14calcVelocitiesEii+0x298>
    1588:	f3 0f 10 1c 24       	movss  xmm3,DWORD PTR [rsp]
    158d:	0f 28 f3             	movaps xmm6,xmm3
    1590:	f3 0f 11 44 24 20    	movss  DWORD PTR [rsp+0x20],xmm0
    1596:	f3 0f 5c f0          	subss  xmm6,xmm0
    159a:	0f 28 c6             	movaps xmm0,xmm6
    159d:	f3 0f 59 44 24 1c    	mulss  xmm0,DWORD PTR [rsp+0x1c]
    15a3:	0f 28 f3             	movaps xmm6,xmm3
    15a6:	f3 0f 5c d8          	subss  xmm3,xmm0
    15aa:	f3 0f 11 5c 24 1c    	movss  DWORD PTR [rsp+0x1c],xmm3
    15b0:	f3 0f 10 7b 18       	movss  xmm7,DWORD PTR [rbx+0x18]
    15b5:	f3 0f 10 44 24 04    	movss  xmm0,DWORD PTR [rsp+0x4]
    15bb:	f3 0f 11 7c 24 14    	movss  DWORD PTR [rsp+0x14],xmm7
    15c1:	f3 0f 5e c7          	divss  xmm0,xmm7
    15c5:	f3 0f 59 c6          	mulss  xmm0,xmm6
    15c9:	f3 0f 11 44 24 24    	movss  DWORD PTR [rsp+0x24],xmm0
    15cf:	8b 54 24 08          	mov    edx,DWORD PTR [rsp+0x8]
    15d3:	89 ee                	mov    esi,ebp
    15d5:	4c 89 f7             	mov    rdi,r14
    15d8:	e8 00 00 00 00       	call   15dd <_ZN9simulator14calcVelocitiesEii+0x2ed>
    15dd:	f3 0f 10 3c 24       	movss  xmm7,DWORD PTR [rsp]
    15e2:	f3 0f 11 44 24 28    	movss  DWORD PTR [rsp+0x28],xmm0
    15e8:	f3 0f 5c f8          	subss  xmm7,xmm0
    15ec:	0f 28 c7             	movaps xmm0,xmm7
    15ef:	f3 0f 59 44 24 24    	mulss  xmm0,DWORD PTR [rsp+0x24]
    15f5:	f3 0f 10 5c 24 1c    	movss  xmm3,DWORD PTR [rsp+0x1c]
    15fb:	f3 0f 5c d8          	subss  xmm3,xmm0
    15ff:	f3 0f 11 5c 24 1c    	movss  DWORD PTR [rsp+0x1c],xmm3
    1605:	f3 0f 10 43 10       	movss  xmm0,DWORD PTR [rbx+0x10]
    160a:	f3 0f 58 c0          	addss  xmm0,xmm0
    160e:	f3 0f 59 44 24 14    	mulss  xmm0,DWORD PTR [rsp+0x14]
    1614:	f3 0f 10 6c 24 04    	movss  xmm5,DWORD PTR [rsp+0x4]
    161a:	f3 0f 5e e8          	divss  xmm5,xmm0
    161e:	f3 0f 11 6c 24 24    	movss  DWORD PTR [rsp+0x24],xmm5
    1624:	8b 54 24 10          	mov    edx,DWORD PTR [rsp+0x10]
    1628:	89 ee                	mov    esi,ebp
    162a:	4c 89 ef             	mov    rdi,r13
    162d:	e8 00 00 00 00       	call   1632 <_ZN9simulator14calcVelocitiesEii+0x342>
    1632:	f3 0f 11 44 24 2c    	movss  DWORD PTR [rsp+0x2c],xmm0
    1638:	8b 54 24 08          	mov    edx,DWORD PTR [rsp+0x8]
    163c:	89 ee                	mov    esi,ebp
    163e:	4c 89 ef             	mov    rdi,r13
    1641:	e8 00 00 00 00       	call   1646 <_ZN9simulator14calcVelocitiesEii+0x356>
    1646:	f3 0f 10 4c 24 2c    	movss  xmm1,DWORD PTR [rsp+0x2c]
    164c:	f3 0f 5c c8          	subss  xmm1,xmm0
    1650:	0f 28 c1             	movaps xmm0,xmm1
    1653:	f3 0f 59 44 24 24    	mulss  xmm0,DWORD PTR [rsp+0x24]
    1659:	f3 0f 10 5c 24 1c    	movss  xmm3,DWORD PTR [rsp+0x1c]
    165f:	f3 0f 5c d8          	subss  xmm3,xmm0
    1663:	f3 0f 11 5c 24 1c    	movss  DWORD PTR [rsp+0x1c],xmm3
    1669:	f3 0f 10 54 24 18    	movss  xmm2,DWORD PTR [rsp+0x18]
    166f:	0f 28 c2             	movaps xmm0,xmm2
    1672:	f3 0f 59 c2          	mulss  xmm0,xmm2
    1676:	f3 0f 10 54 24 04    	movss  xmm2,DWORD PTR [rsp+0x4]
    167c:	f3 0f 5e d0          	divss  xmm2,xmm0
    1680:	f3 0f 11 54 24 18    	movss  DWORD PTR [rsp+0x18],xmm2
    1686:	44 89 e2             	mov    edx,r12d
    1689:	8b 74 24 0c          	mov    esi,DWORD PTR [rsp+0xc]
    168d:	4c 89 f7             	mov    rdi,r14
    1690:	e8 00 00 00 00       	call   1695 <_ZN9simulator14calcVelocitiesEii+0x3a5>
    1695:	f3 0f 10 3c 24       	movss  xmm7,DWORD PTR [rsp]
    169a:	0f 28 ef             	movaps xmm5,xmm7
    169d:	f3 0f 58 ef          	addss  xmm5,xmm7
    16a1:	f3 0f 11 2c 24       	movss  DWORD PTR [rsp],xmm5
    16a6:	f3 0f 5c c5          	subss  xmm0,xmm5
    16aa:	f3 0f 58 44 24 20    	addss  xmm0,DWORD PTR [rsp+0x20]
    16b0:	f3 0f 59 44 24 18    	mulss  xmm0,DWORD PTR [rsp+0x18]
    16b6:	f3 0f 11 44 24 18    	movss  DWORD PTR [rsp+0x18],xmm0
    16bc:	f3 0f 10 74 24 14    	movss  xmm6,DWORD PTR [rsp+0x14]
    16c2:	0f 28 c6             	movaps xmm0,xmm6
    16c5:	f3 0f 59 c6          	mulss  xmm0,xmm6
    16c9:	f3 0f 10 54 24 04    	movss  xmm2,DWORD PTR [rsp+0x4]
    16cf:	f3 0f 5e d0          	divss  xmm2,xmm0
    16d3:	f3 0f 11 54 24 04    	movss  DWORD PTR [rsp+0x4],xmm2
    16d9:	8b 54 24 10          	mov    edx,DWORD PTR [rsp+0x10]
    16dd:	89 ee                	mov    esi,ebp
    16df:	4c 89 f7             	mov    rdi,r14
    16e2:	e8 00 00 00 00       	call   16e7 <_ZN9simulator14calcVelocitiesEii+0x3f7>
    16e7:	f3 0f 5c 04 24       	subss  xmm0,DWORD PTR [rsp]
    16ec:	f3 0f 58 44 24 28    	addss  xmm0,DWORD PTR [rsp+0x28]
    16f2:	f3 0f 59 44 24 04    	mulss  xmm0,DWORD PTR [rsp+0x4]
    16f8:	f3 0f 58 44 24 18    	addss  xmm0,DWORD PTR [rsp+0x18]
    16fe:	f3 0f 59 43 0c       	mulss  xmm0,DWORD PTR [rbx+0xc]
    1703:	f3 0f 58 44 24 1c    	addss  xmm0,DWORD PTR [rsp+0x1c]
    1709:	48 8d bb 20 01 00 00 	lea    rdi,[rbx+0x120]
    1710:	44 89 e2             	mov    edx,r12d
    1713:	89 ee                	mov    esi,ebp
    1715:	e8 00 00 00 00       	call   171a <_ZN9simulator14calcVelocitiesEii+0x42a>
    171a:	f3 0f 10 5b 44       	movss  xmm3,DWORD PTR [rbx+0x44]
    171f:	f3 0f 10 53 7c       	movss  xmm2,DWORD PTR [rbx+0x7c]
    1724:	f3 0f 10 05 00 00 00 	movss  xmm0,DWORD PTR [rip+0x0]        # 172c <_ZN9simulator14calcVelocitiesEii+0x43c>
    172b:	00 
    172c:	f3 0f 5e 43 1c       	divss  xmm0,DWORD PTR [rbx+0x1c]
    1731:	0f 28 cb             	movaps xmm1,xmm3
    1734:	f3 0f 58 ca          	addss  xmm1,xmm2
    1738:	f3 0f 59 c1          	mulss  xmm0,xmm1
    173c:	f3 0f 59 db          	mulss  xmm3,xmm3
    1740:	f3 0f 5c c3          	subss  xmm0,xmm3
    1744:	f3 0f 10 4b 50       	movss  xmm1,DWORD PTR [rbx+0x50]
    1749:	f3 0f 58 c9          	addss  xmm1,xmm1
    174d:	f3 0f 59 4b 74       	mulss  xmm1,DWORD PTR [rbx+0x74]
    1752:	f3 0f 5c c1          	subss  xmm0,xmm1
    1756:	f3 0f 59 d2          	mulss  xmm2,xmm2
    175a:	f3 0f 5c c2          	subss  xmm0,xmm2
    175e:	f3 0f 11 44 24 04    	movss  DWORD PTR [rsp+0x4],xmm0
    1764:	f3 0f 10 73 14       	movss  xmm6,DWORD PTR [rbx+0x14]
    1769:	f3 0f 11 74 24 14    	movss  DWORD PTR [rsp+0x14],xmm6
    176f:	f3 0f 10 63 18       	movss  xmm4,DWORD PTR [rbx+0x18]
    1774:	f3 0f 11 24 24       	movss  DWORD PTR [rsp],xmm4
    1779:	44 89 e2             	mov    edx,r12d
    177c:	8b 74 24 0c          	mov    esi,DWORD PTR [rsp+0xc]
    1780:	4c 89 ef             	mov    rdi,r13
    1783:	e8 00 00 00 00       	call   1788 <_ZN9simulator14calcVelocitiesEii+0x498>
    1788:	f3 0f 11 44 24 0c    	movss  DWORD PTR [rsp+0xc],xmm0
    178e:	44 89 e2             	mov    edx,r12d
    1791:	44 89 fe             	mov    esi,r15d
    1794:	4c 89 ef             	mov    rdi,r13
    1797:	e8 00 00 00 00       	call   179c <_ZN9simulator14calcVelocitiesEii+0x4ac>
    179c:	f3 0f 58 44 24 0c    	addss  xmm0,DWORD PTR [rsp+0xc]
    17a2:	f3 0f 10 24 24       	movss  xmm4,DWORD PTR [rsp]
    17a7:	f3 0f 59 c4          	mulss  xmm0,xmm4
    17ab:	0f 28 d8             	movaps xmm3,xmm0
    17ae:	f3 0f 59 dc          	mulss  xmm3,xmm4
    17b2:	f3 0f 11 5c 24 0c    	movss  DWORD PTR [rsp+0xc],xmm3
    17b8:	8b 54 24 10          	mov    edx,DWORD PTR [rsp+0x10]
    17bc:	89 ee                	mov    esi,ebp
    17be:	4c 89 ef             	mov    rdi,r13
    17c1:	e8 00 00 00 00       	call   17c6 <_ZN9simulator14calcVelocitiesEii+0x4d6>
    17c6:	f3 0f 11 44 24 10    	movss  DWORD PTR [rsp+0x10],xmm0
    17cc:	8b 54 24 08          	mov    edx,DWORD PTR [rsp+0x8]
    17d0:	89 ee                	mov    esi,ebp
    17d2:	4c 89 ef             	mov    rdi,r13
    17d5:	e8 00 00 00 00       	call   17da <_ZN9simulator14calcVelocitiesEii+0x4ea>
    17da:	0f 28 c8             	movaps xmm1,xmm0
    17dd:	f3 0f 10 74 24 14    	movss  xmm6,DWORD PTR [rsp+0x14]
    17e3:	0f 28 d6             	movaps xmm2,xmm6
    17e6:	f3 0f 59 d6          	mulss  xmm2,xmm6
    17ea:	0f 28 c2             	movaps xmm0,xmm2
    17ed:	f3 0f 10 24 24       	movss  xmm4,DWORD PTR [rsp]
    17f2:	0f 28 d4             	movaps xmm2,xmm4
    17f5:	f3 0f 59 d4          	mulss  xmm2,xmm4
    17f9:	f3 0f 58 d0          	addss  xmm2,xmm0
    17fd:	f3 0f 58 d2          	addss  xmm2,xmm2
    1801:	f3 0f 5a d2          	cvtss2sd xmm2,xmm2
    1805:	f2 0f 10 05 00 00 00 	movsd  xmm0,QWORD PTR [rip+0x0]        # 180d <_ZN9simulator14calcVelocitiesEii+0x51d>
    180c:	00 
    180d:	f2 0f 5e c2          	divsd  xmm0,xmm2
    1811:	f3 0f 58 4c 24 10    	addss  xmm1,DWORD PTR [rsp+0x10]
    1817:	f3 0f 59 ce          	mulss  xmm1,xmm6
    181b:	f3 0f 59 ce          	mulss  xmm1,xmm6
    181f:	f3 0f 58 4c 24 0c    	addss  xmm1,DWORD PTR [rsp+0xc]
    1825:	f3 0f 5a c9          	cvtss2sd xmm1,xmm1
    1829:	f2 0f 59 c1          	mulsd  xmm0,xmm1
    182d:	0f 28 ce             	movaps xmm1,xmm6
    1830:	f3 0f 59 4b 10       	mulss  xmm1,DWORD PTR [rbx+0x10]
    1835:	f3 0f 59 ce          	mulss  xmm1,xmm6
    1839:	f3 0f 59 cc          	mulss  xmm1,xmm4
    183d:	0f 28 d9             	movaps xmm3,xmm1
    1840:	f3 0f 59 dc          	mulss  xmm3,xmm4
    1844:	0f 28 ce             	movaps xmm1,xmm6
    1847:	f3 0f 58 ce          	addss  xmm1,xmm6
    184b:	0f 28 d6             	movaps xmm2,xmm6
    184e:	f3 0f 59 d1          	mulss  xmm2,xmm1
    1852:	0f 28 cc             	movaps xmm1,xmm4
    1855:	f3 0f 58 cc          	addss  xmm1,xmm4
    1859:	f3 0f 59 cc          	mulss  xmm1,xmm4
    185d:	f3 0f 58 ca          	addss  xmm1,xmm2
    1861:	f3 0f 5e d9          	divss  xmm3,xmm1
    1865:	0f 28 cb             	movaps xmm1,xmm3
    1868:	f3 0f 59 4c 24 04    	mulss  xmm1,DWORD PTR [rsp+0x4]
    186e:	f3 0f 5a c9          	cvtss2sd xmm1,xmm1
    1872:	f2 0f 5c c1          	subsd  xmm0,xmm1
    1876:	f2 0f 5a c0          	cvtsd2ss xmm0,xmm0
    187a:	48 8d bb 30 01 00 00 	lea    rdi,[rbx+0x130]
    1881:	44 89 e2             	mov    edx,r12d
    1884:	89 ee                	mov    esi,ebp
    1886:	e8 00 00 00 00       	call   188b <_ZN9simulator14calcVelocitiesEii+0x59b>
    188b:	48 83 c4 30          	add    rsp,0x30
    188f:	5b                   	pop    rbx
    1890:	5d                   	pop    rbp
    1891:	41 5c                	pop    r12
    1893:	41 5d                	pop    r13
    1895:	41 5e                	pop    r14
    1897:	41 5f                	pop    r15
    1899:	c3                   	ret    

000000000000189a <_ZN9simulator9calcTermsEii>:
    189a:	41 57                	push   r15
    189c:	41 56                	push   r14
    189e:	41 55                	push   r13
    18a0:	41 54                	push   r12
    18a2:	55                   	push   rbp
    18a3:	53                   	push   rbx
    18a4:	48 83 ec 50          	sub    rsp,0x50
    18a8:	49 89 fc             	mov    r12,rdi
    18ab:	89 f3                	mov    ebx,esi
    18ad:	89 d5                	mov    ebp,edx
    18af:	44 8d 7e 01          	lea    r15d,[rsi+0x1]
    18b3:	48 8d 87 e0 00 00 00 	lea    rax,[rdi+0xe0]
    18ba:	49 89 c5             	mov    r13,rax
    18bd:	44 89 fe             	mov    esi,r15d
    18c0:	48 89 c7             	mov    rdi,rax
    18c3:	e8 00 00 00 00       	call   18c8 <_ZN9simulator9calcTermsEii+0x2e>
    18c8:	f3 0f 11 04 24       	movss  DWORD PTR [rsp],xmm0
    18cd:	8d 43 ff             	lea    eax,[rbx-0x1]
    18d0:	41 89 c6             	mov    r14d,eax
    18d3:	89 ea                	mov    edx,ebp
    18d5:	89 c6                	mov    esi,eax
    18d7:	4c 89 ef             	mov    rdi,r13
    18da:	e8 00 00 00 00       	call   18df <_ZN9simulator9calcTermsEii+0x45>
    18df:	f3 41 0f 10 74 24 14 	movss  xmm6,DWORD PTR [r12+0x14]
    18e6:	f3 0f 11 74 24 28    	movss  DWORD PTR [rsp+0x28],xmm6
    18ec:	f3 0f 5a ce          	cvtss2sd xmm1,xmm6
    18f0:	66 0f 28 d1          	movapd xmm2,xmm1
    18f4:	f2 0f 58 d1          	addsd  xmm2,xmm1
    18f8:	f3 0f 10 3c 24       	movss  xmm7,DWORD PTR [rsp]
    18fd:	f3 0f 5c f8          	subss  xmm7,xmm0
    1901:	f3 0f 5a c7          	cvtss2sd xmm0,xmm7
    1905:	f2 0f 11 54 24 18    	movsd  QWORD PTR [rsp+0x18],xmm2
    190b:	f2 0f 5e c2          	divsd  xmm0,xmm2
    190f:	f2 0f 5a d8          	cvtsd2ss xmm3,xmm0
    1913:	f3 41 0f 11 5c 24 44 	movss  DWORD PTR [r12+0x44],xmm3
    191a:	49 8d 84 24 10 01 00 	lea    rax,[r12+0x110]
    1921:	00 
    1922:	89 ea                	mov    edx,ebp
    1924:	44 89 fe             	mov    esi,r15d
    1927:	48 89 44 24 08       	mov    QWORD PTR [rsp+0x8],rax
    192c:	48 89 c7             	mov    rdi,rax
    192f:	e8 00 00 00 00       	call   1934 <_ZN9simulator9calcTermsEii+0x9a>
    1934:	f3 0f 11 44 24 10    	movss  DWORD PTR [rsp+0x10],xmm0
    193a:	89 ea                	mov    edx,ebp
    193c:	44 89 34 24          	mov    DWORD PTR [rsp],r14d
    1940:	44 89 f6             	mov    esi,r14d
    1943:	48 8b 7c 24 08       	mov    rdi,QWORD PTR [rsp+0x8]
    1948:	e8 00 00 00 00       	call   194d <_ZN9simulator9calcTermsEii+0xb3>
    194d:	f3 0f 10 6c 24 10    	movss  xmm5,DWORD PTR [rsp+0x10]
    1953:	f3 0f 5c e8          	subss  xmm5,xmm0
    1957:	f3 0f 5a c5          	cvtss2sd xmm0,xmm5
    195b:	f2 0f 5e 44 24 18    	divsd  xmm0,QWORD PTR [rsp+0x18]
    1961:	f2 0f 5a d8          	cvtsd2ss xmm3,xmm0
    1965:	f3 41 0f 11 5c 24 48 	movss  DWORD PTR [r12+0x48],xmm3
    196c:	44 8d 75 01          	lea    r14d,[rbp+0x1]
    1970:	44 89 f2             	mov    edx,r14d
    1973:	89 de                	mov    esi,ebx
    1975:	4c 89 6c 24 10       	mov    QWORD PTR [rsp+0x10],r13
    197a:	4c 89 ef             	mov    rdi,r13
    197d:	e8 00 00 00 00       	call   1982 <_ZN9simulator9calcTermsEii+0xe8>
    1982:	f3 0f 11 44 24 20    	movss  DWORD PTR [rsp+0x20],xmm0
    1988:	44 8d 6d ff          	lea    r13d,[rbp-0x1]
    198c:	44 89 ea             	mov    edx,r13d
    198f:	89 de                	mov    esi,ebx
    1991:	48 8b 7c 24 10       	mov    rdi,QWORD PTR [rsp+0x10]
    1996:	e8 00 00 00 00       	call   199b <_ZN9simulator9calcTermsEii+0x101>
    199b:	f3 41 0f 10 7c 24 18 	movss  xmm7,DWORD PTR [r12+0x18]
    19a2:	f3 0f 11 7c 24 38    	movss  DWORD PTR [rsp+0x38],xmm7
    19a8:	f3 0f 5a cf          	cvtss2sd xmm1,xmm7
    19ac:	66 0f 28 d9          	movapd xmm3,xmm1
    19b0:	f2 0f 58 d9          	addsd  xmm3,xmm1
    19b4:	f3 0f 10 64 24 20    	movss  xmm4,DWORD PTR [rsp+0x20]
    19ba:	f3 0f 5c e0          	subss  xmm4,xmm0
    19be:	f3 0f 5a c4          	cvtss2sd xmm0,xmm4
    19c2:	f2 0f 11 5c 24 20    	movsd  QWORD PTR [rsp+0x20],xmm3
    19c8:	f2 0f 5e c3          	divsd  xmm0,xmm3
    19cc:	f2 0f 5a e8          	cvtsd2ss xmm5,xmm0
    19d0:	f3 41 0f 11 6c 24 50 	movss  DWORD PTR [r12+0x50],xmm5
    19d7:	44 89 f2             	mov    edx,r14d
    19da:	89 de                	mov    esi,ebx
    19dc:	48 8b 7c 24 08       	mov    rdi,QWORD PTR [rsp+0x8]
    19e1:	e8 00 00 00 00       	call   19e6 <_ZN9simulator9calcTermsEii+0x14c>
    19e6:	f3 0f 11 44 24 30    	movss  DWORD PTR [rsp+0x30],xmm0
    19ec:	44 89 ea             	mov    edx,r13d
    19ef:	89 de                	mov    esi,ebx
    19f1:	48 8b 7c 24 08       	mov    rdi,QWORD PTR [rsp+0x8]
    19f6:	e8 00 00 00 00       	call   19fb <_ZN9simulator9calcTermsEii+0x161>
    19fb:	f3 0f 10 6c 24 30    	movss  xmm5,DWORD PTR [rsp+0x30]
    1a01:	f3 0f 5c e8          	subss  xmm5,xmm0
    1a05:	f3 0f 5a c5          	cvtss2sd xmm0,xmm5
    1a09:	f2 0f 5e 44 24 20    	divsd  xmm0,QWORD PTR [rsp+0x20]
    1a0f:	f2 0f 5a e8          	cvtsd2ss xmm5,xmm0
    1a13:	f3 41 0f 11 6c 24 4c 	movss  DWORD PTR [r12+0x4c],xmm5
    1a1a:	89 ea                	mov    edx,ebp
    1a1c:	44 89 fe             	mov    esi,r15d
    1a1f:	48 8b 7c 24 10       	mov    rdi,QWORD PTR [rsp+0x10]
    1a24:	e8 00 00 00 00       	call   1a29 <_ZN9simulator9calcTermsEii+0x18f>
    1a29:	f3 0f 11 44 24 30    	movss  DWORD PTR [rsp+0x30],xmm0
    1a2f:	89 ea                	mov    edx,ebp
    1a31:	89 de                	mov    esi,ebx
    1a33:	48 8b 7c 24 10       	mov    rdi,QWORD PTR [rsp+0x10]
    1a38:	e8 00 00 00 00       	call   1a3d <_ZN9simulator9calcTermsEii+0x1a3>
    1a3d:	f3 0f 5a 4c 24 30    	cvtss2sd xmm1,DWORD PTR [rsp+0x30]
    1a43:	f3 0f 5a c0          	cvtss2sd xmm0,xmm0
    1a47:	f2 0f 58 c0          	addsd  xmm0,xmm0
    1a4b:	66 0f 28 e1          	movapd xmm4,xmm1
    1a4f:	f2 0f 5c e0          	subsd  xmm4,xmm0
    1a53:	f2 0f 11 64 24 30    	movsd  QWORD PTR [rsp+0x30],xmm4
    1a59:	89 ea                	mov    edx,ebp
    1a5b:	8b 34 24             	mov    esi,DWORD PTR [rsp]
    1a5e:	48 8b 7c 24 10       	mov    rdi,QWORD PTR [rsp+0x10]
    1a63:	e8 00 00 00 00       	call   1a68 <_ZN9simulator9calcTermsEii+0x1ce>
    1a68:	f3 0f 10 74 24 28    	movss  xmm6,DWORD PTR [rsp+0x28]
    1a6e:	0f 28 ce             	movaps xmm1,xmm6
    1a71:	f3 0f 59 ce          	mulss  xmm1,xmm6
    1a75:	f3 0f 5a e9          	cvtss2sd xmm5,xmm1
    1a79:	f3 0f 5a c0          	cvtss2sd xmm0,xmm0
    1a7d:	f2 0f 58 44 24 30    	addsd  xmm0,QWORD PTR [rsp+0x30]
    1a83:	f2 0f 11 6c 24 30    	movsd  QWORD PTR [rsp+0x30],xmm5
    1a89:	f2 0f 5e c5          	divsd  xmm0,xmm5
    1a8d:	f2 0f 5a f0          	cvtsd2ss xmm6,xmm0
    1a91:	f3 41 0f 11 74 24 54 	movss  DWORD PTR [r12+0x54],xmm6
    1a98:	89 ea                	mov    edx,ebp
    1a9a:	44 89 fe             	mov    esi,r15d
    1a9d:	48 8b 7c 24 08       	mov    rdi,QWORD PTR [rsp+0x8]
    1aa2:	e8 00 00 00 00       	call   1aa7 <_ZN9simulator9calcTermsEii+0x20d>
    1aa7:	f3 0f 11 44 24 28    	movss  DWORD PTR [rsp+0x28],xmm0
    1aad:	89 ea                	mov    edx,ebp
    1aaf:	89 de                	mov    esi,ebx
    1ab1:	48 8b 7c 24 08       	mov    rdi,QWORD PTR [rsp+0x8]
    1ab6:	e8 00 00 00 00       	call   1abb <_ZN9simulator9calcTermsEii+0x221>
    1abb:	f3 0f 5a 4c 24 28    	cvtss2sd xmm1,DWORD PTR [rsp+0x28]
    1ac1:	f3 0f 5a c0          	cvtss2sd xmm0,xmm0
    1ac5:	f2 0f 58 c0          	addsd  xmm0,xmm0
    1ac9:	f2 0f 5c c8          	subsd  xmm1,xmm0
    1acd:	f2 0f 11 4c 24 28    	movsd  QWORD PTR [rsp+0x28],xmm1
    1ad3:	89 ea                	mov    edx,ebp
    1ad5:	8b 34 24             	mov    esi,DWORD PTR [rsp]
    1ad8:	48 8b 7c 24 08       	mov    rdi,QWORD PTR [rsp+0x8]
    1add:	e8 00 00 00 00       	call   1ae2 <_ZN9simulator9calcTermsEii+0x248>
    1ae2:	f3 0f 5a c0          	cvtss2sd xmm0,xmm0
    1ae6:	f2 0f 58 44 24 28    	addsd  xmm0,QWORD PTR [rsp+0x28]
    1aec:	f2 0f 5e 44 24 30    	divsd  xmm0,QWORD PTR [rsp+0x30]
    1af2:	f2 0f 5a e0          	cvtsd2ss xmm4,xmm0
    1af6:	f3 41 0f 11 64 24 58 	movss  DWORD PTR [r12+0x58],xmm4
    1afd:	44 89 f2             	mov    edx,r14d
    1b00:	89 de                	mov    esi,ebx
    1b02:	48 8b 7c 24 10       	mov    rdi,QWORD PTR [rsp+0x10]
    1b07:	e8 00 00 00 00       	call   1b0c <_ZN9simulator9calcTermsEii+0x272>
    1b0c:	f3 0f 11 44 24 28    	movss  DWORD PTR [rsp+0x28],xmm0
    1b12:	89 ea                	mov    edx,ebp
    1b14:	89 de                	mov    esi,ebx
    1b16:	48 8b 7c 24 10       	mov    rdi,QWORD PTR [rsp+0x10]
    1b1b:	e8 00 00 00 00       	call   1b20 <_ZN9simulator9calcTermsEii+0x286>
    1b20:	f3 0f 5a 4c 24 28    	cvtss2sd xmm1,DWORD PTR [rsp+0x28]
    1b26:	f3 0f 5a c0          	cvtss2sd xmm0,xmm0
    1b2a:	f2 0f 58 c0          	addsd  xmm0,xmm0
    1b2e:	f2 0f 5c c8          	subsd  xmm1,xmm0
    1b32:	f2 0f 11 4c 24 28    	movsd  QWORD PTR [rsp+0x28],xmm1
    1b38:	44 89 ea             	mov    edx,r13d
    1b3b:	89 de                	mov    esi,ebx
    1b3d:	48 8b 7c 24 10       	mov    rdi,QWORD PTR [rsp+0x10]
    1b42:	e8 00 00 00 00       	call   1b47 <_ZN9simulator9calcTermsEii+0x2ad>
    1b47:	f3 0f 10 7c 24 38    	movss  xmm7,DWORD PTR [rsp+0x38]
    1b4d:	0f 28 cf             	movaps xmm1,xmm7
    1b50:	f3 0f 59 cf          	mulss  xmm1,xmm7
    1b54:	f3 0f 5a e1          	cvtss2sd xmm4,xmm1
    1b58:	f3 0f 5a c0          	cvtss2sd xmm0,xmm0
    1b5c:	f2 0f 58 44 24 28    	addsd  xmm0,QWORD PTR [rsp+0x28]
    1b62:	f2 0f 11 64 24 28    	movsd  QWORD PTR [rsp+0x28],xmm4
    1b68:	f2 0f 5e c4          	divsd  xmm0,xmm4
    1b6c:	f2 0f 5a f8          	cvtsd2ss xmm7,xmm0
    1b70:	f3 41 0f 11 7c 24 5c 	movss  DWORD PTR [r12+0x5c],xmm7
    1b77:	44 89 f2             	mov    edx,r14d
    1b7a:	89 de                	mov    esi,ebx
    1b7c:	48 8b 7c 24 08       	mov    rdi,QWORD PTR [rsp+0x8]
    1b81:	e8 00 00 00 00       	call   1b86 <_ZN9simulator9calcTermsEii+0x2ec>
    1b86:	f3 0f 11 44 24 10    	movss  DWORD PTR [rsp+0x10],xmm0
    1b8c:	89 ea                	mov    edx,ebp
    1b8e:	89 de                	mov    esi,ebx
    1b90:	48 8b 7c 24 08       	mov    rdi,QWORD PTR [rsp+0x8]
    1b95:	e8 00 00 00 00       	call   1b9a <_ZN9simulator9calcTermsEii+0x300>
    1b9a:	f3 0f 5a 4c 24 10    	cvtss2sd xmm1,DWORD PTR [rsp+0x10]
    1ba0:	f3 0f 5a c0          	cvtss2sd xmm0,xmm0
    1ba4:	f2 0f 58 c0          	addsd  xmm0,xmm0
    1ba8:	f2 0f 5c c8          	subsd  xmm1,xmm0
    1bac:	f2 0f 11 4c 24 10    	movsd  QWORD PTR [rsp+0x10],xmm1
    1bb2:	44 89 ea             	mov    edx,r13d
    1bb5:	89 de                	mov    esi,ebx
    1bb7:	48 8b 7c 24 08       	mov    rdi,QWORD PTR [rsp+0x8]
    1bbc:	e8 00 00 00 00       	call   1bc1 <_ZN9simulator9calcTermsEii+0x327>
    1bc1:	f3 0f 5a c0          	cvtss2sd xmm0,xmm0
    1bc5:	f2 0f 58 44 24 10    	addsd  xmm0,QWORD PTR [rsp+0x10]
    1bcb:	f2 0f 5e 44 24 28    	divsd  xmm0,QWORD PTR [rsp+0x28]
    1bd1:	f2 0f 5a f8          	cvtsd2ss xmm7,xmm0
    1bd5:	f3 41 0f 11 7c 24 60 	movss  DWORD PTR [r12+0x60],xmm7
    1bdc:	49 8d 8c 24 00 01 00 	lea    rcx,[r12+0x100]
    1be3:	00 
    1be4:	89 ea                	mov    edx,ebp
    1be6:	44 89 fe             	mov    esi,r15d
    1be9:	48 89 4c 24 38       	mov    QWORD PTR [rsp+0x38],rcx
    1bee:	48 89 cf             	mov    rdi,rcx
    1bf1:	e8 00 00 00 00       	call   1bf6 <_ZN9simulator9calcTermsEii+0x35c>
    1bf6:	f3 0f 11 44 24 08    	movss  DWORD PTR [rsp+0x8],xmm0
    1bfc:	89 ea                	mov    edx,ebp
    1bfe:	8b 34 24             	mov    esi,DWORD PTR [rsp]
    1c01:	48 8b 7c 24 38       	mov    rdi,QWORD PTR [rsp+0x38]
    1c06:	e8 00 00 00 00       	call   1c0b <_ZN9simulator9calcTermsEii+0x371>
    1c0b:	f3 0f 10 74 24 08    	movss  xmm6,DWORD PTR [rsp+0x8]
    1c11:	f3 0f 5c f0          	subss  xmm6,xmm0
    1c15:	f3 0f 5a c6          	cvtss2sd xmm0,xmm6
    1c19:	f2 0f 5e 44 24 18    	divsd  xmm0,QWORD PTR [rsp+0x18]
    1c1f:	f2 0f 5a f0          	cvtsd2ss xmm6,xmm0
    1c23:	f3 41 0f 11 74 24 64 	movss  DWORD PTR [r12+0x64],xmm6
    1c2a:	49 8d b4 24 30 01 00 	lea    rsi,[r12+0x130]
    1c31:	00 
    1c32:	48 89 f7             	mov    rdi,rsi
    1c35:	89 ea                	mov    edx,ebp
    1c37:	44 89 fe             	mov    esi,r15d
    1c3a:	48 89 7c 24 40       	mov    QWORD PTR [rsp+0x40],rdi
    1c3f:	e8 00 00 00 00       	call   1c44 <_ZN9simulator9calcTermsEii+0x3aa>
    1c44:	f3 0f 11 44 24 08    	movss  DWORD PTR [rsp+0x8],xmm0
    1c4a:	89 ea                	mov    edx,ebp
    1c4c:	8b 34 24             	mov    esi,DWORD PTR [rsp]
    1c4f:	48 8b 7c 24 40       	mov    rdi,QWORD PTR [rsp+0x40]
    1c54:	e8 00 00 00 00       	call   1c59 <_ZN9simulator9calcTermsEii+0x3bf>
    1c59:	f3 0f 10 7c 24 08    	movss  xmm7,DWORD PTR [rsp+0x8]
    1c5f:	f3 0f 5c f8          	subss  xmm7,xmm0
    1c63:	f3 0f 5a c7          	cvtss2sd xmm0,xmm7
    1c67:	f2 0f 5e 44 24 18    	divsd  xmm0,QWORD PTR [rsp+0x18]
    1c6d:	f2 0f 5a f8          	cvtsd2ss xmm7,xmm0
    1c71:	f3 41 0f 11 7c 24 68 	movss  DWORD PTR [r12+0x68],xmm7
    1c78:	44 89 f2             	mov    edx,r14d
    1c7b:	89 de                	mov    esi,ebx
    1c7d:	48 8b 7c 24 38       	mov    rdi,QWORD PTR [rsp+0x38]
    1c82:	e8 00 00 00 00       	call   1c87 <_ZN9simulator9calcTermsEii+0x3ed>
    1c87:	f3 0f 11 44 24 08    	movss  DWORD PTR [rsp+0x8],xmm0
    1c8d:	44 89 ea             	mov    edx,r13d
    1c90:	89 de                	mov    esi,ebx
    1c92:	48 8b 7c 24 38       	mov    rdi,QWORD PTR [rsp+0x38]
    1c97:	e8 00 00 00 00       	call   1c9c <_ZN9simulator9calcTermsEii+0x402>
    1c9c:	f3 0f 10 74 24 08    	movss  xmm6,DWORD PTR [rsp+0x8]
    1ca2:	f3 0f 5c f0          	subss  xmm6,xmm0
    1ca6:	f3 0f 5a c6          	cvtss2sd xmm0,xmm6
    1caa:	f2 0f 5e 44 24 20    	divsd  xmm0,QWORD PTR [rsp+0x20]
    1cb0:	f2 0f 5a f0          	cvtsd2ss xmm6,xmm0
    1cb4:	f3 41 0f 11 74 24 6c 	movss  DWORD PTR [r12+0x6c],xmm6
    1cbb:	44 89 f2             	mov    edx,r14d
    1cbe:	89 de                	mov    esi,ebx
    1cc0:	48 8b 7c 24 40       	mov    rdi,QWORD PTR [rsp+0x40]
    1cc5:	e8 00 00 00 00       	call   1cca <_ZN9simulator9calcTermsEii+0x430>
    1cca:	f3 0f 11 44 24 08    	movss  DWORD PTR [rsp+0x8],xmm0
    1cd0:	44 89 ea             	mov    edx,r13d
    1cd3:	89 de                	mov    esi,ebx
    1cd5:	48 8b 7c 24 40       	mov    rdi,QWORD PTR [rsp+0x40]
    1cda:	e8 00 00 00 00       	call   1cdf <_ZN9simulator9calcTermsEii+0x445>
    1cdf:	f3 0f 10 7c 24 08    	movss  xmm7,DWORD PTR [rsp+0x8]
    1ce5:	f3 0f 5c f8          	subss  xmm7,xmm0
    1ce9:	f3 0f 5a c7          	cvtss2sd xmm0,xmm7
    1ced:	f2 0f 5e 44 24 20    	divsd  xmm0,QWORD PTR [rsp+0x20]
    1cf3:	f2 0f 5a f8          	cvtsd2ss xmm7,xmm0
    1cf7:	f3 41 0f 11 7c 24 70 	movss  DWORD PTR [r12+0x70],xmm7
    1cfe:	49 8d 84 24 f0 00 00 	lea    rax,[r12+0xf0]
    1d05:	00 
    1d06:	89 ea                	mov    edx,ebp
    1d08:	44 89 fe             	mov    esi,r15d
    1d0b:	48 89 44 24 08       	mov    QWORD PTR [rsp+0x8],rax
    1d10:	48 89 c7             	mov    rdi,rax
    1d13:	e8 00 00 00 00       	call   1d18 <_ZN9simulator9calcTermsEii+0x47e>
    1d18:	f3 0f 11 44 24 10    	movss  DWORD PTR [rsp+0x10],xmm0
    1d1e:	89 ea                	mov    edx,ebp
    1d20:	8b 34 24             	mov    esi,DWORD PTR [rsp]
    1d23:	48 8b 7c 24 08       	mov    rdi,QWORD PTR [rsp+0x8]
    1d28:	e8 00 00 00 00       	call   1d2d <_ZN9simulator9calcTermsEii+0x493>
    1d2d:	f3 0f 10 74 24 10    	movss  xmm6,DWORD PTR [rsp+0x10]
    1d33:	f3 0f 5c f0          	subss  xmm6,xmm0
    1d37:	f3 0f 5a c6          	cvtss2sd xmm0,xmm6
    1d3b:	f2 0f 5e 44 24 18    	divsd  xmm0,QWORD PTR [rsp+0x18]
    1d41:	f2 0f 5a f0          	cvtsd2ss xmm6,xmm0
    1d45:	f3 41 0f 11 74 24 74 	movss  DWORD PTR [r12+0x74],xmm6
    1d4c:	49 8d 94 24 20 01 00 	lea    rdx,[r12+0x120]
    1d53:	00 
    1d54:	48 89 d7             	mov    rdi,rdx
    1d57:	89 ea                	mov    edx,ebp
    1d59:	44 89 fe             	mov    esi,r15d
    1d5c:	48 89 7c 24 10       	mov    QWORD PTR [rsp+0x10],rdi
    1d61:	e8 00 00 00 00       	call   1d66 <_ZN9simulator9calcTermsEii+0x4cc>
    1d66:	f3 0f 11 44 24 4c    	movss  DWORD PTR [rsp+0x4c],xmm0
    1d6c:	89 ea                	mov    edx,ebp
    1d6e:	8b 34 24             	mov    esi,DWORD PTR [rsp]
    1d71:	48 8b 7c 24 10       	mov    rdi,QWORD PTR [rsp+0x10]
    1d76:	e8 00 00 00 00       	call   1d7b <_ZN9simulator9calcTermsEii+0x4e1>
    1d7b:	f3 0f 10 7c 24 4c    	movss  xmm7,DWORD PTR [rsp+0x4c]
    1d81:	f3 0f 5c f8          	subss  xmm7,xmm0
    1d85:	f3 0f 5a c7          	cvtss2sd xmm0,xmm7
    1d89:	f2 0f 5e 44 24 18    	divsd  xmm0,QWORD PTR [rsp+0x18]
    1d8f:	f2 0f 5a d0          	cvtsd2ss xmm2,xmm0
    1d93:	f3 41 0f 11 54 24 78 	movss  DWORD PTR [r12+0x78],xmm2
    1d9a:	44 89 f2             	mov    edx,r14d
    1d9d:	89 de                	mov    esi,ebx
    1d9f:	48 8b 7c 24 08       	mov    rdi,QWORD PTR [rsp+0x8]
    1da4:	e8 00 00 00 00       	call   1da9 <_ZN9simulator9calcTermsEii+0x50f>
    1da9:	f3 0f 11 44 24 18    	movss  DWORD PTR [rsp+0x18],xmm0
    1daf:	44 89 ea             	mov    edx,r13d
    1db2:	89 de                	mov    esi,ebx
    1db4:	48 8b 7c 24 08       	mov    rdi,QWORD PTR [rsp+0x8]
    1db9:	e8 00 00 00 00       	call   1dbe <_ZN9simulator9calcTermsEii+0x524>
    1dbe:	f3 0f 10 54 24 18    	movss  xmm2,DWORD PTR [rsp+0x18]
    1dc4:	f3 0f 5c d0          	subss  xmm2,xmm0
    1dc8:	f3 0f 5a c2          	cvtss2sd xmm0,xmm2
    1dcc:	f2 0f 5e 44 24 20    	divsd  xmm0,QWORD PTR [rsp+0x20]
    1dd2:	f2 0f 5a d0          	cvtsd2ss xmm2,xmm0
    1dd6:	f3 41 0f 11 54 24 7c 	movss  DWORD PTR [r12+0x7c],xmm2
    1ddd:	44 89 f2             	mov    edx,r14d
    1de0:	89 de                	mov    esi,ebx
    1de2:	48 8b 7c 24 10       	mov    rdi,QWORD PTR [rsp+0x10]
    1de7:	e8 00 00 00 00       	call   1dec <_ZN9simulator9calcTermsEii+0x552>
    1dec:	f3 0f 11 44 24 18    	movss  DWORD PTR [rsp+0x18],xmm0
    1df2:	44 89 ea             	mov    edx,r13d
    1df5:	89 de                	mov    esi,ebx
    1df7:	48 8b 7c 24 10       	mov    rdi,QWORD PTR [rsp+0x10]
    1dfc:	e8 00 00 00 00       	call   1e01 <_ZN9simulator9calcTermsEii+0x567>
    1e01:	f3 0f 10 54 24 18    	movss  xmm2,DWORD PTR [rsp+0x18]
    1e07:	f3 0f 5c d0          	subss  xmm2,xmm0
    1e0b:	f3 0f 5a c2          	cvtss2sd xmm0,xmm2
    1e0f:	f2 0f 5e 44 24 20    	divsd  xmm0,QWORD PTR [rsp+0x20]
    1e15:	f2 0f 5a d8          	cvtsd2ss xmm3,xmm0
    1e19:	f3 41 0f 11 9c 24 80 	movss  DWORD PTR [r12+0x80],xmm3
    1e20:	00 00 00 
    1e23:	89 ea                	mov    edx,ebp
    1e25:	44 89 fe             	mov    esi,r15d
    1e28:	48 8b 7c 24 08       	mov    rdi,QWORD PTR [rsp+0x8]
    1e2d:	e8 00 00 00 00       	call   1e32 <_ZN9simulator9calcTermsEii+0x598>
    1e32:	f3 0f 11 44 24 18    	movss  DWORD PTR [rsp+0x18],xmm0
    1e38:	89 ea                	mov    edx,ebp
    1e3a:	89 de                	mov    esi,ebx
    1e3c:	48 8b 7c 24 08       	mov    rdi,QWORD PTR [rsp+0x8]
    1e41:	e8 00 00 00 00       	call   1e46 <_ZN9simulator9calcTermsEii+0x5ac>
    1e46:	f3 0f 5a 4c 24 18    	cvtss2sd xmm1,DWORD PTR [rsp+0x18]
    1e4c:	f3 0f 5a c0          	cvtss2sd xmm0,xmm0
    1e50:	f2 0f 58 c0          	addsd  xmm0,xmm0
    1e54:	f2 0f 5c c8          	subsd  xmm1,xmm0
    1e58:	f2 0f 11 4c 24 18    	movsd  QWORD PTR [rsp+0x18],xmm1
    1e5e:	89 ea                	mov    edx,ebp
    1e60:	8b 34 24             	mov    esi,DWORD PTR [rsp]
    1e63:	48 8b 7c 24 08       	mov    rdi,QWORD PTR [rsp+0x8]
    1e68:	e8 00 00 00 00       	call   1e6d <_ZN9simulator9calcTermsEii+0x5d3>
    1e6d:	f3 0f 5a c0          	cvtss2sd xmm0,xmm0
    1e71:	f2 0f 58 44 24 18    	addsd  xmm0,QWORD PTR [rsp+0x18]
    1e77:	f2 0f 5e 44 24 30    	divsd  xmm0,QWORD PTR [rsp+0x30]
    1e7d:	f2 0f 5a d8          	cvtsd2ss xmm3,xmm0
    1e81:	f3 41 0f 11 9c 24 84 	movss  DWORD PTR [r12+0x84],xmm3
    1e88:	00 00 00 
    1e8b:	89 ea                	mov    edx,ebp
    1e8d:	44 89 fe             	mov    esi,r15d
    1e90:	48 8b 7c 24 10       	mov    rdi,QWORD PTR [rsp+0x10]
    1e95:	e8 00 00 00 00       	call   1e9a <_ZN9simulator9calcTermsEii+0x600>
    1e9a:	f3 0f 11 44 24 18    	movss  DWORD PTR [rsp+0x18],xmm0
    1ea0:	89 ea                	mov    edx,ebp
    1ea2:	89 de                	mov    esi,ebx
    1ea4:	48 8b 7c 24 10       	mov    rdi,QWORD PTR [rsp+0x10]
    1ea9:	e8 00 00 00 00       	call   1eae <_ZN9simulator9calcTermsEii+0x614>
    1eae:	f3 0f 5a 4c 24 18    	cvtss2sd xmm1,DWORD PTR [rsp+0x18]
    1eb4:	f3 0f 5a c0          	cvtss2sd xmm0,xmm0
    1eb8:	f2 0f 58 c0          	addsd  xmm0,xmm0
    1ebc:	f2 0f 5c c8          	subsd  xmm1,xmm0
    1ec0:	f2 0f 11 4c 24 18    	movsd  QWORD PTR [rsp+0x18],xmm1
    1ec6:	89 ea                	mov    edx,ebp
    1ec8:	8b 34 24             	mov    esi,DWORD PTR [rsp]
    1ecb:	48 8b 7c 24 10       	mov    rdi,QWORD PTR [rsp+0x10]
    1ed0:	e8 00 00 00 00       	call   1ed5 <_ZN9simulator9calcTermsEii+0x63b>
    1ed5:	f3 0f 5a c0          	cvtss2sd xmm0,xmm0
    1ed9:	f2 0f 58 44 24 18    	addsd  xmm0,QWORD PTR [rsp+0x18]
    1edf:	f2 0f 5e 44 24 30    	divsd  xmm0,QWORD PTR [rsp+0x30]
    1ee5:	f2 0f 5a d8          	cvtsd2ss xmm3,xmm0
    1ee9:	f3 41 0f 11 9c 24 88 	movss  DWORD PTR [r12+0x88],xmm3
    1ef0:	00 00 00 
    1ef3:	44 89 f2             	mov    edx,r14d
    1ef6:	89 de                	mov    esi,ebx
    1ef8:	48 8b 7c 24 08       	mov    rdi,QWORD PTR [rsp+0x8]
    1efd:	e8 00 00 00 00       	call   1f02 <_ZN9simulator9calcTermsEii+0x668>
    1f02:	f3 0f 11 44 24 18    	movss  DWORD PTR [rsp+0x18],xmm0
    1f08:	89 ea                	mov    edx,ebp
    1f0a:	89 de                	mov    esi,ebx
    1f0c:	48 8b 7c 24 08       	mov    rdi,QWORD PTR [rsp+0x8]
    1f11:	e8 00 00 00 00       	call   1f16 <_ZN9simulator9calcTermsEii+0x67c>
    1f16:	f3 0f 5a 4c 24 18    	cvtss2sd xmm1,DWORD PTR [rsp+0x18]
    1f1c:	f3 0f 5a c0          	cvtss2sd xmm0,xmm0
    1f20:	f2 0f 58 c0          	addsd  xmm0,xmm0
    1f24:	f2 0f 5c c8          	subsd  xmm1,xmm0
    1f28:	f2 0f 11 4c 24 18    	movsd  QWORD PTR [rsp+0x18],xmm1
    1f2e:	44 89 ea             	mov    edx,r13d
    1f31:	89 de                	mov    esi,ebx
    1f33:	48 8b 7c 24 08       	mov    rdi,QWORD PTR [rsp+0x8]
    1f38:	e8 00 00 00 00       	call   1f3d <_ZN9simulator9calcTermsEii+0x6a3>
    1f3d:	f3 0f 5a c0          	cvtss2sd xmm0,xmm0
    1f41:	f2 0f 58 44 24 18    	addsd  xmm0,QWORD PTR [rsp+0x18]
    1f47:	f2 0f 5e 44 24 28    	divsd  xmm0,QWORD PTR [rsp+0x28]
    1f4d:	f2 0f 5a d8          	cvtsd2ss xmm3,xmm0
    1f51:	f3 41 0f 11 9c 24 8c 	movss  DWORD PTR [r12+0x8c],xmm3
    1f58:	00 00 00 
    1f5b:	44 89 f2             	mov    edx,r14d
    1f5e:	89 de                	mov    esi,ebx
    1f60:	48 8b 7c 24 10       	mov    rdi,QWORD PTR [rsp+0x10]
    1f65:	e8 00 00 00 00       	call   1f6a <_ZN9simulator9calcTermsEii+0x6d0>
    1f6a:	f3 0f 11 44 24 08    	movss  DWORD PTR [rsp+0x8],xmm0
    1f70:	89 ea                	mov    edx,ebp
    1f72:	89 de                	mov    esi,ebx
    1f74:	48 8b 7c 24 10       	mov    rdi,QWORD PTR [rsp+0x10]
    1f79:	e8 00 00 00 00       	call   1f7e <_ZN9simulator9calcTermsEii+0x6e4>
    1f7e:	f3 0f 5a 4c 24 08    	cvtss2sd xmm1,DWORD PTR [rsp+0x8]
    1f84:	f3 0f 5a c0          	cvtss2sd xmm0,xmm0
    1f88:	f2 0f 58 c0          	addsd  xmm0,xmm0
    1f8c:	f2 0f 5c c8          	subsd  xmm1,xmm0
    1f90:	f2 0f 11 4c 24 08    	movsd  QWORD PTR [rsp+0x8],xmm1
    1f96:	44 89 ea             	mov    edx,r13d
    1f99:	89 de                	mov    esi,ebx
    1f9b:	48 8b 7c 24 10       	mov    rdi,QWORD PTR [rsp+0x10]
    1fa0:	e8 00 00 00 00       	call   1fa5 <_ZN9simulator9calcTermsEii+0x70b>
    1fa5:	f3 0f 5a c0          	cvtss2sd xmm0,xmm0
    1fa9:	f2 0f 58 44 24 08    	addsd  xmm0,QWORD PTR [rsp+0x8]
    1faf:	f2 0f 5e 44 24 28    	divsd  xmm0,QWORD PTR [rsp+0x28]
    1fb5:	f2 0f 5a d8          	cvtsd2ss xmm3,xmm0
    1fb9:	f3 41 0f 11 9c 24 90 	movss  DWORD PTR [r12+0x90],xmm3
    1fc0:	00 00 00 
    1fc3:	89 ea                	mov    edx,ebp
    1fc5:	44 89 fe             	mov    esi,r15d
    1fc8:	4c 8b 7c 24 38       	mov    r15,QWORD PTR [rsp+0x38]
    1fcd:	4c 89 ff             	mov    rdi,r15
    1fd0:	e8 00 00 00 00       	call   1fd5 <_ZN9simulator9calcTermsEii+0x73b>
    1fd5:	f3 0f 11 44 24 08    	movss  DWORD PTR [rsp+0x8],xmm0
    1fdb:	89 ea                	mov    edx,ebp
    1fdd:	89 de                	mov    esi,ebx
    1fdf:	4c 89 ff             	mov    rdi,r15
    1fe2:	e8 00 00 00 00       	call   1fe7 <_ZN9simulator9calcTermsEii+0x74d>
    1fe7:	f3 0f 5a 4c 24 08    	cvtss2sd xmm1,DWORD PTR [rsp+0x8]
    1fed:	f3 0f 5a c0          	cvtss2sd xmm0,xmm0
    1ff1:	f2 0f 58 c0          	addsd  xmm0,xmm0
    1ff5:	f2 0f 5c c8          	subsd  xmm1,xmm0
    1ff9:	f2 0f 11 4c 24 08    	movsd  QWORD PTR [rsp+0x8],xmm1
    1fff:	89 ea                	mov    edx,ebp
    2001:	8b 34 24             	mov    esi,DWORD PTR [rsp]
    2004:	4c 89 ff             	mov    rdi,r15
    2007:	e8 00 00 00 00       	call   200c <_ZN9simulator9calcTermsEii+0x772>
    200c:	f3 0f 5a c0          	cvtss2sd xmm0,xmm0
    2010:	f2 0f 58 44 24 08    	addsd  xmm0,QWORD PTR [rsp+0x8]
    2016:	f2 0f 5e 44 24 30    	divsd  xmm0,QWORD PTR [rsp+0x30]
    201c:	f2 0f 5a e8          	cvtsd2ss xmm5,xmm0
    2020:	f3 41 0f 11 ac 24 94 	movss  DWORD PTR [r12+0x94],xmm5
    2027:	00 00 00 
    202a:	44 89 f2             	mov    edx,r14d
    202d:	89 de                	mov    esi,ebx
    202f:	4c 89 ff             	mov    rdi,r15
    2032:	e8 00 00 00 00       	call   2037 <_ZN9simulator9calcTermsEii+0x79d>
    2037:	f3 0f 11 04 24       	movss  DWORD PTR [rsp],xmm0
    203c:	89 ea                	mov    edx,ebp
    203e:	89 de                	mov    esi,ebx
    2040:	4c 89 ff             	mov    rdi,r15
    2043:	e8 00 00 00 00       	call   2048 <_ZN9simulator9calcTermsEii+0x7ae>
    2048:	f3 0f 5a 0c 24       	cvtss2sd xmm1,DWORD PTR [rsp]
    204d:	f3 0f 5a c0          	cvtss2sd xmm0,xmm0
    2051:	f2 0f 58 c0          	addsd  xmm0,xmm0
    2055:	f2 0f 5c c8          	subsd  xmm1,xmm0
    2059:	f2 0f 11 0c 24       	movsd  QWORD PTR [rsp],xmm1
    205e:	44 89 ea             	mov    edx,r13d
    2061:	89 de                	mov    esi,ebx
    2063:	4c 89 ff             	mov    rdi,r15
    2066:	e8 00 00 00 00       	call   206b <_ZN9simulator9calcTermsEii+0x7d1>
    206b:	f3 0f 5a c0          	cvtss2sd xmm0,xmm0
    206f:	f2 0f 58 04 24       	addsd  xmm0,QWORD PTR [rsp]
    2074:	f2 0f 5e 44 24 28    	divsd  xmm0,QWORD PTR [rsp+0x28]
    207a:	f2 0f 5a e8          	cvtsd2ss xmm5,xmm0
    207e:	f3 41 0f 11 ac 24 98 	movss  DWORD PTR [r12+0x98],xmm5
    2085:	00 00 00 
    2088:	44 89 f2             	mov    edx,r14d
    208b:	89 de                	mov    esi,ebx
    208d:	4c 8b 74 24 40       	mov    r14,QWORD PTR [rsp+0x40]
    2092:	4c 89 f7             	mov    rdi,r14
    2095:	e8 00 00 00 00       	call   209a <_ZN9simulator9calcTermsEii+0x800>
    209a:	f3 0f 11 04 24       	movss  DWORD PTR [rsp],xmm0
    209f:	89 ea                	mov    edx,ebp
    20a1:	89 de                	mov    esi,ebx
    20a3:	4c 89 f7             	mov    rdi,r14
    20a6:	e8 00 00 00 00       	call   20ab <_ZN9simulator9calcTermsEii+0x811>
    20ab:	f3 0f 5a 0c 24       	cvtss2sd xmm1,DWORD PTR [rsp]
    20b0:	f3 0f 5a c0          	cvtss2sd xmm0,xmm0
    20b4:	f2 0f 58 c0          	addsd  xmm0,xmm0
    20b8:	f2 0f 5c c8          	subsd  xmm1,xmm0
    20bc:	f2 0f 11 0c 24       	movsd  QWORD PTR [rsp],xmm1
    20c1:	44 89 ea             	mov    edx,r13d
    20c4:	89 de                	mov    esi,ebx
    20c6:	4c 89 f7             	mov    rdi,r14
    20c9:	e8 00 00 00 00       	call   20ce <_ZN9simulator9calcTermsEii+0x834>
    20ce:	f3 0f 5a c0          	cvtss2sd xmm0,xmm0
    20d2:	f2 0f 58 04 24       	addsd  xmm0,QWORD PTR [rsp]
    20d7:	f2 0f 5e 44 24 28    	divsd  xmm0,QWORD PTR [rsp+0x28]
    20dd:	f2 0f 5a e0          	cvtsd2ss xmm4,xmm0
    20e1:	f3 41 0f 11 a4 24 9c 	movss  DWORD PTR [r12+0x9c],xmm4
    20e8:	00 00 00 
    20eb:	48 83 c4 50          	add    rsp,0x50
    20ef:	5b                   	pop    rbx
    20f0:	5d                   	pop    rbp
    20f1:	41 5c                	pop    r12
    20f3:	41 5d                	pop    r13
    20f5:	41 5e                	pop    r14
    20f7:	41 5f                	pop    r15
    20f9:	c3                   	ret    

00000000000020fa <_ZN9simulator7processEv>:
    20fa:	41 57                	push   r15
    20fc:	41 56                	push   r14
    20fe:	41 55                	push   r13
    2100:	41 54                	push   r12
    2102:	55                   	push   rbp
    2103:	53                   	push   rbx
    2104:	48 83 ec 18          	sub    rsp,0x18
    2108:	66 0f ef c0          	pxor   xmm0,xmm0
    210c:	f3 0f 11 87 a8 00 00 	movss  DWORD PTR [rdi+0xa8],xmm0
    2113:	00 
    2114:	f3 0f 10 4f 08       	movss  xmm1,DWORD PTR [rdi+0x8]
    2119:	0f 2e c8             	ucomiss xmm1,xmm0
    211c:	0f 86 3d 01 00 00    	jbe    225f <_ZN9simulator7processEv+0x165>
    2122:	48 89 fd             	mov    rbp,rdi
    2125:	83 47 30 01          	add    DWORD PTR [rdi+0x30],0x1
    2129:	f3 0f 5e c1          	divss  xmm0,xmm1
    212d:	0f 2e 87 ac 00 00 00 	ucomiss xmm0,DWORD PTR [rdi+0xac]
    2134:	0f 87 46 01 00 00    	ja     2280 <_ZN9simulator7processEv+0x186>
    213a:	4c 8d b7 e0 00 00 00 	lea    r14,[rdi+0xe0]
    2141:	4c 8d bf b0 00 00 00 	lea    r15,[rdi+0xb0]
    2148:	48 8d 87 10 01 00 00 	lea    rax,[rdi+0x110]
    214f:	48 89 44 24 08       	mov    QWORD PTR [rsp+0x8],rax
    2154:	4c 8d af f0 00 00 00 	lea    r13,[rdi+0xf0]
    215b:	eb 1d                	jmp    217a <_ZN9simulator7processEv+0x80>
    215d:	83 45 30 01          	add    DWORD PTR [rbp+0x30],0x1
    2161:	f3 0f 59 05 00 00 00 	mulss  xmm0,DWORD PTR [rip+0x0]        # 2169 <_ZN9simulator7processEv+0x6f>
    2168:	00 
    2169:	f3 0f 5e c1          	divss  xmm0,xmm1
    216d:	0f 2e 85 ac 00 00 00 	ucomiss xmm0,DWORD PTR [rbp+0xac]
    2174:	0f 87 06 01 00 00    	ja     2280 <_ZN9simulator7processEv+0x186>
    217a:	48 89 ef             	mov    rdi,rbp
    217d:	e8 00 00 00 00       	call   2182 <_ZN9simulator7processEv+0x88>
    2182:	48 89 ef             	mov    rdi,rbp
    2185:	e8 00 00 00 00       	call   218a <_ZN9simulator7processEv+0x90>
    218a:	8b 45 24             	mov    eax,DWORD PTR [rbp+0x24]
    218d:	83 e8 01             	sub    eax,0x1
    2190:	83 f8 01             	cmp    eax,0x1
    2193:	7e 4c                	jle    21e1 <_ZN9simulator7processEv+0xe7>
    2195:	41 bc 01 00 00 00    	mov    r12d,0x1
    219b:	8b 45 28             	mov    eax,DWORD PTR [rbp+0x28]
    219e:	83 e8 01             	sub    eax,0x1
    21a1:	83 f8 01             	cmp    eax,0x1
    21a4:	7e 2c                	jle    21d2 <_ZN9simulator7processEv+0xd8>
    21a6:	bb 01 00 00 00       	mov    ebx,0x1
    21ab:	89 da                	mov    edx,ebx
    21ad:	44 89 e6             	mov    esi,r12d
    21b0:	48 89 ef             	mov    rdi,rbp
    21b3:	e8 00 00 00 00       	call   21b8 <_ZN9simulator7processEv+0xbe>
    21b8:	89 da                	mov    edx,ebx
    21ba:	44 89 e6             	mov    esi,r12d
    21bd:	48 89 ef             	mov    rdi,rbp
    21c0:	e8 00 00 00 00       	call   21c5 <_ZN9simulator7processEv+0xcb>
    21c5:	83 c3 01             	add    ebx,0x1
    21c8:	8b 45 28             	mov    eax,DWORD PTR [rbp+0x28]
    21cb:	83 e8 01             	sub    eax,0x1
    21ce:	39 d8                	cmp    eax,ebx
    21d0:	7f d9                	jg     21ab <_ZN9simulator7processEv+0xb1>
    21d2:	41 83 c4 01          	add    r12d,0x1
    21d6:	8b 45 24             	mov    eax,DWORD PTR [rbp+0x24]
    21d9:	83 e8 01             	sub    eax,0x1
    21dc:	44 39 e0             	cmp    eax,r12d
    21df:	7f ba                	jg     219b <_ZN9simulator7processEv+0xa1>
    21e1:	4c 89 f6             	mov    rsi,r14
    21e4:	4c 89 ff             	mov    rdi,r15
    21e7:	e8 00 00 00 00       	call   21ec <_ZN9simulator7processEv+0xf2>
    21ec:	48 8b 74 24 08       	mov    rsi,QWORD PTR [rsp+0x8]
    21f1:	4c 89 f7             	mov    rdi,r14
    21f4:	e8 00 00 00 00       	call   21f9 <_ZN9simulator7processEv+0xff>
    21f9:	48 8d bd c0 00 00 00 	lea    rdi,[rbp+0xc0]
    2200:	4c 89 ee             	mov    rsi,r13
    2203:	e8 00 00 00 00       	call   2208 <_ZN9simulator7processEv+0x10e>
    2208:	48 8d b5 20 01 00 00 	lea    rsi,[rbp+0x120]
    220f:	4c 89 ef             	mov    rdi,r13
    2212:	e8 00 00 00 00       	call   2217 <_ZN9simulator7processEv+0x11d>
    2217:	48 8d 9d 00 01 00 00 	lea    rbx,[rbp+0x100]
    221e:	48 8d bd d0 00 00 00 	lea    rdi,[rbp+0xd0]
    2225:	48 89 de             	mov    rsi,rbx
    2228:	e8 00 00 00 00       	call   222d <_ZN9simulator7processEv+0x133>
    222d:	48 8d b5 30 01 00 00 	lea    rsi,[rbp+0x130]
    2234:	48 89 df             	mov    rdi,rbx
    2237:	e8 00 00 00 00       	call   223c <_ZN9simulator7processEv+0x142>
    223c:	f3 0f 10 85 a8 00 00 	movss  xmm0,DWORD PTR [rbp+0xa8]
    2243:	00 
    2244:	f3 0f 58 45 1c       	addss  xmm0,DWORD PTR [rbp+0x1c]
    2249:	f3 0f 11 85 a8 00 00 	movss  DWORD PTR [rbp+0xa8],xmm0
    2250:	00 
    2251:	f3 0f 10 4d 08       	movss  xmm1,DWORD PTR [rbp+0x8]
    2256:	0f 2e c8             	ucomiss xmm1,xmm0
    2259:	0f 87 fe fe ff ff    	ja     215d <_ZN9simulator7processEv+0x63>
    225f:	be 64 00 00 00       	mov    esi,0x64
    2264:	bf 00 00 00 00       	mov    edi,0x0
    2269:	e8 00 00 00 00       	call   226e <_ZN9simulator7processEv+0x174>
    226e:	ba 03 00 00 00       	mov    edx,0x3
    2273:	be 00 00 00 00       	mov    esi,0x0
    2278:	48 89 c7             	mov    rdi,rax
    227b:	e8 00 00 00 00       	call   2280 <_ZN9simulator7processEv+0x186>
    2280:	48 83 c4 18          	add    rsp,0x18
    2284:	5b                   	pop    rbx
    2285:	5d                   	pop    rbp
    2286:	41 5c                	pop    r12
    2288:	41 5d                	pop    r13
    228a:	41 5e                	pop    r14
    228c:	41 5f                	pop    r15
    228e:	c3                   	ret    
    228f:	90                   	nop

0000000000002290 <_ZN9simulator12centralSpeedEv>:
    2290:	83 7f 24 00          	cmp    DWORD PTR [rdi+0x24],0x0
    2294:	0f 8e 96 01 00 00    	jle    2430 <_ZN9simulator12centralSpeedEv+0x1a0>
    229a:	41 55                	push   r13
    229c:	41 54                	push   r12
    229e:	55                   	push   rbp
    229f:	53                   	push   rbx
    22a0:	48 83 ec 18          	sub    rsp,0x18
    22a4:	48 89 fd             	mov    rbp,rdi
    22a7:	41 bc 00 00 00 00    	mov    r12d,0x0
    22ad:	4c 8d af 10 01 00 00 	lea    r13,[rdi+0x110]
    22b4:	83 7d 28 00          	cmp    DWORD PTR [rbp+0x28],0x0
    22b8:	0f 8e fa 00 00 00    	jle    23b8 <_ZN9simulator12centralSpeedEv+0x128>
    22be:	bb 00 00 00 00       	mov    ebx,0x0
    22c3:	66 0f ef f6          	pxor   xmm6,xmm6
    22c7:	f3 41 0f 2a f4       	cvtsi2ss xmm6,r12d
    22cc:	f3 0f 11 74 24 0c    	movss  DWORD PTR [rsp+0xc],xmm6
    22d2:	f3 0f 10 5c 24 0c    	movss  xmm3,DWORD PTR [rsp+0xc]
    22d8:	f3 0f 5c 5d 34       	subss  xmm3,DWORD PTR [rbp+0x34]
    22dd:	66 0f ef d2          	pxor   xmm2,xmm2
    22e1:	f3 0f 2a d3          	cvtsi2ss xmm2,ebx
    22e5:	f3 0f 5c 55 38       	subss  xmm2,DWORD PTR [rbp+0x38]
    22ea:	0f 28 c3             	movaps xmm0,xmm3
    22ed:	f3 0f 59 c3          	mulss  xmm0,xmm3
    22f1:	0f 28 ca             	movaps xmm1,xmm2
    22f4:	f3 0f 59 ca          	mulss  xmm1,xmm2
    22f8:	f3 0f 58 c1          	addss  xmm0,xmm1
    22fc:	f3 0f 51 c0          	sqrtss xmm0,xmm0
    2300:	0f 2e c0             	ucomiss xmm0,xmm0
    2303:	7b 10                	jnp    2315 <_ZN9simulator12centralSpeedEv+0x85>
    2305:	f3 0f 59 db          	mulss  xmm3,xmm3
    2309:	f3 0f 58 d9          	addss  xmm3,xmm1
    230d:	0f 28 c3             	movaps xmm0,xmm3
    2310:	e8 00 00 00 00       	call   2315 <_ZN9simulator12centralSpeedEv+0x85>
    2315:	f3 0f 10 2d 00 00 00 	movss  xmm5,DWORD PTR [rip+0x0]        # 231d <_ZN9simulator12centralSpeedEv+0x8d>
    231c:	00 
    231d:	0f 2e e8             	ucomiss xmm5,xmm0
    2320:	0f 86 86 00 00 00    	jbe    23ac <_ZN9simulator12centralSpeedEv+0x11c>
    2326:	f3 0f 10 25 00 00 00 	movss  xmm4,DWORD PTR [rip+0x0]        # 232e <_ZN9simulator12centralSpeedEv+0x9e>
    232d:	00 
    232e:	f3 0f 5e e0          	divss  xmm4,xmm0
    2332:	f3 0f 11 64 24 08    	movss  DWORD PTR [rsp+0x8],xmm4
    2338:	0f 2e 25 00 00 00 00 	ucomiss xmm4,DWORD PTR [rip+0x0]        # 233f <_ZN9simulator12centralSpeedEv+0xaf>
    233f:	0f 87 83 00 00 00    	ja     23c8 <_ZN9simulator12centralSpeedEv+0x138>
    2345:	0f 28 c4             	movaps xmm0,xmm4
    2348:	89 da                	mov    edx,ebx
    234a:	44 89 e6             	mov    esi,r12d
    234d:	4c 89 ef             	mov    rdi,r13
    2350:	e8 00 00 00 00       	call   2355 <_ZN9simulator12centralSpeedEv+0xc5>
    2355:	f3 0f 10 64 24 08    	movss  xmm4,DWORD PTR [rsp+0x8]
    235b:	0f 2e 25 00 00 00 00 	ucomiss xmm4,DWORD PTR [rip+0x0]        # 2362 <_ZN9simulator12centralSpeedEv+0xd2>
    2362:	0f 87 98 00 00 00    	ja     2400 <_ZN9simulator12centralSpeedEv+0x170>
    2368:	48 8d bd e0 00 00 00 	lea    rdi,[rbp+0xe0]
    236f:	0f 28 c4             	movaps xmm0,xmm4
    2372:	89 da                	mov    edx,ebx
    2374:	44 89 e6             	mov    esi,r12d
    2377:	e8 00 00 00 00       	call   237c <_ZN9simulator12centralSpeedEv+0xec>
    237c:	f3 0f 10 64 24 08    	movss  xmm4,DWORD PTR [rsp+0x8]
    2382:	0f 2e 25 00 00 00 00 	ucomiss xmm4,DWORD PTR [rip+0x0]        # 2389 <_ZN9simulator12centralSpeedEv+0xf9>
    2389:	76 0a                	jbe    2395 <_ZN9simulator12centralSpeedEv+0x105>
    238b:	f3 0f 10 05 00 00 00 	movss  xmm0,DWORD PTR [rip+0x0]        # 2393 <_ZN9simulator12centralSpeedEv+0x103>
    2392:	00 
    2393:	eb 06                	jmp    239b <_ZN9simulator12centralSpeedEv+0x10b>
    2395:	f3 0f 10 44 24 08    	movss  xmm0,DWORD PTR [rsp+0x8]
    239b:	48 8d bd b0 00 00 00 	lea    rdi,[rbp+0xb0]
    23a2:	89 da                	mov    edx,ebx
    23a4:	44 89 e6             	mov    esi,r12d
    23a7:	e8 00 00 00 00       	call   23ac <_ZN9simulator12centralSpeedEv+0x11c>
    23ac:	83 c3 01             	add    ebx,0x1
    23af:	39 5d 28             	cmp    DWORD PTR [rbp+0x28],ebx
    23b2:	0f 8f 1a ff ff ff    	jg     22d2 <_ZN9simulator12centralSpeedEv+0x42>
    23b8:	41 83 c4 01          	add    r12d,0x1
    23bc:	44 39 65 24          	cmp    DWORD PTR [rbp+0x24],r12d
    23c0:	0f 8f ee fe ff ff    	jg     22b4 <_ZN9simulator12centralSpeedEv+0x24>
    23c6:	eb 5e                	jmp    2426 <_ZN9simulator12centralSpeedEv+0x196>
    23c8:	f3 0f 10 05 00 00 00 	movss  xmm0,DWORD PTR [rip+0x0]        # 23d0 <_ZN9simulator12centralSpeedEv+0x140>
    23cf:	00 
    23d0:	89 da                	mov    edx,ebx
    23d2:	44 89 e6             	mov    esi,r12d
    23d5:	4c 89 ef             	mov    rdi,r13
    23d8:	e8 00 00 00 00       	call   23dd <_ZN9simulator12centralSpeedEv+0x14d>
    23dd:	48 8d bd e0 00 00 00 	lea    rdi,[rbp+0xe0]
    23e4:	f3 0f 10 05 00 00 00 	movss  xmm0,DWORD PTR [rip+0x0]        # 23ec <_ZN9simulator12centralSpeedEv+0x15c>
    23eb:	00 
    23ec:	89 da                	mov    edx,ebx
    23ee:	44 89 e6             	mov    esi,r12d
    23f1:	e8 00 00 00 00       	call   23f6 <_ZN9simulator12centralSpeedEv+0x166>
    23f6:	f3 0f 10 05 00 00 00 	movss  xmm0,DWORD PTR [rip+0x0]        # 23fe <_ZN9simulator12centralSpeedEv+0x16e>
    23fd:	00 
    23fe:	eb 9b                	jmp    239b <_ZN9simulator12centralSpeedEv+0x10b>
    2400:	48 8d bd e0 00 00 00 	lea    rdi,[rbp+0xe0]
    2407:	f3 0f 10 05 00 00 00 	movss  xmm0,DWORD PTR [rip+0x0]        # 240f <_ZN9simulator12centralSpeedEv+0x17f>
    240e:	00 
    240f:	89 da                	mov    edx,ebx
    2411:	44 89 e6             	mov    esi,r12d
    2414:	e8 00 00 00 00       	call   2419 <_ZN9simulator12centralSpeedEv+0x189>
    2419:	f3 0f 10 05 00 00 00 	movss  xmm0,DWORD PTR [rip+0x0]        # 2421 <_ZN9simulator12centralSpeedEv+0x191>
    2420:	00 
    2421:	e9 75 ff ff ff       	jmp    239b <_ZN9simulator12centralSpeedEv+0x10b>
    2426:	48 83 c4 18          	add    rsp,0x18
    242a:	5b                   	pop    rbx
    242b:	5d                   	pop    rbp
    242c:	41 5c                	pop    r12
    242e:	41 5d                	pop    r13
    2430:	f3 c3                	repz ret 

0000000000002432 <_Z8distanceR4mat2S0_>:
    2432:	41 55                	push   r13
    2434:	41 54                	push   r12
    2436:	55                   	push   rbp
    2437:	53                   	push   rbx
    2438:	48 83 ec 18          	sub    rsp,0x18
    243c:	66 0f ef ff          	pxor   xmm7,xmm7
    2440:	f3 0f 2a 7f 08       	cvtsi2ss xmm7,DWORD PTR [rdi+0x8]
    2445:	f3 0f 11 7c 24 0c    	movss  DWORD PTR [rsp+0xc],xmm7
    244b:	0f 2e 3d 00 00 00 00 	ucomiss xmm7,DWORD PTR [rip+0x0]        # 2452 <_Z8distanceR4mat2S0_+0x20>
    2452:	0f 86 ab 00 00 00    	jbe    2503 <_Z8distanceR4mat2S0_+0xd1>
    2458:	49 89 fc             	mov    r12,rdi
    245b:	49 89 f5             	mov    r13,rsi
    245e:	66 0f ef ff          	pxor   xmm7,xmm7
    2462:	f3 0f 2a 7f 0c       	cvtsi2ss xmm7,DWORD PTR [rdi+0xc]
    2467:	f3 0f 11 7c 24 08    	movss  DWORD PTR [rsp+0x8],xmm7
    246d:	bd 00 00 00 00       	mov    ebp,0x0
    2472:	66 0f ef ff          	pxor   xmm7,xmm7
    2476:	f3 0f 11 3c 24       	movss  DWORD PTR [rsp],xmm7
    247b:	bb 00 00 00 00       	mov    ebx,0x0
    2480:	f3 0f 10 74 24 08    	movss  xmm6,DWORD PTR [rsp+0x8]
    2486:	66 0f ef ff          	pxor   xmm7,xmm7
    248a:	0f 2e f7             	ucomiss xmm6,xmm7
    248d:	76 58                	jbe    24e7 <_Z8distanceR4mat2S0_+0xb5>
    248f:	89 da                	mov    edx,ebx
    2491:	89 ee                	mov    esi,ebp
    2493:	4c 89 ef             	mov    rdi,r13
    2496:	e8 00 00 00 00       	call   249b <_Z8distanceR4mat2S0_+0x69>
    249b:	f3 0f 11 44 24 04    	movss  DWORD PTR [rsp+0x4],xmm0
    24a1:	89 da                	mov    edx,ebx
    24a3:	89 ee                	mov    esi,ebp
    24a5:	4c 89 e7             	mov    rdi,r12
    24a8:	e8 00 00 00 00       	call   24ad <_Z8distanceR4mat2S0_+0x7b>
    24ad:	f3 0f 10 54 24 04    	movss  xmm2,DWORD PTR [rsp+0x4]
    24b3:	f3 0f 5c d0          	subss  xmm2,xmm0
    24b7:	f3 0f 5a c2          	cvtss2sd xmm0,xmm2
    24bb:	f2 0f 59 c0          	mulsd  xmm0,xmm0
    24bf:	f3 0f 5a 0c 24       	cvtss2sd xmm1,DWORD PTR [rsp]
    24c4:	f2 0f 58 c1          	addsd  xmm0,xmm1
    24c8:	f2 0f 5a e0          	cvtsd2ss xmm4,xmm0
    24cc:	f3 0f 11 24 24       	movss  DWORD PTR [rsp],xmm4
    24d1:	83 c3 01             	add    ebx,0x1
    24d4:	66 0f ef c0          	pxor   xmm0,xmm0
    24d8:	f3 0f 2a c3          	cvtsi2ss xmm0,ebx
    24dc:	f3 0f 10 6c 24 08    	movss  xmm5,DWORD PTR [rsp+0x8]
    24e2:	0f 2e e8             	ucomiss xmm5,xmm0
    24e5:	77 a8                	ja     248f <_Z8distanceR4mat2S0_+0x5d>
    24e7:	83 c5 01             	add    ebp,0x1
    24ea:	66 0f ef c0          	pxor   xmm0,xmm0
    24ee:	f3 0f 2a c5          	cvtsi2ss xmm0,ebp
    24f2:	f3 0f 10 74 24 0c    	movss  xmm6,DWORD PTR [rsp+0xc]
    24f8:	0f 2e f0             	ucomiss xmm6,xmm0
    24fb:	0f 87 7a ff ff ff    	ja     247b <_Z8distanceR4mat2S0_+0x49>
    2501:	eb 09                	jmp    250c <_Z8distanceR4mat2S0_+0xda>
    2503:	66 0f ef ff          	pxor   xmm7,xmm7
    2507:	f3 0f 11 3c 24       	movss  DWORD PTR [rsp],xmm7
    250c:	f3 0f 51 04 24       	sqrtss xmm0,DWORD PTR [rsp]
    2511:	0f 2e c0             	ucomiss xmm0,xmm0
    2514:	7b 0a                	jnp    2520 <_Z8distanceR4mat2S0_+0xee>
    2516:	f3 0f 10 04 24       	movss  xmm0,DWORD PTR [rsp]
    251b:	e8 00 00 00 00       	call   2520 <_Z8distanceR4mat2S0_+0xee>
    2520:	48 83 c4 18          	add    rsp,0x18
    2524:	5b                   	pop    rbx
    2525:	5d                   	pop    rbp
    2526:	41 5c                	pop    r12
    2528:	41 5d                	pop    r13
    252a:	c3                   	ret    
    252b:	90                   	nop

000000000000252c <_ZN9simulator14readParametersENSt7__cxx1112basic_stringIcSt11char_traitsIcESaIcEEE>:
    252c:	55                   	push   rbp
    252d:	48 89 e5             	mov    rbp,rsp
    2530:	41 56                	push   r14
    2532:	41 54                	push   r12
    2534:	53                   	push   rbx
    2535:	48 81 ec a0 04 00 00 	sub    rsp,0x4a0
    253c:	48 89 fb             	mov    rbx,rdi
    253f:	49 89 f4             	mov    r12,rsi
    2542:	64 48 8b 04 25 28 00 	mov    rax,QWORD PTR fs:0x28
    2549:	00 00 
    254b:	48 89 45 d8          	mov    QWORD PTR [rbp-0x28],rax
    254f:	31 c0                	xor    eax,eax
    2551:	48 8d 85 70 fb ff ff 	lea    rax,[rbp-0x490]
    2558:	48 83 c0 10          	add    rax,0x10
    255c:	48 89 85 70 fb ff ff 	mov    QWORD PTR [rbp-0x490],rax
    2563:	6a 00                	push   0x0
    2565:	ba 00 00 00 00       	mov    edx,0x0
    256a:	be 00 00 00 00       	mov    esi,0x0
    256f:	48 8d bd 70 fb ff ff 	lea    rdi,[rbp-0x490]
    2576:	e8 00 00 00 00       	call   257b <_ZN9simulator14readParametersENSt7__cxx1112basic_stringIcSt11char_traitsIcESaIcEEE+0x4f>
    257b:	48 8d 85 50 fb ff ff 	lea    rax,[rbp-0x4b0]
    2582:	48 83 c0 10          	add    rax,0x10
    2586:	48 89 85 50 fb ff ff 	mov    QWORD PTR [rbp-0x4b0],rax
    258d:	49 8b 34 24          	mov    rsi,QWORD PTR [r12]
    2591:	48 89 f2             	mov    rdx,rsi
    2594:	49 03 54 24 08       	add    rdx,QWORD PTR [r12+0x8]
    2599:	c6 04 24 00          	mov    BYTE PTR [rsp],0x0
    259d:	48 8d bd 50 fb ff ff 	lea    rdi,[rbp-0x4b0]
    25a4:	e8 00 00 00 00       	call   25a9 <_ZN9simulator14readParametersENSt7__cxx1112basic_stringIcSt11char_traitsIcESaIcEEE+0x7d>
    25a9:	48 83 c4 10          	add    rsp,0x10
    25ad:	48 8d 95 70 fb ff ff 	lea    rdx,[rbp-0x490]
    25b4:	48 8d b5 50 fb ff ff 	lea    rsi,[rbp-0x4b0]
    25bb:	48 8d bd 90 fb ff ff 	lea    rdi,[rbp-0x470]
    25c2:	e8 00 00 00 00       	call   25c7 <_ZN9simulator14readParametersENSt7__cxx1112basic_stringIcSt11char_traitsIcESaIcEEE+0x9b>
    25c7:	48 8b bd 50 fb ff ff 	mov    rdi,QWORD PTR [rbp-0x4b0]
    25ce:	48 8d 85 60 fb ff ff 	lea    rax,[rbp-0x4a0]
    25d5:	48 39 c7             	cmp    rdi,rax
    25d8:	74 05                	je     25df <_ZN9simulator14readParametersENSt7__cxx1112basic_stringIcSt11char_traitsIcESaIcEEE+0xb3>
    25da:	e8 00 00 00 00       	call   25df <_ZN9simulator14readParametersENSt7__cxx1112basic_stringIcSt11char_traitsIcESaIcEEE+0xb3>
    25df:	48 8b bd 70 fb ff ff 	mov    rdi,QWORD PTR [rbp-0x490]
    25e6:	48 8d 85 80 fb ff ff 	lea    rax,[rbp-0x480]
    25ed:	48 39 c7             	cmp    rdi,rax
    25f0:	74 05                	je     25f7 <_ZN9simulator14readParametersENSt7__cxx1112basic_stringIcSt11char_traitsIcESaIcEEE+0xcb>
    25f2:	e8 00 00 00 00       	call   25f7 <_ZN9simulator14readParametersENSt7__cxx1112basic_stringIcSt11char_traitsIcESaIcEEE+0xcb>
    25f7:	48 8d 85 80 fb ff ff 	lea    rax,[rbp-0x480]
    25fe:	48 89 85 70 fb ff ff 	mov    QWORD PTR [rbp-0x490],rax
    2605:	48 c7 85 78 fb ff ff 	mov    QWORD PTR [rbp-0x488],0x0
    260c:	00 00 00 00 
    2610:	c6 85 80 fb ff ff 00 	mov    BYTE PTR [rbp-0x480],0x0
    2617:	48 8d 43 04          	lea    rax,[rbx+0x4]
    261b:	49 89 c6             	mov    r14,rax
    261e:	4c 8d 63 08          	lea    r12,[rbx+0x8]
    2622:	48 8d b5 70 fb ff ff 	lea    rsi,[rbp-0x490]
    2629:	48 8d bd 90 fb ff ff 	lea    rdi,[rbp-0x470]
    2630:	e8 00 00 00 00       	call   2635 <_ZN9simulator14readParametersENSt7__cxx1112basic_stringIcSt11char_traitsIcESaIcEEE+0x109>
    2635:	84 c0                	test   al,al
    2637:	0f 84 cb 01 00 00    	je     2808 <_ZN9simulator14readParametersENSt7__cxx1112basic_stringIcSt11char_traitsIcESaIcEEE+0x2dc>
    263d:	be 00 00 00 00       	mov    esi,0x0
    2642:	48 8d bd 70 fb ff ff 	lea    rdi,[rbp-0x490]
    2649:	e8 00 00 00 00       	call   264e <_ZN9simulator14readParametersENSt7__cxx1112basic_stringIcSt11char_traitsIcESaIcEEE+0x122>
    264e:	85 c0                	test   eax,eax
    2650:	75 0f                	jne    2661 <_ZN9simulator14readParametersENSt7__cxx1112basic_stringIcSt11char_traitsIcESaIcEEE+0x135>
    2652:	48 89 de             	mov    rsi,rbx
    2655:	48 8d bd 90 fb ff ff 	lea    rdi,[rbp-0x470]
    265c:	e8 00 00 00 00       	call   2661 <_ZN9simulator14readParametersENSt7__cxx1112basic_stringIcSt11char_traitsIcESaIcEEE+0x135>
    2661:	be 00 00 00 00       	mov    esi,0x0
    2666:	48 8d bd 70 fb ff ff 	lea    rdi,[rbp-0x490]
    266d:	e8 00 00 00 00       	call   2672 <_ZN9simulator14readParametersENSt7__cxx1112basic_stringIcSt11char_traitsIcESaIcEEE+0x146>
    2672:	85 c0                	test   eax,eax
    2674:	75 0f                	jne    2685 <_ZN9simulator14readParametersENSt7__cxx1112basic_stringIcSt11char_traitsIcESaIcEEE+0x159>
    2676:	4c 89 f6             	mov    rsi,r14
    2679:	48 8d bd 90 fb ff ff 	lea    rdi,[rbp-0x470]
    2680:	e8 00 00 00 00       	call   2685 <_ZN9simulator14readParametersENSt7__cxx1112basic_stringIcSt11char_traitsIcESaIcEEE+0x159>
    2685:	be 00 00 00 00       	mov    esi,0x0
    268a:	48 8d bd 70 fb ff ff 	lea    rdi,[rbp-0x490]
    2691:	e8 00 00 00 00       	call   2696 <_ZN9simulator14readParametersENSt7__cxx1112basic_stringIcSt11char_traitsIcESaIcEEE+0x16a>
    2696:	85 c0                	test   eax,eax
    2698:	75 0f                	jne    26a9 <_ZN9simulator14readParametersENSt7__cxx1112basic_stringIcSt11char_traitsIcESaIcEEE+0x17d>
    269a:	4c 89 e6             	mov    rsi,r12
    269d:	48 8d bd 90 fb ff ff 	lea    rdi,[rbp-0x470]
    26a4:	e8 00 00 00 00       	call   26a9 <_ZN9simulator14readParametersENSt7__cxx1112basic_stringIcSt11char_traitsIcESaIcEEE+0x17d>
    26a9:	be 00 00 00 00       	mov    esi,0x0
    26ae:	48 8d bd 70 fb ff ff 	lea    rdi,[rbp-0x490]
    26b5:	e8 00 00 00 00       	call   26ba <_ZN9simulator14readParametersENSt7__cxx1112basic_stringIcSt11char_traitsIcESaIcEEE+0x18e>
    26ba:	85 c0                	test   eax,eax
    26bc:	75 10                	jne    26ce <_ZN9simulator14readParametersENSt7__cxx1112basic_stringIcSt11char_traitsIcESaIcEEE+0x1a2>
    26be:	48 8d 73 0c          	lea    rsi,[rbx+0xc]
    26c2:	48 8d bd 90 fb ff ff 	lea    rdi,[rbp-0x470]
    26c9:	e8 00 00 00 00       	call   26ce <_ZN9simulator14readParametersENSt7__cxx1112basic_stringIcSt11char_traitsIcESaIcEEE+0x1a2>
    26ce:	be 00 00 00 00       	mov    esi,0x0
    26d3:	48 8d bd 70 fb ff ff 	lea    rdi,[rbp-0x490]
    26da:	e8 00 00 00 00       	call   26df <_ZN9simulator14readParametersENSt7__cxx1112basic_stringIcSt11char_traitsIcESaIcEEE+0x1b3>
    26df:	85 c0                	test   eax,eax
    26e1:	75 10                	jne    26f3 <_ZN9simulator14readParametersENSt7__cxx1112basic_stringIcSt11char_traitsIcESaIcEEE+0x1c7>
    26e3:	48 8d 73 10          	lea    rsi,[rbx+0x10]
    26e7:	48 8d bd 90 fb ff ff 	lea    rdi,[rbp-0x470]
    26ee:	e8 00 00 00 00       	call   26f3 <_ZN9simulator14readParametersENSt7__cxx1112basic_stringIcSt11char_traitsIcESaIcEEE+0x1c7>
    26f3:	be 00 00 00 00       	mov    esi,0x0
    26f8:	48 8d bd 70 fb ff ff 	lea    rdi,[rbp-0x490]
    26ff:	e8 00 00 00 00       	call   2704 <_ZN9simulator14readParametersENSt7__cxx1112basic_stringIcSt11char_traitsIcESaIcEEE+0x1d8>
    2704:	85 c0                	test   eax,eax
    2706:	75 10                	jne    2718 <_ZN9simulator14readParametersENSt7__cxx1112basic_stringIcSt11char_traitsIcESaIcEEE+0x1ec>
    2708:	48 8d 73 14          	lea    rsi,[rbx+0x14]
    270c:	48 8d bd 90 fb ff ff 	lea    rdi,[rbp-0x470]
    2713:	e8 00 00 00 00       	call   2718 <_ZN9simulator14readParametersENSt7__cxx1112basic_stringIcSt11char_traitsIcESaIcEEE+0x1ec>
    2718:	be 00 00 00 00       	mov    esi,0x0
    271d:	48 8d bd 70 fb ff ff 	lea    rdi,[rbp-0x490]
    2724:	e8 00 00 00 00       	call   2729 <_ZN9simulator14readParametersENSt7__cxx1112basic_stringIcSt11char_traitsIcESaIcEEE+0x1fd>
    2729:	85 c0                	test   eax,eax
    272b:	75 10                	jne    273d <_ZN9simulator14readParametersENSt7__cxx1112basic_stringIcSt11char_traitsIcESaIcEEE+0x211>
    272d:	48 8d 73 18          	lea    rsi,[rbx+0x18]
    2731:	48 8d bd 90 fb ff ff 	lea    rdi,[rbp-0x470]
    2738:	e8 00 00 00 00       	call   273d <_ZN9simulator14readParametersENSt7__cxx1112basic_stringIcSt11char_traitsIcESaIcEEE+0x211>
    273d:	be 00 00 00 00       	mov    esi,0x0
    2742:	48 8d bd 70 fb ff ff 	lea    rdi,[rbp-0x490]
    2749:	e8 00 00 00 00       	call   274e <_ZN9simulator14readParametersENSt7__cxx1112basic_stringIcSt11char_traitsIcESaIcEEE+0x222>
    274e:	85 c0                	test   eax,eax
    2750:	75 10                	jne    2762 <_ZN9simulator14readParametersENSt7__cxx1112basic_stringIcSt11char_traitsIcESaIcEEE+0x236>
    2752:	48 8d 73 1c          	lea    rsi,[rbx+0x1c]
    2756:	48 8d bd 90 fb ff ff 	lea    rdi,[rbp-0x470]
    275d:	e8 00 00 00 00       	call   2762 <_ZN9simulator14readParametersENSt7__cxx1112basic_stringIcSt11char_traitsIcESaIcEEE+0x236>
    2762:	be 00 00 00 00       	mov    esi,0x0
    2767:	48 8d bd 70 fb ff ff 	lea    rdi,[rbp-0x490]
    276e:	e8 00 00 00 00       	call   2773 <_ZN9simulator14readParametersENSt7__cxx1112basic_stringIcSt11char_traitsIcESaIcEEE+0x247>
    2773:	85 c0                	test   eax,eax
    2775:	75 10                	jne    2787 <_ZN9simulator14readParametersENSt7__cxx1112basic_stringIcSt11char_traitsIcESaIcEEE+0x25b>
    2777:	48 8d 73 3c          	lea    rsi,[rbx+0x3c]
    277b:	48 8d bd 90 fb ff ff 	lea    rdi,[rbp-0x470]
    2782:	e8 00 00 00 00       	call   2787 <_ZN9simulator14readParametersENSt7__cxx1112basic_stringIcSt11char_traitsIcESaIcEEE+0x25b>
    2787:	be 00 00 00 00       	mov    esi,0x0
    278c:	48 8d bd 70 fb ff ff 	lea    rdi,[rbp-0x490]
    2793:	e8 00 00 00 00       	call   2798 <_ZN9simulator14readParametersENSt7__cxx1112basic_stringIcSt11char_traitsIcESaIcEEE+0x26c>
    2798:	85 c0                	test   eax,eax
    279a:	75 13                	jne    27af <_ZN9simulator14readParametersENSt7__cxx1112basic_stringIcSt11char_traitsIcESaIcEEE+0x283>
    279c:	48 8d b3 a0 00 00 00 	lea    rsi,[rbx+0xa0]
    27a3:	48 8d bd 90 fb ff ff 	lea    rdi,[rbp-0x470]
    27aa:	e8 00 00 00 00       	call   27af <_ZN9simulator14readParametersENSt7__cxx1112basic_stringIcSt11char_traitsIcESaIcEEE+0x283>
    27af:	be 00 00 00 00       	mov    esi,0x0
    27b4:	48 8d bd 70 fb ff ff 	lea    rdi,[rbp-0x490]
    27bb:	e8 00 00 00 00       	call   27c0 <_ZN9simulator14readParametersENSt7__cxx1112basic_stringIcSt11char_traitsIcESaIcEEE+0x294>
    27c0:	85 c0                	test   eax,eax
    27c2:	75 13                	jne    27d7 <_ZN9simulator14readParametersENSt7__cxx1112basic_stringIcSt11char_traitsIcESaIcEEE+0x2ab>
    27c4:	48 8d b3 a4 00 00 00 	lea    rsi,[rbx+0xa4]
    27cb:	48 8d bd 90 fb ff ff 	lea    rdi,[rbp-0x470]
    27d2:	e8 00 00 00 00       	call   27d7 <_ZN9simulator14readParametersENSt7__cxx1112basic_stringIcSt11char_traitsIcESaIcEEE+0x2ab>
    27d7:	be 00 00 00 00       	mov    esi,0x0
    27dc:	48 8d bd 70 fb ff ff 	lea    rdi,[rbp-0x490]
    27e3:	e8 00 00 00 00       	call   27e8 <_ZN9simulator14readParametersENSt7__cxx1112basic_stringIcSt11char_traitsIcESaIcEEE+0x2bc>
    27e8:	85 c0                	test   eax,eax
    27ea:	0f 85 32 fe ff ff    	jne    2622 <_ZN9simulator14readParametersENSt7__cxx1112basic_stringIcSt11char_traitsIcESaIcEEE+0xf6>
    27f0:	48 8d b3 ac 00 00 00 	lea    rsi,[rbx+0xac]
    27f7:	48 8d bd 90 fb ff ff 	lea    rdi,[rbp-0x470]
    27fe:	e8 00 00 00 00       	call   2803 <_ZN9simulator14readParametersENSt7__cxx1112basic_stringIcSt11char_traitsIcESaIcEEE+0x2d7>
    2803:	e9 1a fe ff ff       	jmp    2622 <_ZN9simulator14readParametersENSt7__cxx1112basic_stringIcSt11char_traitsIcESaIcEEE+0xf6>
    2808:	48 8d bd 90 fb ff ff 	lea    rdi,[rbp-0x470]
    280f:	e8 00 00 00 00       	call   2814 <_ZN9simulator14readParametersENSt7__cxx1112basic_stringIcSt11char_traitsIcESaIcEEE+0x2e8>
    2814:	48 8b bd 70 fb ff ff 	mov    rdi,QWORD PTR [rbp-0x490]
    281b:	48 8d 85 80 fb ff ff 	lea    rax,[rbp-0x480]
    2822:	48 39 c7             	cmp    rdi,rax
    2825:	74 05                	je     282c <_ZN9simulator14readParametersENSt7__cxx1112basic_stringIcSt11char_traitsIcESaIcEEE+0x300>
    2827:	e8 00 00 00 00       	call   282c <_ZN9simulator14readParametersENSt7__cxx1112basic_stringIcSt11char_traitsIcESaIcEEE+0x300>
    282c:	48 8d bd 90 fb ff ff 	lea    rdi,[rbp-0x470]
    2833:	e8 00 00 00 00       	call   2838 <_ZN9simulator14readParametersENSt7__cxx1112basic_stringIcSt11char_traitsIcESaIcEEE+0x30c>
    2838:	48 8b 45 d8          	mov    rax,QWORD PTR [rbp-0x28]
    283c:	64 48 33 04 25 28 00 	xor    rax,QWORD PTR fs:0x28
    2843:	00 00 
    2845:	74 76                	je     28bd <_ZN9simulator14readParametersENSt7__cxx1112basic_stringIcSt11char_traitsIcESaIcEEE+0x391>
    2847:	eb 6f                	jmp    28b8 <_ZN9simulator14readParametersENSt7__cxx1112basic_stringIcSt11char_traitsIcESaIcEEE+0x38c>
    2849:	48 89 c3             	mov    rbx,rax
    284c:	48 8b bd 50 fb ff ff 	mov    rdi,QWORD PTR [rbp-0x4b0]
    2853:	48 8d 85 60 fb ff ff 	lea    rax,[rbp-0x4a0]
    285a:	48 39 c7             	cmp    rdi,rax
    285d:	74 0a                	je     2869 <_ZN9simulator14readParametersENSt7__cxx1112basic_stringIcSt11char_traitsIcESaIcEEE+0x33d>
    285f:	e8 00 00 00 00       	call   2864 <_ZN9simulator14readParametersENSt7__cxx1112basic_stringIcSt11char_traitsIcESaIcEEE+0x338>
    2864:	eb 03                	jmp    2869 <_ZN9simulator14readParametersENSt7__cxx1112basic_stringIcSt11char_traitsIcESaIcEEE+0x33d>
    2866:	48 89 c3             	mov    rbx,rax
    2869:	48 8b bd 70 fb ff ff 	mov    rdi,QWORD PTR [rbp-0x490]
    2870:	48 8d 85 80 fb ff ff 	lea    rax,[rbp-0x480]
    2877:	48 39 c7             	cmp    rdi,rax
    287a:	74 05                	je     2881 <_ZN9simulator14readParametersENSt7__cxx1112basic_stringIcSt11char_traitsIcESaIcEEE+0x355>
    287c:	e8 00 00 00 00       	call   2881 <_ZN9simulator14readParametersENSt7__cxx1112basic_stringIcSt11char_traitsIcESaIcEEE+0x355>
    2881:	48 89 df             	mov    rdi,rbx
    2884:	e8 00 00 00 00       	call   2889 <_ZN9simulator14readParametersENSt7__cxx1112basic_stringIcSt11char_traitsIcESaIcEEE+0x35d>
    2889:	48 89 c3             	mov    rbx,rax
    288c:	48 8b bd 70 fb ff ff 	mov    rdi,QWORD PTR [rbp-0x490]
    2893:	48 8d 85 80 fb ff ff 	lea    rax,[rbp-0x480]
    289a:	48 39 c7             	cmp    rdi,rax
    289d:	74 05                	je     28a4 <_ZN9simulator14readParametersENSt7__cxx1112basic_stringIcSt11char_traitsIcESaIcEEE+0x378>
    289f:	e8 00 00 00 00       	call   28a4 <_ZN9simulator14readParametersENSt7__cxx1112basic_stringIcSt11char_traitsIcESaIcEEE+0x378>
    28a4:	48 8d bd 90 fb ff ff 	lea    rdi,[rbp-0x470]
    28ab:	e8 00 00 00 00       	call   28b0 <_ZN9simulator14readParametersENSt7__cxx1112basic_stringIcSt11char_traitsIcESaIcEEE+0x384>
    28b0:	48 89 df             	mov    rdi,rbx
    28b3:	e8 00 00 00 00       	call   28b8 <_ZN9simulator14readParametersENSt7__cxx1112basic_stringIcSt11char_traitsIcESaIcEEE+0x38c>
    28b8:	e8 00 00 00 00       	call   28bd <_ZN9simulator14readParametersENSt7__cxx1112basic_stringIcSt11char_traitsIcESaIcEEE+0x391>
    28bd:	48 8d 65 e8          	lea    rsp,[rbp-0x18]
    28c1:	5b                   	pop    rbx
    28c2:	41 5c                	pop    r12
    28c4:	41 5e                	pop    r14
    28c6:	5d                   	pop    rbp
    28c7:	c3                   	ret    

00000000000028c8 <_ZN9simulatorC1Ev>:
    28c8:	55                   	push   rbp
    28c9:	48 89 e5             	mov    rbp,rsp
    28cc:	41 57                	push   r15
    28ce:	41 56                	push   r14
    28d0:	41 55                	push   r13
    28d2:	41 54                	push   r12
    28d4:	53                   	push   rbx
    28d5:	48 83 c4 80          	add    rsp,0xffffffffffffff80
    28d9:	48 89 fb             	mov    rbx,rdi
    28dc:	64 48 8b 04 25 28 00 	mov    rax,QWORD PTR fs:0x28
    28e3:	00 00 
    28e5:	48 89 45 c8          	mov    QWORD PTR [rbp-0x38],rax
    28e9:	31 c0                	xor    eax,eax
    28eb:	c7 47 40 db 0f 49 40 	mov    DWORD PTR [rdi+0x40],0x40490fdb
    28f2:	48 8d 87 b0 00 00 00 	lea    rax,[rdi+0xb0]
    28f9:	48 89 45 98          	mov    QWORD PTR [rbp-0x68],rax
    28fd:	c7 87 b8 00 00 00 00 	mov    DWORD PTR [rdi+0xb8],0x0
    2904:	00 00 00 
    2907:	c7 87 bc 00 00 00 00 	mov    DWORD PTR [rdi+0xbc],0x0
    290e:	00 00 00 
    2911:	48 c7 87 b0 00 00 00 	mov    QWORD PTR [rdi+0xb0],0x0
    2918:	00 00 00 00 
    291c:	48 8d 87 c0 00 00 00 	lea    rax,[rdi+0xc0]
    2923:	48 89 45 90          	mov    QWORD PTR [rbp-0x70],rax
    2927:	c7 87 c8 00 00 00 00 	mov    DWORD PTR [rdi+0xc8],0x0
    292e:	00 00 00 
    2931:	c7 87 cc 00 00 00 00 	mov    DWORD PTR [rdi+0xcc],0x0
    2938:	00 00 00 
    293b:	48 c7 87 c0 00 00 00 	mov    QWORD PTR [rdi+0xc0],0x0
    2942:	00 00 00 00 
    2946:	48 8d 87 d0 00 00 00 	lea    rax,[rdi+0xd0]
    294d:	48 89 45 88          	mov    QWORD PTR [rbp-0x78],rax
    2951:	c7 87 d8 00 00 00 00 	mov    DWORD PTR [rdi+0xd8],0x0
    2958:	00 00 00 
    295b:	c7 87 dc 00 00 00 00 	mov    DWORD PTR [rdi+0xdc],0x0
    2962:	00 00 00 
    2965:	48 c7 87 d0 00 00 00 	mov    QWORD PTR [rdi+0xd0],0x0
    296c:	00 00 00 00 
    2970:	48 8d 87 e0 00 00 00 	lea    rax,[rdi+0xe0]
    2977:	48 89 45 80          	mov    QWORD PTR [rbp-0x80],rax
    297b:	c7 87 e8 00 00 00 00 	mov    DWORD PTR [rdi+0xe8],0x0
    2982:	00 00 00 
    2985:	c7 87 ec 00 00 00 00 	mov    DWORD PTR [rdi+0xec],0x0
    298c:	00 00 00 
    298f:	48 c7 87 e0 00 00 00 	mov    QWORD PTR [rdi+0xe0],0x0
    2996:	00 00 00 00 
    299a:	48 8d 87 f0 00 00 00 	lea    rax,[rdi+0xf0]
    29a1:	48 89 85 78 ff ff ff 	mov    QWORD PTR [rbp-0x88],rax
    29a8:	c7 87 f8 00 00 00 00 	mov    DWORD PTR [rdi+0xf8],0x0
    29af:	00 00 00 
    29b2:	c7 87 fc 00 00 00 00 	mov    DWORD PTR [rdi+0xfc],0x0
    29b9:	00 00 00 
    29bc:	48 c7 87 f0 00 00 00 	mov    QWORD PTR [rdi+0xf0],0x0
    29c3:	00 00 00 00 
    29c7:	48 8d 87 00 01 00 00 	lea    rax,[rdi+0x100]
    29ce:	48 89 85 70 ff ff ff 	mov    QWORD PTR [rbp-0x90],rax
    29d5:	c7 87 08 01 00 00 00 	mov    DWORD PTR [rdi+0x108],0x0
    29dc:	00 00 00 
    29df:	c7 87 0c 01 00 00 00 	mov    DWORD PTR [rdi+0x10c],0x0
    29e6:	00 00 00 
    29e9:	48 c7 87 00 01 00 00 	mov    QWORD PTR [rdi+0x100],0x0
    29f0:	00 00 00 00 
    29f4:	4c 8d af 10 01 00 00 	lea    r13,[rdi+0x110]
    29fb:	c7 87 18 01 00 00 00 	mov    DWORD PTR [rdi+0x118],0x0
    2a02:	00 00 00 
    2a05:	c7 87 1c 01 00 00 00 	mov    DWORD PTR [rdi+0x11c],0x0
    2a0c:	00 00 00 
    2a0f:	48 c7 87 10 01 00 00 	mov    QWORD PTR [rdi+0x110],0x0
    2a16:	00 00 00 00 
    2a1a:	4c 8d b7 20 01 00 00 	lea    r14,[rdi+0x120]
    2a21:	c7 87 28 01 00 00 00 	mov    DWORD PTR [rdi+0x128],0x0
    2a28:	00 00 00 
    2a2b:	c7 87 2c 01 00 00 00 	mov    DWORD PTR [rdi+0x12c],0x0
    2a32:	00 00 00 
    2a35:	48 c7 87 20 01 00 00 	mov    QWORD PTR [rdi+0x120],0x0
    2a3c:	00 00 00 00 
    2a40:	4c 8d bf 30 01 00 00 	lea    r15,[rdi+0x130]
    2a47:	c7 87 38 01 00 00 00 	mov    DWORD PTR [rdi+0x138],0x0
    2a4e:	00 00 00 
    2a51:	c7 87 3c 01 00 00 00 	mov    DWORD PTR [rdi+0x13c],0x0
    2a58:	00 00 00 
    2a5b:	48 c7 87 30 01 00 00 	mov    QWORD PTR [rdi+0x130],0x0
    2a62:	00 00 00 00 
    2a66:	48 8d 45 a0          	lea    rax,[rbp-0x60]
    2a6a:	48 83 c0 10          	add    rax,0x10
    2a6e:	48 89 45 a0          	mov    QWORD PTR [rbp-0x60],rax
    2a72:	6a 00                	push   0x0
    2a74:	ba 00 00 00 00       	mov    edx,0x0
    2a79:	be 00 00 00 00       	mov    esi,0x0
    2a7e:	48 8d 7d a0          	lea    rdi,[rbp-0x60]
    2a82:	e8 00 00 00 00       	call   2a87 <_ZN9simulatorC1Ev+0x1bf>
    2a87:	48 83 c4 10          	add    rsp,0x10
    2a8b:	48 8d 75 a0          	lea    rsi,[rbp-0x60]
    2a8f:	48 89 df             	mov    rdi,rbx
    2a92:	e8 00 00 00 00       	call   2a97 <_ZN9simulatorC1Ev+0x1cf>
    2a97:	48 8b 7d a0          	mov    rdi,QWORD PTR [rbp-0x60]
    2a9b:	48 8d 45 b0          	lea    rax,[rbp-0x50]
    2a9f:	48 39 c7             	cmp    rdi,rax
    2aa2:	74 05                	je     2aa9 <_ZN9simulatorC1Ev+0x1e1>
    2aa4:	e8 00 00 00 00       	call   2aa9 <_ZN9simulatorC1Ev+0x1e1>
    2aa9:	f3 0f 10 43 14       	movss  xmm0,DWORD PTR [rbx+0x14]
    2aae:	f3 0f 11 43 20       	movss  DWORD PTR [rbx+0x20],xmm0
    2ab3:	f3 0f 10 13          	movss  xmm2,DWORD PTR [rbx]
    2ab7:	f3 0f 11 95 6c ff ff 	movss  DWORD PTR [rbp-0x94],xmm2
    2abe:	ff 
    2abf:	0f 28 da             	movaps xmm3,xmm2
    2ac2:	f3 0f 5e d8          	divss  xmm3,xmm0
    2ac6:	0f 28 c3             	movaps xmm0,xmm3
    2ac9:	e8 00 00 00 00       	call   2ace <_ZN9simulatorC1Ev+0x206>
    2ace:	f3 0f 58 05 00 00 00 	addss  xmm0,DWORD PTR [rip+0x0]        # 2ad6 <_ZN9simulatorC1Ev+0x20e>
    2ad5:	00 
    2ad6:	f3 44 0f 2c e0       	cvttss2si r12d,xmm0
    2adb:	44 89 63 24          	mov    DWORD PTR [rbx+0x24],r12d
    2adf:	f3 0f 10 43 04       	movss  xmm0,DWORD PTR [rbx+0x4]
    2ae4:	f3 0f 5e 43 18       	divss  xmm0,DWORD PTR [rbx+0x18]
    2ae9:	e8 00 00 00 00       	call   2aee <_ZN9simulatorC1Ev+0x226>
    2aee:	f3 0f 58 05 00 00 00 	addss  xmm0,DWORD PTR [rip+0x0]        # 2af6 <_ZN9simulatorC1Ev+0x22e>
    2af5:	00 
    2af6:	f3 0f 2c c0          	cvttss2si eax,xmm0
    2afa:	89 85 68 ff ff ff    	mov    DWORD PTR [rbp-0x98],eax
    2b00:	89 43 28             	mov    DWORD PTR [rbx+0x28],eax
    2b03:	f3 0f 10 43 08       	movss  xmm0,DWORD PTR [rbx+0x8]
    2b08:	f3 0f 5e 43 1c       	divss  xmm0,DWORD PTR [rbx+0x1c]
    2b0d:	e8 00 00 00 00       	call   2b12 <_ZN9simulatorC1Ev+0x24a>
    2b12:	f3 0f 58 05 00 00 00 	addss  xmm0,DWORD PTR [rip+0x0]        # 2b1a <_ZN9simulatorC1Ev+0x252>
    2b19:	00 
    2b1a:	f3 0f 2c c0          	cvttss2si eax,xmm0
    2b1e:	89 43 2c             	mov    DWORD PTR [rbx+0x2c],eax
    2b21:	f3 0f 5a 85 6c ff ff 	cvtss2sd xmm0,DWORD PTR [rbp-0x94]
    2b28:	ff 
    2b29:	f2 0f 59 05 00 00 00 	mulsd  xmm0,QWORD PTR [rip+0x0]        # 2b31 <_ZN9simulatorC1Ev+0x269>
    2b30:	00 
    2b31:	f3 0f 5a 4b 0c       	cvtss2sd xmm1,DWORD PTR [rbx+0xc]
    2b36:	f2 0f 5e c1          	divsd  xmm0,xmm1
    2b3a:	f2 0f 5a e0          	cvtsd2ss xmm4,xmm0
    2b3e:	f3 0f 11 a3 40 01 00 	movss  DWORD PTR [rbx+0x140],xmm4
    2b45:	00 
    2b46:	44 89 a3 b8 00 00 00 	mov    DWORD PTR [rbx+0xb8],r12d
    2b4d:	8b 85 68 ff ff ff    	mov    eax,DWORD PTR [rbp-0x98]
    2b53:	89 83 bc 00 00 00    	mov    DWORD PTR [rbx+0xbc],eax
    2b59:	66 0f ef c0          	pxor   xmm0,xmm0
    2b5d:	48 8b 7d 98          	mov    rdi,QWORD PTR [rbp-0x68]
    2b61:	e8 00 00 00 00       	call   2b66 <_ZN9simulatorC1Ev+0x29e>
    2b66:	8b 43 28             	mov    eax,DWORD PTR [rbx+0x28]
    2b69:	8b 53 24             	mov    edx,DWORD PTR [rbx+0x24]
    2b6c:	89 93 c8 00 00 00    	mov    DWORD PTR [rbx+0xc8],edx
    2b72:	89 83 cc 00 00 00    	mov    DWORD PTR [rbx+0xcc],eax
    2b78:	66 0f ef c0          	pxor   xmm0,xmm0
    2b7c:	48 8b 7d 90          	mov    rdi,QWORD PTR [rbp-0x70]
    2b80:	e8 00 00 00 00       	call   2b85 <_ZN9simulatorC1Ev+0x2bd>
    2b85:	8b 43 28             	mov    eax,DWORD PTR [rbx+0x28]
    2b88:	8b 53 24             	mov    edx,DWORD PTR [rbx+0x24]
    2b8b:	89 93 d8 00 00 00    	mov    DWORD PTR [rbx+0xd8],edx
    2b91:	89 83 dc 00 00 00    	mov    DWORD PTR [rbx+0xdc],eax
    2b97:	f3 0f 10 05 00 00 00 	movss  xmm0,DWORD PTR [rip+0x0]        # 2b9f <_ZN9simulatorC1Ev+0x2d7>
    2b9e:	00 
    2b9f:	48 8b 7d 88          	mov    rdi,QWORD PTR [rbp-0x78]
    2ba3:	e8 00 00 00 00       	call   2ba8 <_ZN9simulatorC1Ev+0x2e0>
    2ba8:	8b 43 28             	mov    eax,DWORD PTR [rbx+0x28]
    2bab:	8b 53 24             	mov    edx,DWORD PTR [rbx+0x24]
    2bae:	89 93 e8 00 00 00    	mov    DWORD PTR [rbx+0xe8],edx
    2bb4:	89 83 ec 00 00 00    	mov    DWORD PTR [rbx+0xec],eax
    2bba:	66 0f ef c0          	pxor   xmm0,xmm0
    2bbe:	48 8b 7d 80          	mov    rdi,QWORD PTR [rbp-0x80]
    2bc2:	e8 00 00 00 00       	call   2bc7 <_ZN9simulatorC1Ev+0x2ff>
    2bc7:	8b 43 28             	mov    eax,DWORD PTR [rbx+0x28]
    2bca:	8b 53 24             	mov    edx,DWORD PTR [rbx+0x24]
    2bcd:	89 93 f8 00 00 00    	mov    DWORD PTR [rbx+0xf8],edx
    2bd3:	89 83 fc 00 00 00    	mov    DWORD PTR [rbx+0xfc],eax
    2bd9:	66 0f ef c0          	pxor   xmm0,xmm0
    2bdd:	48 8b bd 78 ff ff ff 	mov    rdi,QWORD PTR [rbp-0x88]
    2be4:	e8 00 00 00 00       	call   2be9 <_ZN9simulatorC1Ev+0x321>
    2be9:	8b 43 28             	mov    eax,DWORD PTR [rbx+0x28]
    2bec:	8b 53 24             	mov    edx,DWORD PTR [rbx+0x24]
    2bef:	89 93 08 01 00 00    	mov    DWORD PTR [rbx+0x108],edx
    2bf5:	89 83 0c 01 00 00    	mov    DWORD PTR [rbx+0x10c],eax
    2bfb:	f3 0f 10 05 00 00 00 	movss  xmm0,DWORD PTR [rip+0x0]        # 2c03 <_ZN9simulatorC1Ev+0x33b>
    2c02:	00 
    2c03:	48 8b bd 70 ff ff ff 	mov    rdi,QWORD PTR [rbp-0x90]
    2c0a:	e8 00 00 00 00       	call   2c0f <_ZN9simulatorC1Ev+0x347>
    2c0f:	8b 43 28             	mov    eax,DWORD PTR [rbx+0x28]
    2c12:	8b 53 24             	mov    edx,DWORD PTR [rbx+0x24]
    2c15:	89 93 18 01 00 00    	mov    DWORD PTR [rbx+0x118],edx
    2c1b:	89 83 1c 01 00 00    	mov    DWORD PTR [rbx+0x11c],eax
    2c21:	66 0f ef c0          	pxor   xmm0,xmm0
    2c25:	4c 89 ef             	mov    rdi,r13
    2c28:	e8 00 00 00 00       	call   2c2d <_ZN9simulatorC1Ev+0x365>
    2c2d:	8b 43 28             	mov    eax,DWORD PTR [rbx+0x28]
    2c30:	8b 53 24             	mov    edx,DWORD PTR [rbx+0x24]
    2c33:	89 93 28 01 00 00    	mov    DWORD PTR [rbx+0x128],edx
    2c39:	89 83 2c 01 00 00    	mov    DWORD PTR [rbx+0x12c],eax
    2c3f:	66 0f ef c0          	pxor   xmm0,xmm0
    2c43:	4c 89 f7             	mov    rdi,r14
    2c46:	e8 00 00 00 00       	call   2c4b <_ZN9simulatorC1Ev+0x383>
    2c4b:	8b 43 28             	mov    eax,DWORD PTR [rbx+0x28]
    2c4e:	8b 53 24             	mov    edx,DWORD PTR [rbx+0x24]
    2c51:	89 93 38 01 00 00    	mov    DWORD PTR [rbx+0x138],edx
    2c57:	89 83 3c 01 00 00    	mov    DWORD PTR [rbx+0x13c],eax
    2c5d:	f3 0f 10 05 00 00 00 	movss  xmm0,DWORD PTR [rip+0x0]        # 2c65 <_ZN9simulatorC1Ev+0x39d>
    2c64:	00 
    2c65:	4c 89 ff             	mov    rdi,r15
    2c68:	e8 00 00 00 00       	call   2c6d <_ZN9simulatorC1Ev+0x3a5>
    2c6d:	c7 43 30 00 00 00 00 	mov    DWORD PTR [rbx+0x30],0x0
    2c74:	8b 43 24             	mov    eax,DWORD PTR [rbx+0x24]
    2c77:	89 c2                	mov    edx,eax
    2c79:	c1 ea 1f             	shr    edx,0x1f
    2c7c:	01 d0                	add    eax,edx
    2c7e:	d1 f8                	sar    eax,1
    2c80:	66 0f ef c0          	pxor   xmm0,xmm0
    2c84:	f3 0f 2a c0          	cvtsi2ss xmm0,eax
    2c88:	f3 0f 11 43 34       	movss  DWORD PTR [rbx+0x34],xmm0
    2c8d:	8b 43 28             	mov    eax,DWORD PTR [rbx+0x28]
    2c90:	89 c2                	mov    edx,eax
    2c92:	c1 ea 1f             	shr    edx,0x1f
    2c95:	01 d0                	add    eax,edx
    2c97:	d1 f8                	sar    eax,1
    2c99:	66 0f ef c0          	pxor   xmm0,xmm0
    2c9d:	f3 0f 2a c0          	cvtsi2ss xmm0,eax
    2ca1:	f3 0f 11 43 38       	movss  DWORD PTR [rbx+0x38],xmm0
    2ca6:	48 8b 45 c8          	mov    rax,QWORD PTR [rbp-0x38]
    2caa:	64 48 33 04 25 28 00 	xor    rax,QWORD PTR fs:0x28
    2cb1:	00 00 
    2cb3:	74 7d                	je     2d32 <_ZN9simulatorC1Ev+0x46a>
    2cb5:	eb 76                	jmp    2d2d <_ZN9simulatorC1Ev+0x465>
    2cb7:	48 89 c3             	mov    rbx,rax
    2cba:	48 8b 7d a0          	mov    rdi,QWORD PTR [rbp-0x60]
    2cbe:	48 8d 45 b0          	lea    rax,[rbp-0x50]
    2cc2:	48 39 c7             	cmp    rdi,rax
    2cc5:	74 0a                	je     2cd1 <_ZN9simulatorC1Ev+0x409>
    2cc7:	e8 00 00 00 00       	call   2ccc <_ZN9simulatorC1Ev+0x404>
    2ccc:	eb 03                	jmp    2cd1 <_ZN9simulatorC1Ev+0x409>
    2cce:	48 89 c3             	mov    rbx,rax
    2cd1:	4c 89 ff             	mov    rdi,r15
    2cd4:	e8 00 00 00 00       	call   2cd9 <_ZN9simulatorC1Ev+0x411>
    2cd9:	4c 89 f7             	mov    rdi,r14
    2cdc:	e8 00 00 00 00       	call   2ce1 <_ZN9simulatorC1Ev+0x419>
    2ce1:	4c 89 ef             	mov    rdi,r13
    2ce4:	e8 00 00 00 00       	call   2ce9 <_ZN9simulatorC1Ev+0x421>
    2ce9:	48 8b bd 70 ff ff ff 	mov    rdi,QWORD PTR [rbp-0x90]
    2cf0:	e8 00 00 00 00       	call   2cf5 <_ZN9simulatorC1Ev+0x42d>
    2cf5:	48 8b bd 78 ff ff ff 	mov    rdi,QWORD PTR [rbp-0x88]
    2cfc:	e8 00 00 00 00       	call   2d01 <_ZN9simulatorC1Ev+0x439>
    2d01:	48 8b 7d 80          	mov    rdi,QWORD PTR [rbp-0x80]
    2d05:	e8 00 00 00 00       	call   2d0a <_ZN9simulatorC1Ev+0x442>
    2d0a:	48 8b 7d 88          	mov    rdi,QWORD PTR [rbp-0x78]
    2d0e:	e8 00 00 00 00       	call   2d13 <_ZN9simulatorC1Ev+0x44b>
    2d13:	48 8b 7d 90          	mov    rdi,QWORD PTR [rbp-0x70]
    2d17:	e8 00 00 00 00       	call   2d1c <_ZN9simulatorC1Ev+0x454>
    2d1c:	48 8b 7d 98          	mov    rdi,QWORD PTR [rbp-0x68]
    2d20:	e8 00 00 00 00       	call   2d25 <_ZN9simulatorC1Ev+0x45d>
    2d25:	48 89 df             	mov    rdi,rbx
    2d28:	e8 00 00 00 00       	call   2d2d <_ZN9simulatorC1Ev+0x465>
    2d2d:	e8 00 00 00 00       	call   2d32 <_ZN9simulatorC1Ev+0x46a>
    2d32:	48 8d 65 d8          	lea    rsp,[rbp-0x28]
    2d36:	5b                   	pop    rbx
    2d37:	41 5c                	pop    r12
    2d39:	41 5d                	pop    r13
    2d3b:	41 5e                	pop    r14
    2d3d:	41 5f                	pop    r15
    2d3f:	5d                   	pop    rbp
    2d40:	c3                   	ret    

0000000000002d41 <main>:
    2d41:	53                   	push   rbx
    2d42:	48 81 ec 60 01 00 00 	sub    rsp,0x160
    2d49:	64 48 8b 04 25 28 00 	mov    rax,QWORD PTR fs:0x28
    2d50:	00 00 
    2d52:	48 89 84 24 58 01 00 	mov    QWORD PTR [rsp+0x158],rax
    2d59:	00 
    2d5a:	31 c0                	xor    eax,eax
    2d5c:	48 89 e7             	mov    rdi,rsp
    2d5f:	e8 00 00 00 00       	call   2d64 <main+0x23>
    2d64:	48 89 e7             	mov    rdi,rsp
    2d67:	e8 00 00 00 00       	call   2d6c <main+0x2b>
    2d6c:	48 89 e7             	mov    rdi,rsp
    2d6f:	e8 00 00 00 00       	call   2d74 <main+0x33>
    2d74:	b8 00 00 00 00       	mov    eax,0x0
    2d79:	48 8b 94 24 58 01 00 	mov    rdx,QWORD PTR [rsp+0x158]
    2d80:	00 
    2d81:	64 48 33 14 25 28 00 	xor    rdx,QWORD PTR fs:0x28
    2d88:	00 00 
    2d8a:	74 1a                	je     2da6 <main+0x65>
    2d8c:	eb 13                	jmp    2da1 <main+0x60>
    2d8e:	48 89 c3             	mov    rbx,rax
    2d91:	48 89 e7             	mov    rdi,rsp
    2d94:	e8 00 00 00 00       	call   2d99 <main+0x58>
    2d99:	48 89 df             	mov    rdi,rbx
    2d9c:	e8 00 00 00 00       	call   2da1 <main+0x60>
    2da1:	e8 00 00 00 00       	call   2da6 <main+0x65>
    2da6:	48 81 c4 60 01 00 00 	add    rsp,0x160
    2dad:	5b                   	pop    rbx
    2dae:	c3                   	ret    
    2daf:	90                   	nop

0000000000002db0 <_ZN9simulator7saveVtkER4mat2NSt7__cxx1112basic_stringIcSt11char_traitsIcESaIcEEE>:
    2db0:	55                   	push   rbp
    2db1:	48 89 e5             	mov    rbp,rsp
    2db4:	41 57                	push   r15
    2db6:	41 56                	push   r14
    2db8:	41 55                	push   r13
    2dba:	41 54                	push   r12
    2dbc:	53                   	push   rbx
    2dbd:	48 81 ec 00 06 00 00 	sub    rsp,0x600
    2dc4:	49 89 fd             	mov    r13,rdi
    2dc7:	49 89 f6             	mov    r14,rsi
    2dca:	48 89 d3             	mov    rbx,rdx
    2dcd:	64 48 8b 04 25 28 00 	mov    rax,QWORD PTR fs:0x28
    2dd4:	00 00 
    2dd6:	48 89 45 c8          	mov    QWORD PTR [rbp-0x38],rax
    2dda:	31 c0                	xor    eax,eax
    2ddc:	48 8d 85 60 fb ff ff 	lea    rax,[rbp-0x4a0]
    2de3:	48 83 c0 10          	add    rax,0x10
    2de7:	48 89 85 60 fb ff ff 	mov    QWORD PTR [rbp-0x4a0],rax
    2dee:	6a 00                	push   0x0
    2df0:	ba 00 00 00 00       	mov    edx,0x0
    2df5:	be 00 00 00 00       	mov    esi,0x0
    2dfa:	48 8d bd 60 fb ff ff 	lea    rdi,[rbp-0x4a0]
    2e01:	e8 00 00 00 00       	call   2e06 <_ZN9simulator7saveVtkER4mat2NSt7__cxx1112basic_stringIcSt11char_traitsIcESaIcEEE+0x56>
    2e06:	48 8d 85 40 fb ff ff 	lea    rax,[rbp-0x4c0]
    2e0d:	48 83 c0 10          	add    rax,0x10
    2e11:	48 89 85 40 fb ff ff 	mov    QWORD PTR [rbp-0x4c0],rax
    2e18:	48 8b 33             	mov    rsi,QWORD PTR [rbx]
    2e1b:	48 89 f2             	mov    rdx,rsi
    2e1e:	48 03 53 08          	add    rdx,QWORD PTR [rbx+0x8]
    2e22:	c6 04 24 00          	mov    BYTE PTR [rsp],0x0
    2e26:	48 8d bd 40 fb ff ff 	lea    rdi,[rbp-0x4c0]
    2e2d:	e8 00 00 00 00       	call   2e32 <_ZN9simulator7saveVtkER4mat2NSt7__cxx1112basic_stringIcSt11char_traitsIcESaIcEEE+0x82>
    2e32:	48 83 c4 10          	add    rsp,0x10
    2e36:	48 8d 95 60 fb ff ff 	lea    rdx,[rbp-0x4a0]
    2e3d:	48 8d b5 40 fb ff ff 	lea    rsi,[rbp-0x4c0]
    2e44:	48 8d bd 80 fb ff ff 	lea    rdi,[rbp-0x480]
    2e4b:	e8 00 00 00 00       	call   2e50 <_ZN9simulator7saveVtkER4mat2NSt7__cxx1112basic_stringIcSt11char_traitsIcESaIcEEE+0xa0>
    2e50:	48 8b bd 40 fb ff ff 	mov    rdi,QWORD PTR [rbp-0x4c0]
    2e57:	48 8d 85 50 fb ff ff 	lea    rax,[rbp-0x4b0]
    2e5e:	48 39 c7             	cmp    rdi,rax
    2e61:	74 05                	je     2e68 <_ZN9simulator7saveVtkER4mat2NSt7__cxx1112basic_stringIcSt11char_traitsIcESaIcEEE+0xb8>
    2e63:	e8 00 00 00 00       	call   2e68 <_ZN9simulator7saveVtkER4mat2NSt7__cxx1112basic_stringIcSt11char_traitsIcESaIcEEE+0xb8>
    2e68:	48 8b bd 60 fb ff ff 	mov    rdi,QWORD PTR [rbp-0x4a0]
    2e6f:	48 8d 85 70 fb ff ff 	lea    rax,[rbp-0x490]
    2e76:	48 39 c7             	cmp    rdi,rax
    2e79:	74 05                	je     2e80 <_ZN9simulator7saveVtkER4mat2NSt7__cxx1112basic_stringIcSt11char_traitsIcESaIcEEE+0xd0>
    2e7b:	e8 00 00 00 00       	call   2e80 <_ZN9simulator7saveVtkER4mat2NSt7__cxx1112basic_stringIcSt11char_traitsIcESaIcEEE+0xd0>
    2e80:	48 8d 85 e0 f9 ff ff 	lea    rax,[rbp-0x620]
    2e87:	48 83 c0 10          	add    rax,0x10
    2e8b:	48 89 85 e0 f9 ff ff 	mov    QWORD PTR [rbp-0x620],rax
    2e92:	48 83 ec 08          	sub    rsp,0x8
    2e96:	6a 00                	push   0x0
    2e98:	ba 00 00 00 00       	mov    edx,0x0
    2e9d:	be 00 00 00 00       	mov    esi,0x0
    2ea2:	48 8d bd e0 f9 ff ff 	lea    rdi,[rbp-0x620]
    2ea9:	e8 00 00 00 00       	call   2eae <_ZN9simulator7saveVtkER4mat2NSt7__cxx1112basic_stringIcSt11char_traitsIcESaIcEEE+0xfe>
    2eae:	48 83 c4 10          	add    rsp,0x10
    2eb2:	48 8d b5 e0 f9 ff ff 	lea    rsi,[rbp-0x620]
    2eb9:	48 8d bd 80 fb ff ff 	lea    rdi,[rbp-0x480]
    2ec0:	e8 00 00 00 00       	call   2ec5 <_ZN9simulator7saveVtkER4mat2NSt7__cxx1112basic_stringIcSt11char_traitsIcESaIcEEE+0x115>
    2ec5:	48 8b bd e0 f9 ff ff 	mov    rdi,QWORD PTR [rbp-0x620]
    2ecc:	48 8d 85 f0 f9 ff ff 	lea    rax,[rbp-0x610]
    2ed3:	48 39 c7             	cmp    rdi,rax
    2ed6:	74 05                	je     2edd <_ZN9simulator7saveVtkER4mat2NSt7__cxx1112basic_stringIcSt11char_traitsIcESaIcEEE+0x12d>
    2ed8:	e8 00 00 00 00       	call   2edd <_ZN9simulator7saveVtkER4mat2NSt7__cxx1112basic_stringIcSt11char_traitsIcESaIcEEE+0x12d>
    2edd:	48 8d bd 80 fb ff ff 	lea    rdi,[rbp-0x480]
    2ee4:	e8 00 00 00 00       	call   2ee9 <_ZN9simulator7saveVtkER4mat2NSt7__cxx1112basic_stringIcSt11char_traitsIcESaIcEEE+0x139>
    2ee9:	48 8d 85 00 fa ff ff 	lea    rax,[rbp-0x600]
    2ef0:	48 83 c0 10          	add    rax,0x10
    2ef4:	48 89 85 00 fa ff ff 	mov    QWORD PTR [rbp-0x600],rax
    2efb:	48 83 ec 08          	sub    rsp,0x8
    2eff:	6a 00                	push   0x0
    2f01:	ba 00 00 00 00       	mov    edx,0x0
    2f06:	be 00 00 00 00       	mov    esi,0x0
    2f0b:	48 8d bd 00 fa ff ff 	lea    rdi,[rbp-0x600]
    2f12:	e8 00 00 00 00       	call   2f17 <_ZN9simulator7saveVtkER4mat2NSt7__cxx1112basic_stringIcSt11char_traitsIcESaIcEEE+0x167>
    2f17:	48 83 c4 10          	add    rsp,0x10
    2f1b:	48 8d b5 00 fa ff ff 	lea    rsi,[rbp-0x600]
    2f22:	48 8d bd 80 fb ff ff 	lea    rdi,[rbp-0x480]
    2f29:	e8 00 00 00 00       	call   2f2e <_ZN9simulator7saveVtkER4mat2NSt7__cxx1112basic_stringIcSt11char_traitsIcESaIcEEE+0x17e>
    2f2e:	48 8b bd 00 fa ff ff 	mov    rdi,QWORD PTR [rbp-0x600]
    2f35:	48 8d 85 10 fa ff ff 	lea    rax,[rbp-0x5f0]
    2f3c:	48 39 c7             	cmp    rdi,rax
    2f3f:	74 05                	je     2f46 <_ZN9simulator7saveVtkER4mat2NSt7__cxx1112basic_stringIcSt11char_traitsIcESaIcEEE+0x196>
    2f41:	e8 00 00 00 00       	call   2f46 <_ZN9simulator7saveVtkER4mat2NSt7__cxx1112basic_stringIcSt11char_traitsIcESaIcEEE+0x196>
    2f46:	48 8d bd 80 fb ff ff 	lea    rdi,[rbp-0x480]
    2f4d:	e8 00 00 00 00       	call   2f52 <_ZN9simulator7saveVtkER4mat2NSt7__cxx1112basic_stringIcSt11char_traitsIcESaIcEEE+0x1a2>
    2f52:	48 8d 85 20 fa ff ff 	lea    rax,[rbp-0x5e0]
    2f59:	48 83 c0 10          	add    rax,0x10
    2f5d:	48 89 85 20 fa ff ff 	mov    QWORD PTR [rbp-0x5e0],rax
    2f64:	48 83 ec 08          	sub    rsp,0x8
    2f68:	6a 00                	push   0x0
    2f6a:	ba 00 00 00 00       	mov    edx,0x0
    2f6f:	be 00 00 00 00       	mov    esi,0x0
    2f74:	48 8d bd 20 fa ff ff 	lea    rdi,[rbp-0x5e0]
    2f7b:	e8 00 00 00 00       	call   2f80 <_ZN9simulator7saveVtkER4mat2NSt7__cxx1112basic_stringIcSt11char_traitsIcESaIcEEE+0x1d0>
    2f80:	48 83 c4 10          	add    rsp,0x10
    2f84:	48 8d b5 20 fa ff ff 	lea    rsi,[rbp-0x5e0]
    2f8b:	48 8d bd 80 fb ff ff 	lea    rdi,[rbp-0x480]
    2f92:	e8 00 00 00 00       	call   2f97 <_ZN9simulator7saveVtkER4mat2NSt7__cxx1112basic_stringIcSt11char_traitsIcESaIcEEE+0x1e7>
    2f97:	48 8b bd 20 fa ff ff 	mov    rdi,QWORD PTR [rbp-0x5e0]
    2f9e:	48 8d 85 30 fa ff ff 	lea    rax,[rbp-0x5d0]
    2fa5:	48 39 c7             	cmp    rdi,rax
    2fa8:	74 05                	je     2faf <_ZN9simulator7saveVtkER4mat2NSt7__cxx1112basic_stringIcSt11char_traitsIcESaIcEEE+0x1ff>
    2faa:	e8 00 00 00 00       	call   2faf <_ZN9simulator7saveVtkER4mat2NSt7__cxx1112basic_stringIcSt11char_traitsIcESaIcEEE+0x1ff>
    2faf:	48 8d bd 80 fb ff ff 	lea    rdi,[rbp-0x480]
    2fb6:	e8 00 00 00 00       	call   2fbb <_ZN9simulator7saveVtkER4mat2NSt7__cxx1112basic_stringIcSt11char_traitsIcESaIcEEE+0x20b>
    2fbb:	48 8d 85 40 fa ff ff 	lea    rax,[rbp-0x5c0]
    2fc2:	48 83 c0 10          	add    rax,0x10
    2fc6:	48 89 85 40 fa ff ff 	mov    QWORD PTR [rbp-0x5c0],rax
    2fcd:	48 83 ec 08          	sub    rsp,0x8
    2fd1:	6a 00                	push   0x0
    2fd3:	ba 00 00 00 00       	mov    edx,0x0
    2fd8:	be 00 00 00 00       	mov    esi,0x0
    2fdd:	48 8d bd 40 fa ff ff 	lea    rdi,[rbp-0x5c0]
    2fe4:	e8 00 00 00 00       	call   2fe9 <_ZN9simulator7saveVtkER4mat2NSt7__cxx1112basic_stringIcSt11char_traitsIcESaIcEEE+0x239>
    2fe9:	48 83 c4 10          	add    rsp,0x10
    2fed:	48 8d b5 40 fa ff ff 	lea    rsi,[rbp-0x5c0]
    2ff4:	48 8d bd 80 fb ff ff 	lea    rdi,[rbp-0x480]
    2ffb:	e8 00 00 00 00       	call   3000 <_ZN9simulator7saveVtkER4mat2NSt7__cxx1112basic_stringIcSt11char_traitsIcESaIcEEE+0x250>
    3000:	48 8b bd 40 fa ff ff 	mov    rdi,QWORD PTR [rbp-0x5c0]
    3007:	48 8d 85 50 fa ff ff 	lea    rax,[rbp-0x5b0]
    300e:	48 39 c7             	cmp    rdi,rax
    3011:	74 05                	je     3018 <_ZN9simulator7saveVtkER4mat2NSt7__cxx1112basic_stringIcSt11char_traitsIcESaIcEEE+0x268>
    3013:	e8 00 00 00 00       	call   3018 <_ZN9simulator7saveVtkER4mat2NSt7__cxx1112basic_stringIcSt11char_traitsIcESaIcEEE+0x268>
    3018:	48 8d bd 80 fb ff ff 	lea    rdi,[rbp-0x480]
    301f:	e8 00 00 00 00       	call   3024 <_ZN9simulator7saveVtkER4mat2NSt7__cxx1112basic_stringIcSt11char_traitsIcESaIcEEE+0x274>
    3024:	45 8b 45 28          	mov    r8d,DWORD PTR [r13+0x28]
    3028:	b9 00 00 00 00       	mov    ecx,0x0
    302d:	ba 10 00 00 00       	mov    edx,0x10
    3032:	be 00 00 00 00       	mov    esi,0x0
    3037:	48 8d bd 80 fa ff ff 	lea    rdi,[rbp-0x580]
    303e:	b8 00 00 00 00       	mov    eax,0x0
    3043:	e8 00 00 00 00       	call   3048 <_ZN9simulator7saveVtkER4mat2NSt7__cxx1112basic_stringIcSt11char_traitsIcESaIcEEE+0x298>
    3048:	45 8b 45 24          	mov    r8d,DWORD PTR [r13+0x24]
    304c:	b9 00 00 00 00       	mov    ecx,0x0
    3051:	ba 10 00 00 00       	mov    edx,0x10
    3056:	be 00 00 00 00       	mov    esi,0x0
    305b:	48 8d bd 60 fa ff ff 	lea    rdi,[rbp-0x5a0]
    3062:	b8 00 00 00 00       	mov    eax,0x0
    3067:	e8 00 00 00 00       	call   306c <_ZN9simulator7saveVtkER4mat2NSt7__cxx1112basic_stringIcSt11char_traitsIcESaIcEEE+0x2bc>
    306c:	41 b8 0b 00 00 00    	mov    r8d,0xb
    3072:	b9 00 00 00 00       	mov    ecx,0x0
    3077:	ba 00 00 00 00       	mov    edx,0x0
    307c:	be 00 00 00 00       	mov    esi,0x0
    3081:	48 8d bd 60 fa ff ff 	lea    rdi,[rbp-0x5a0]
    3088:	e8 00 00 00 00       	call   308d <_ZN9simulator7saveVtkER4mat2NSt7__cxx1112basic_stringIcSt11char_traitsIcESaIcEEE+0x2dd>
    308d:	48 8d 95 10 fb ff ff 	lea    rdx,[rbp-0x4f0]
    3094:	48 89 95 00 fb ff ff 	mov    QWORD PTR [rbp-0x500],rdx
    309b:	48 8b 08             	mov    rcx,QWORD PTR [rax]
    309e:	48 8d 50 10          	lea    rdx,[rax+0x10]
    30a2:	48 39 d1             	cmp    rcx,rdx
    30a5:	75 18                	jne    30bf <_ZN9simulator7saveVtkER4mat2NSt7__cxx1112basic_stringIcSt11char_traitsIcESaIcEEE+0x30f>
    30a7:	48 8b 48 10          	mov    rcx,QWORD PTR [rax+0x10]
    30ab:	48 8b 58 18          	mov    rbx,QWORD PTR [rax+0x18]
    30af:	48 89 8d 10 fb ff ff 	mov    QWORD PTR [rbp-0x4f0],rcx
    30b6:	48 89 9d 18 fb ff ff 	mov    QWORD PTR [rbp-0x4e8],rbx
    30bd:	eb 12                	jmp    30d1 <_ZN9simulator7saveVtkER4mat2NSt7__cxx1112basic_stringIcSt11char_traitsIcESaIcEEE+0x321>
    30bf:	48 89 8d 00 fb ff ff 	mov    QWORD PTR [rbp-0x500],rcx
    30c6:	48 8b 48 10          	mov    rcx,QWORD PTR [rax+0x10]
    30ca:	48 89 8d 10 fb ff ff 	mov    QWORD PTR [rbp-0x4f0],rcx
    30d1:	48 8b 48 08          	mov    rcx,QWORD PTR [rax+0x8]
    30d5:	48 89 8d 08 fb ff ff 	mov    QWORD PTR [rbp-0x4f8],rcx
    30dc:	48 89 10             	mov    QWORD PTR [rax],rdx
    30df:	48 c7 40 08 00 00 00 	mov    QWORD PTR [rax+0x8],0x0
    30e6:	00 
    30e7:	c6 40 10 00          	mov    BYTE PTR [rax+0x10],0x0
    30eb:	48 b8 ff ff ff ff ff 	movabs rax,0x7fffffffffffffff
    30f2:	ff ff 7f 
    30f5:	48 39 85 08 fb ff ff 	cmp    QWORD PTR [rbp-0x4f8],rax
    30fc:	75 0a                	jne    3108 <_ZN9simulator7saveVtkER4mat2NSt7__cxx1112basic_stringIcSt11char_traitsIcESaIcEEE+0x358>
    30fe:	bf 00 00 00 00       	mov    edi,0x0
    3103:	e8 00 00 00 00       	call   3108 <_ZN9simulator7saveVtkER4mat2NSt7__cxx1112basic_stringIcSt11char_traitsIcESaIcEEE+0x358>
    3108:	ba 01 00 00 00       	mov    edx,0x1
    310d:	be 00 00 00 00       	mov    esi,0x0
    3112:	48 8d bd 00 fb ff ff 	lea    rdi,[rbp-0x500]
    3119:	e8 00 00 00 00       	call   311e <_ZN9simulator7saveVtkER4mat2NSt7__cxx1112basic_stringIcSt11char_traitsIcESaIcEEE+0x36e>
    311e:	48 8d 95 30 fb ff ff 	lea    rdx,[rbp-0x4d0]
    3125:	48 89 95 20 fb ff ff 	mov    QWORD PTR [rbp-0x4e0],rdx
    312c:	48 8b 08             	mov    rcx,QWORD PTR [rax]
    312f:	48 8d 50 10          	lea    rdx,[rax+0x10]
    3133:	48 39 d1             	cmp    rcx,rdx
    3136:	75 18                	jne    3150 <_ZN9simulator7saveVtkER4mat2NSt7__cxx1112basic_stringIcSt11char_traitsIcESaIcEEE+0x3a0>
    3138:	48 8b 48 10          	mov    rcx,QWORD PTR [rax+0x10]
    313c:	48 8b 58 18          	mov    rbx,QWORD PTR [rax+0x18]
    3140:	48 89 8d 30 fb ff ff 	mov    QWORD PTR [rbp-0x4d0],rcx
    3147:	48 89 9d 38 fb ff ff 	mov    QWORD PTR [rbp-0x4c8],rbx
    314e:	eb 12                	jmp    3162 <_ZN9simulator7saveVtkER4mat2NSt7__cxx1112basic_stringIcSt11char_traitsIcESaIcEEE+0x3b2>
    3150:	48 89 8d 20 fb ff ff 	mov    QWORD PTR [rbp-0x4e0],rcx
    3157:	48 8b 48 10          	mov    rcx,QWORD PTR [rax+0x10]
    315b:	48 89 8d 30 fb ff ff 	mov    QWORD PTR [rbp-0x4d0],rcx
    3162:	48 8b 48 08          	mov    rcx,QWORD PTR [rax+0x8]
    3166:	48 89 8d 28 fb ff ff 	mov    QWORD PTR [rbp-0x4d8],rcx
    316d:	48 89 10             	mov    QWORD PTR [rax],rdx
    3170:	48 c7 40 08 00 00 00 	mov    QWORD PTR [rax+0x8],0x0
    3177:	00 
    3178:	c6 40 10 00          	mov    BYTE PTR [rax+0x10],0x0
    317c:	4c 8b 85 28 fb ff ff 	mov    r8,QWORD PTR [rbp-0x4d8]
    3183:	48 8b 95 88 fa ff ff 	mov    rdx,QWORD PTR [rbp-0x578]
    318a:	49 8d 34 10          	lea    rsi,[r8+rdx*1]
    318e:	48 8b 8d 20 fb ff ff 	mov    rcx,QWORD PTR [rbp-0x4e0]
    3195:	48 8d 85 30 fb ff ff 	lea    rax,[rbp-0x4d0]
    319c:	48 39 c1             	cmp    rcx,rax
    319f:	74 09                	je     31aa <_ZN9simulator7saveVtkER4mat2NSt7__cxx1112basic_stringIcSt11char_traitsIcESaIcEEE+0x3fa>
    31a1:	48 8b 85 30 fb ff ff 	mov    rax,QWORD PTR [rbp-0x4d0]
    31a8:	eb 05                	jmp    31af <_ZN9simulator7saveVtkER4mat2NSt7__cxx1112basic_stringIcSt11char_traitsIcESaIcEEE+0x3ff>
    31aa:	b8 0f 00 00 00       	mov    eax,0xf
    31af:	48 39 c6             	cmp    rsi,rax
    31b2:	76 3b                	jbe    31ef <_ZN9simulator7saveVtkER4mat2NSt7__cxx1112basic_stringIcSt11char_traitsIcESaIcEEE+0x43f>
    31b4:	48 8d 85 90 fa ff ff 	lea    rax,[rbp-0x570]
    31bb:	48 39 85 80 fa ff ff 	cmp    QWORD PTR [rbp-0x580],rax
    31c2:	74 09                	je     31cd <_ZN9simulator7saveVtkER4mat2NSt7__cxx1112basic_stringIcSt11char_traitsIcESaIcEEE+0x41d>
    31c4:	48 8b 85 90 fa ff ff 	mov    rax,QWORD PTR [rbp-0x570]
    31cb:	eb 05                	jmp    31d2 <_ZN9simulator7saveVtkER4mat2NSt7__cxx1112basic_stringIcSt11char_traitsIcESaIcEEE+0x422>
    31cd:	b8 0f 00 00 00       	mov    eax,0xf
    31d2:	48 39 c6             	cmp    rsi,rax
    31d5:	77 18                	ja     31ef <_ZN9simulator7saveVtkER4mat2NSt7__cxx1112basic_stringIcSt11char_traitsIcESaIcEEE+0x43f>
    31d7:	ba 00 00 00 00       	mov    edx,0x0
    31dc:	be 00 00 00 00       	mov    esi,0x0
    31e1:	48 8d bd 80 fa ff ff 	lea    rdi,[rbp-0x580]
    31e8:	e8 00 00 00 00       	call   31ed <_ZN9simulator7saveVtkER4mat2NSt7__cxx1112basic_stringIcSt11char_traitsIcESaIcEEE+0x43d>
    31ed:	eb 13                	jmp    3202 <_ZN9simulator7saveVtkER4mat2NSt7__cxx1112basic_stringIcSt11char_traitsIcESaIcEEE+0x452>
    31ef:	48 8b b5 80 fa ff ff 	mov    rsi,QWORD PTR [rbp-0x580]
    31f6:	48 8d bd 20 fb ff ff 	lea    rdi,[rbp-0x4e0]
    31fd:	e8 00 00 00 00       	call   3202 <_ZN9simulator7saveVtkER4mat2NSt7__cxx1112basic_stringIcSt11char_traitsIcESaIcEEE+0x452>
    3202:	48 8d 95 50 fb ff ff 	lea    rdx,[rbp-0x4b0]
    3209:	48 89 95 40 fb ff ff 	mov    QWORD PTR [rbp-0x4c0],rdx
    3210:	48 8b 08             	mov    rcx,QWORD PTR [rax]
    3213:	48 8d 50 10          	lea    rdx,[rax+0x10]
    3217:	48 39 d1             	cmp    rcx,rdx
    321a:	75 18                	jne    3234 <_ZN9simulator7saveVtkER4mat2NSt7__cxx1112basic_stringIcSt11char_traitsIcESaIcEEE+0x484>
    321c:	48 8b 48 10          	mov    rcx,QWORD PTR [rax+0x10]
    3220:	48 8b 58 18          	mov    rbx,QWORD PTR [rax+0x18]
    3224:	48 89 8d 50 fb ff ff 	mov    QWORD PTR [rbp-0x4b0],rcx
    322b:	48 89 9d 58 fb ff ff 	mov    QWORD PTR [rbp-0x4a8],rbx
    3232:	eb 12                	jmp    3246 <_ZN9simulator7saveVtkER4mat2NSt7__cxx1112basic_stringIcSt11char_traitsIcESaIcEEE+0x496>
    3234:	48 89 8d 40 fb ff ff 	mov    QWORD PTR [rbp-0x4c0],rcx
    323b:	48 8b 48 10          	mov    rcx,QWORD PTR [rax+0x10]
    323f:	48 89 8d 50 fb ff ff 	mov    QWORD PTR [rbp-0x4b0],rcx
    3246:	48 8b 48 08          	mov    rcx,QWORD PTR [rax+0x8]
    324a:	48 89 8d 48 fb ff ff 	mov    QWORD PTR [rbp-0x4b8],rcx
    3251:	48 89 10             	mov    QWORD PTR [rax],rdx
    3254:	48 c7 40 08 00 00 00 	mov    QWORD PTR [rax+0x8],0x0
    325b:	00 
    325c:	c6 40 10 00          	mov    BYTE PTR [rax+0x10],0x0
    3260:	48 b8 ff ff ff ff ff 	movabs rax,0x7fffffffffffffff
    3267:	ff ff 7f 
    326a:	48 2b 85 48 fb ff ff 	sub    rax,QWORD PTR [rbp-0x4b8]
    3271:	48 83 f8 01          	cmp    rax,0x1
    3275:	77 0a                	ja     3281 <_ZN9simulator7saveVtkER4mat2NSt7__cxx1112basic_stringIcSt11char_traitsIcESaIcEEE+0x4d1>
    3277:	bf 00 00 00 00       	mov    edi,0x0
    327c:	e8 00 00 00 00       	call   3281 <_ZN9simulator7saveVtkER4mat2NSt7__cxx1112basic_stringIcSt11char_traitsIcESaIcEEE+0x4d1>
    3281:	ba 02 00 00 00       	mov    edx,0x2
    3286:	be 00 00 00 00       	mov    esi,0x0
    328b:	48 8d bd 40 fb ff ff 	lea    rdi,[rbp-0x4c0]
    3292:	e8 00 00 00 00       	call   3297 <_ZN9simulator7saveVtkER4mat2NSt7__cxx1112basic_stringIcSt11char_traitsIcESaIcEEE+0x4e7>
    3297:	48 8d 95 70 fb ff ff 	lea    rdx,[rbp-0x490]
    329e:	48 89 95 60 fb ff ff 	mov    QWORD PTR [rbp-0x4a0],rdx
    32a5:	48 8b 08             	mov    rcx,QWORD PTR [rax]
    32a8:	48 8d 50 10          	lea    rdx,[rax+0x10]
    32ac:	48 39 d1             	cmp    rcx,rdx
    32af:	75 18                	jne    32c9 <_ZN9simulator7saveVtkER4mat2NSt7__cxx1112basic_stringIcSt11char_traitsIcESaIcEEE+0x519>
    32b1:	48 8b 48 10          	mov    rcx,QWORD PTR [rax+0x10]
    32b5:	48 8b 58 18          	mov    rbx,QWORD PTR [rax+0x18]
    32b9:	48 89 8d 70 fb ff ff 	mov    QWORD PTR [rbp-0x490],rcx
    32c0:	48 89 9d 78 fb ff ff 	mov    QWORD PTR [rbp-0x488],rbx
    32c7:	eb 12                	jmp    32db <_ZN9simulator7saveVtkER4mat2NSt7__cxx1112basic_stringIcSt11char_traitsIcESaIcEEE+0x52b>
    32c9:	48 89 8d 60 fb ff ff 	mov    QWORD PTR [rbp-0x4a0],rcx
    32d0:	48 8b 48 10          	mov    rcx,QWORD PTR [rax+0x10]
    32d4:	48 89 8d 70 fb ff ff 	mov    QWORD PTR [rbp-0x490],rcx
    32db:	48 8b 48 08          	mov    rcx,QWORD PTR [rax+0x8]
    32df:	48 89 8d 68 fb ff ff 	mov    QWORD PTR [rbp-0x498],rcx
    32e6:	48 89 10             	mov    QWORD PTR [rax],rdx
    32e9:	48 c7 40 08 00 00 00 	mov    QWORD PTR [rax+0x8],0x0
    32f0:	00 
    32f1:	c6 40 10 00          	mov    BYTE PTR [rax+0x10],0x0
    32f5:	48 8d b5 60 fb ff ff 	lea    rsi,[rbp-0x4a0]
    32fc:	48 8d bd 80 fb ff ff 	lea    rdi,[rbp-0x480]
    3303:	e8 00 00 00 00       	call   3308 <_ZN9simulator7saveVtkER4mat2NSt7__cxx1112basic_stringIcSt11char_traitsIcESaIcEEE+0x558>
    3308:	48 8b bd 60 fb ff ff 	mov    rdi,QWORD PTR [rbp-0x4a0]
    330f:	48 8d 85 70 fb ff ff 	lea    rax,[rbp-0x490]
    3316:	48 39 c7             	cmp    rdi,rax
    3319:	74 05                	je     3320 <_ZN9simulator7saveVtkER4mat2NSt7__cxx1112basic_stringIcSt11char_traitsIcESaIcEEE+0x570>
    331b:	e8 00 00 00 00       	call   3320 <_ZN9simulator7saveVtkER4mat2NSt7__cxx1112basic_stringIcSt11char_traitsIcESaIcEEE+0x570>
    3320:	48 8b bd 40 fb ff ff 	mov    rdi,QWORD PTR [rbp-0x4c0]
    3327:	48 8d 85 50 fb ff ff 	lea    rax,[rbp-0x4b0]
    332e:	48 39 c7             	cmp    rdi,rax
    3331:	74 05                	je     3338 <_ZN9simulator7saveVtkER4mat2NSt7__cxx1112basic_stringIcSt11char_traitsIcESaIcEEE+0x588>
    3333:	e8 00 00 00 00       	call   3338 <_ZN9simulator7saveVtkER4mat2NSt7__cxx1112basic_stringIcSt11char_traitsIcESaIcEEE+0x588>
    3338:	48 8b bd 20 fb ff ff 	mov    rdi,QWORD PTR [rbp-0x4e0]
    333f:	48 8d 85 30 fb ff ff 	lea    rax,[rbp-0x4d0]
    3346:	48 39 c7             	cmp    rdi,rax
    3349:	74 05                	je     3350 <_ZN9simulator7saveVtkER4mat2NSt7__cxx1112basic_stringIcSt11char_traitsIcESaIcEEE+0x5a0>
    334b:	e8 00 00 00 00       	call   3350 <_ZN9simulator7saveVtkER4mat2NSt7__cxx1112basic_stringIcSt11char_traitsIcESaIcEEE+0x5a0>
    3350:	48 8b bd 00 fb ff ff 	mov    rdi,QWORD PTR [rbp-0x500]
    3357:	48 8d 85 10 fb ff ff 	lea    rax,[rbp-0x4f0]
    335e:	48 39 c7             	cmp    rdi,rax
    3361:	74 05                	je     3368 <_ZN9simulator7saveVtkER4mat2NSt7__cxx1112basic_stringIcSt11char_traitsIcESaIcEEE+0x5b8>
    3363:	e8 00 00 00 00       	call   3368 <_ZN9simulator7saveVtkER4mat2NSt7__cxx1112basic_stringIcSt11char_traitsIcESaIcEEE+0x5b8>
    3368:	48 8b bd 60 fa ff ff 	mov    rdi,QWORD PTR [rbp-0x5a0]
    336f:	48 8d 85 70 fa ff ff 	lea    rax,[rbp-0x590]
    3376:	48 39 c7             	cmp    rdi,rax
    3379:	74 05                	je     3380 <_ZN9simulator7saveVtkER4mat2NSt7__cxx1112basic_stringIcSt11char_traitsIcESaIcEEE+0x5d0>
    337b:	e8 00 00 00 00       	call   3380 <_ZN9simulator7saveVtkER4mat2NSt7__cxx1112basic_stringIcSt11char_traitsIcESaIcEEE+0x5d0>
    3380:	48 8b bd 80 fa ff ff 	mov    rdi,QWORD PTR [rbp-0x580]
    3387:	48 8d 85 90 fa ff ff 	lea    rax,[rbp-0x570]
    338e:	48 39 c7             	cmp    rdi,rax
    3391:	74 05                	je     3398 <_ZN9simulator7saveVtkER4mat2NSt7__cxx1112basic_stringIcSt11char_traitsIcESaIcEEE+0x5e8>
    3393:	e8 00 00 00 00       	call   3398 <_ZN9simulator7saveVtkER4mat2NSt7__cxx1112basic_stringIcSt11char_traitsIcESaIcEEE+0x5e8>
    3398:	48 8d bd 80 fb ff ff 	lea    rdi,[rbp-0x480]
    339f:	e8 00 00 00 00       	call   33a4 <_ZN9simulator7saveVtkER4mat2NSt7__cxx1112basic_stringIcSt11char_traitsIcESaIcEEE+0x5f4>
    33a4:	48 8d 85 a0 fa ff ff 	lea    rax,[rbp-0x560]
    33ab:	48 83 c0 10          	add    rax,0x10
    33af:	48 89 85 a0 fa ff ff 	mov    QWORD PTR [rbp-0x560],rax
    33b6:	48 83 ec 08          	sub    rsp,0x8
    33ba:	6a 00                	push   0x0
    33bc:	ba 00 00 00 00       	mov    edx,0x0
    33c1:	be 00 00 00 00       	mov    esi,0x0
    33c6:	48 8d bd a0 fa ff ff 	lea    rdi,[rbp-0x560]
    33cd:	e8 00 00 00 00       	call   33d2 <_ZN9simulator7saveVtkER4mat2NSt7__cxx1112basic_stringIcSt11char_traitsIcESaIcEEE+0x622>
    33d2:	48 83 c4 10          	add    rsp,0x10
    33d6:	48 8d b5 a0 fa ff ff 	lea    rsi,[rbp-0x560]
    33dd:	48 8d bd 80 fb ff ff 	lea    rdi,[rbp-0x480]
    33e4:	e8 00 00 00 00       	call   33e9 <_ZN9simulator7saveVtkER4mat2NSt7__cxx1112basic_stringIcSt11char_traitsIcESaIcEEE+0x639>
    33e9:	48 8b bd a0 fa ff ff 	mov    rdi,QWORD PTR [rbp-0x560]
    33f0:	48 8d 85 b0 fa ff ff 	lea    rax,[rbp-0x550]
    33f7:	48 39 c7             	cmp    rdi,rax
    33fa:	74 05                	je     3401 <_ZN9simulator7saveVtkER4mat2NSt7__cxx1112basic_stringIcSt11char_traitsIcESaIcEEE+0x651>
    33fc:	e8 00 00 00 00       	call   3401 <_ZN9simulator7saveVtkER4mat2NSt7__cxx1112basic_stringIcSt11char_traitsIcESaIcEEE+0x651>
    3401:	48 8d bd 80 fb ff ff 	lea    rdi,[rbp-0x480]
    3408:	e8 00 00 00 00       	call   340d <_ZN9simulator7saveVtkER4mat2NSt7__cxx1112basic_stringIcSt11char_traitsIcESaIcEEE+0x65d>
    340d:	f3 41 0f 5a 45 18    	cvtss2sd xmm0,DWORD PTR [r13+0x18]
    3413:	b9 00 00 00 00       	mov    ecx,0x0
    3418:	ba 3a 00 00 00       	mov    edx,0x3a
    341d:	be 00 00 00 00       	mov    esi,0x0
    3422:	48 8d bd e0 fa ff ff 	lea    rdi,[rbp-0x520]
    3429:	b8 01 00 00 00       	mov    eax,0x1
    342e:	e8 00 00 00 00       	call   3433 <_ZN9simulator7saveVtkER4mat2NSt7__cxx1112basic_stringIcSt11char_traitsIcESaIcEEE+0x683>
    3433:	f3 41 0f 5a 45 14    	cvtss2sd xmm0,DWORD PTR [r13+0x14]
    3439:	b9 00 00 00 00       	mov    ecx,0x0
    343e:	ba 3a 00 00 00       	mov    edx,0x3a
    3443:	be 00 00 00 00       	mov    esi,0x0
    3448:	48 8d bd c0 fa ff ff 	lea    rdi,[rbp-0x540]
    344f:	b8 01 00 00 00       	mov    eax,0x1
    3454:	e8 00 00 00 00       	call   3459 <_ZN9simulator7saveVtkER4mat2NSt7__cxx1112basic_stringIcSt11char_traitsIcESaIcEEE+0x6a9>
    3459:	41 b8 08 00 00 00    	mov    r8d,0x8
    345f:	b9 00 00 00 00       	mov    ecx,0x0
    3464:	ba 00 00 00 00       	mov    edx,0x0
    3469:	be 00 00 00 00       	mov    esi,0x0
    346e:	48 8d bd c0 fa ff ff 	lea    rdi,[rbp-0x540]
    3475:	e8 00 00 00 00       	call   347a <_ZN9simulator7saveVtkER4mat2NSt7__cxx1112basic_stringIcSt11char_traitsIcESaIcEEE+0x6ca>
    347a:	48 8d 95 10 fb ff ff 	lea    rdx,[rbp-0x4f0]
    3481:	48 89 95 00 fb ff ff 	mov    QWORD PTR [rbp-0x500],rdx
    3488:	48 8b 08             	mov    rcx,QWORD PTR [rax]
    348b:	48 8d 50 10          	lea    rdx,[rax+0x10]
    348f:	48 39 d1             	cmp    rcx,rdx
    3492:	75 18                	jne    34ac <_ZN9simulator7saveVtkER4mat2NSt7__cxx1112basic_stringIcSt11char_traitsIcESaIcEEE+0x6fc>
    3494:	48 8b 48 10          	mov    rcx,QWORD PTR [rax+0x10]
    3498:	48 8b 58 18          	mov    rbx,QWORD PTR [rax+0x18]
    349c:	48 89 8d 10 fb ff ff 	mov    QWORD PTR [rbp-0x4f0],rcx
    34a3:	48 89 9d 18 fb ff ff 	mov    QWORD PTR [rbp-0x4e8],rbx
    34aa:	eb 12                	jmp    34be <_ZN9simulator7saveVtkER4mat2NSt7__cxx1112basic_stringIcSt11char_traitsIcESaIcEEE+0x70e>
    34ac:	48 89 8d 00 fb ff ff 	mov    QWORD PTR [rbp-0x500],rcx
    34b3:	48 8b 48 10          	mov    rcx,QWORD PTR [rax+0x10]
    34b7:	48 89 8d 10 fb ff ff 	mov    QWORD PTR [rbp-0x4f0],rcx
    34be:	48 8b 48 08          	mov    rcx,QWORD PTR [rax+0x8]
    34c2:	48 89 8d 08 fb ff ff 	mov    QWORD PTR [rbp-0x4f8],rcx
    34c9:	48 89 10             	mov    QWORD PTR [rax],rdx
    34cc:	48 c7 40 08 00 00 00 	mov    QWORD PTR [rax+0x8],0x0
    34d3:	00 
    34d4:	c6 40 10 00          	mov    BYTE PTR [rax+0x10],0x0
    34d8:	48 b8 ff ff ff ff ff 	movabs rax,0x7fffffffffffffff
    34df:	ff ff 7f 
    34e2:	48 39 85 08 fb ff ff 	cmp    QWORD PTR [rbp-0x4f8],rax
    34e9:	75 0a                	jne    34f5 <_ZN9simulator7saveVtkER4mat2NSt7__cxx1112basic_stringIcSt11char_traitsIcESaIcEEE+0x745>
    34eb:	bf 00 00 00 00       	mov    edi,0x0
    34f0:	e8 00 00 00 00       	call   34f5 <_ZN9simulator7saveVtkER4mat2NSt7__cxx1112basic_stringIcSt11char_traitsIcESaIcEEE+0x745>
    34f5:	ba 01 00 00 00       	mov    edx,0x1
    34fa:	be 00 00 00 00       	mov    esi,0x0
    34ff:	48 8d bd 00 fb ff ff 	lea    rdi,[rbp-0x500]
    3506:	e8 00 00 00 00       	call   350b <_ZN9simulator7saveVtkER4mat2NSt7__cxx1112basic_stringIcSt11char_traitsIcESaIcEEE+0x75b>
    350b:	48 8d 95 30 fb ff ff 	lea    rdx,[rbp-0x4d0]
    3512:	48 89 95 20 fb ff ff 	mov    QWORD PTR [rbp-0x4e0],rdx
    3519:	48 8b 08             	mov    rcx,QWORD PTR [rax]
    351c:	48 8d 50 10          	lea    rdx,[rax+0x10]
    3520:	48 39 d1             	cmp    rcx,rdx
    3523:	75 18                	jne    353d <_ZN9simulator7saveVtkER4mat2NSt7__cxx1112basic_stringIcSt11char_traitsIcESaIcEEE+0x78d>
    3525:	48 8b 48 10          	mov    rcx,QWORD PTR [rax+0x10]
    3529:	48 8b 58 18          	mov    rbx,QWORD PTR [rax+0x18]
    352d:	48 89 8d 30 fb ff ff 	mov    QWORD PTR [rbp-0x4d0],rcx
    3534:	48 89 9d 38 fb ff ff 	mov    QWORD PTR [rbp-0x4c8],rbx
    353b:	eb 12                	jmp    354f <_ZN9simulator7saveVtkER4mat2NSt7__cxx1112basic_stringIcSt11char_traitsIcESaIcEEE+0x79f>
    353d:	48 89 8d 20 fb ff ff 	mov    QWORD PTR [rbp-0x4e0],rcx
    3544:	48 8b 48 10          	mov    rcx,QWORD PTR [rax+0x10]
    3548:	48 89 8d 30 fb ff ff 	mov    QWORD PTR [rbp-0x4d0],rcx
    354f:	48 8b 48 08          	mov    rcx,QWORD PTR [rax+0x8]
    3553:	48 89 8d 28 fb ff ff 	mov    QWORD PTR [rbp-0x4d8],rcx
    355a:	48 89 10             	mov    QWORD PTR [rax],rdx
    355d:	48 c7 40 08 00 00 00 	mov    QWORD PTR [rax+0x8],0x0
    3564:	00 
    3565:	c6 40 10 00          	mov    BYTE PTR [rax+0x10],0x0
    3569:	4c 8b 85 28 fb ff ff 	mov    r8,QWORD PTR [rbp-0x4d8]
    3570:	48 8b 95 e8 fa ff ff 	mov    rdx,QWORD PTR [rbp-0x518]
    3577:	49 8d 34 10          	lea    rsi,[r8+rdx*1]
    357b:	48 8b 8d 20 fb ff ff 	mov    rcx,QWORD PTR [rbp-0x4e0]
    3582:	48 8d 85 30 fb ff ff 	lea    rax,[rbp-0x4d0]
    3589:	48 39 c1             	cmp    rcx,rax
    358c:	74 09                	je     3597 <_ZN9simulator7saveVtkER4mat2NSt7__cxx1112basic_stringIcSt11char_traitsIcESaIcEEE+0x7e7>
    358e:	48 8b 85 30 fb ff ff 	mov    rax,QWORD PTR [rbp-0x4d0]
    3595:	eb 05                	jmp    359c <_ZN9simulator7saveVtkER4mat2NSt7__cxx1112basic_stringIcSt11char_traitsIcESaIcEEE+0x7ec>
    3597:	b8 0f 00 00 00       	mov    eax,0xf
    359c:	48 39 c6             	cmp    rsi,rax
    359f:	76 3b                	jbe    35dc <_ZN9simulator7saveVtkER4mat2NSt7__cxx1112basic_stringIcSt11char_traitsIcESaIcEEE+0x82c>
    35a1:	48 8d 85 f0 fa ff ff 	lea    rax,[rbp-0x510]
    35a8:	48 39 85 e0 fa ff ff 	cmp    QWORD PTR [rbp-0x520],rax
    35af:	74 09                	je     35ba <_ZN9simulator7saveVtkER4mat2NSt7__cxx1112basic_stringIcSt11char_traitsIcESaIcEEE+0x80a>
    35b1:	48 8b 85 f0 fa ff ff 	mov    rax,QWORD PTR [rbp-0x510]
    35b8:	eb 05                	jmp    35bf <_ZN9simulator7saveVtkER4mat2NSt7__cxx1112basic_stringIcSt11char_traitsIcESaIcEEE+0x80f>
    35ba:	b8 0f 00 00 00       	mov    eax,0xf
    35bf:	48 39 c6             	cmp    rsi,rax
    35c2:	77 18                	ja     35dc <_ZN9simulator7saveVtkER4mat2NSt7__cxx1112basic_stringIcSt11char_traitsIcESaIcEEE+0x82c>
    35c4:	ba 00 00 00 00       	mov    edx,0x0
    35c9:	be 00 00 00 00       	mov    esi,0x0
    35ce:	48 8d bd e0 fa ff ff 	lea    rdi,[rbp-0x520]
    35d5:	e8 00 00 00 00       	call   35da <_ZN9simulator7saveVtkER4mat2NSt7__cxx1112basic_stringIcSt11char_traitsIcESaIcEEE+0x82a>
    35da:	eb 13                	jmp    35ef <_ZN9simulator7saveVtkER4mat2NSt7__cxx1112basic_stringIcSt11char_traitsIcESaIcEEE+0x83f>
    35dc:	48 8b b5 e0 fa ff ff 	mov    rsi,QWORD PTR [rbp-0x520]
    35e3:	48 8d bd 20 fb ff ff 	lea    rdi,[rbp-0x4e0]
    35ea:	e8 00 00 00 00       	call   35ef <_ZN9simulator7saveVtkER4mat2NSt7__cxx1112basic_stringIcSt11char_traitsIcESaIcEEE+0x83f>
    35ef:	48 8d 95 50 fb ff ff 	lea    rdx,[rbp-0x4b0]
    35f6:	48 89 95 40 fb ff ff 	mov    QWORD PTR [rbp-0x4c0],rdx
    35fd:	48 8b 08             	mov    rcx,QWORD PTR [rax]
    3600:	48 8d 50 10          	lea    rdx,[rax+0x10]
    3604:	48 39 d1             	cmp    rcx,rdx
    3607:	75 18                	jne    3621 <_ZN9simulator7saveVtkER4mat2NSt7__cxx1112basic_stringIcSt11char_traitsIcESaIcEEE+0x871>
    3609:	48 8b 48 10          	mov    rcx,QWORD PTR [rax+0x10]
    360d:	48 8b 58 18          	mov    rbx,QWORD PTR [rax+0x18]
    3611:	48 89 8d 50 fb ff ff 	mov    QWORD PTR [rbp-0x4b0],rcx
    3618:	48 89 9d 58 fb ff ff 	mov    QWORD PTR [rbp-0x4a8],rbx
    361f:	eb 12                	jmp    3633 <_ZN9simulator7saveVtkER4mat2NSt7__cxx1112basic_stringIcSt11char_traitsIcESaIcEEE+0x883>
    3621:	48 89 8d 40 fb ff ff 	mov    QWORD PTR [rbp-0x4c0],rcx
    3628:	48 8b 48 10          	mov    rcx,QWORD PTR [rax+0x10]
    362c:	48 89 8d 50 fb ff ff 	mov    QWORD PTR [rbp-0x4b0],rcx
    3633:	48 8b 48 08          	mov    rcx,QWORD PTR [rax+0x8]
    3637:	48 89 8d 48 fb ff ff 	mov    QWORD PTR [rbp-0x4b8],rcx
    363e:	48 89 10             	mov    QWORD PTR [rax],rdx
    3641:	48 c7 40 08 00 00 00 	mov    QWORD PTR [rax+0x8],0x0
    3648:	00 
    3649:	c6 40 10 00          	mov    BYTE PTR [rax+0x10],0x0
    364d:	48 b8 ff ff ff ff ff 	movabs rax,0x7fffffffffffffff
    3654:	ff ff 7f 
    3657:	48 2b 85 48 fb ff ff 	sub    rax,QWORD PTR [rbp-0x4b8]
    365e:	48 83 f8 01          	cmp    rax,0x1
    3662:	77 0a                	ja     366e <_ZN9simulator7saveVtkER4mat2NSt7__cxx1112basic_stringIcSt11char_traitsIcESaIcEEE+0x8be>
    3664:	bf 00 00 00 00       	mov    edi,0x0
    3669:	e8 00 00 00 00       	call   366e <_ZN9simulator7saveVtkER4mat2NSt7__cxx1112basic_stringIcSt11char_traitsIcESaIcEEE+0x8be>
    366e:	ba 02 00 00 00       	mov    edx,0x2
    3673:	be 00 00 00 00       	mov    esi,0x0
    3678:	48 8d bd 40 fb ff ff 	lea    rdi,[rbp-0x4c0]
    367f:	e8 00 00 00 00       	call   3684 <_ZN9simulator7saveVtkER4mat2NSt7__cxx1112basic_stringIcSt11char_traitsIcESaIcEEE+0x8d4>
    3684:	48 8d 95 70 fb ff ff 	lea    rdx,[rbp-0x490]
    368b:	48 89 95 60 fb ff ff 	mov    QWORD PTR [rbp-0x4a0],rdx
    3692:	48 8b 08             	mov    rcx,QWORD PTR [rax]
    3695:	48 8d 50 10          	lea    rdx,[rax+0x10]
    3699:	48 39 d1             	cmp    rcx,rdx
    369c:	75 18                	jne    36b6 <_ZN9simulator7saveVtkER4mat2NSt7__cxx1112basic_stringIcSt11char_traitsIcESaIcEEE+0x906>
    369e:	48 8b 48 10          	mov    rcx,QWORD PTR [rax+0x10]
    36a2:	48 8b 58 18          	mov    rbx,QWORD PTR [rax+0x18]
    36a6:	48 89 8d 70 fb ff ff 	mov    QWORD PTR [rbp-0x490],rcx
    36ad:	48 89 9d 78 fb ff ff 	mov    QWORD PTR [rbp-0x488],rbx
    36b4:	eb 12                	jmp    36c8 <_ZN9simulator7saveVtkER4mat2NSt7__cxx1112basic_stringIcSt11char_traitsIcESaIcEEE+0x918>
    36b6:	48 89 8d 60 fb ff ff 	mov    QWORD PTR [rbp-0x4a0],rcx
    36bd:	48 8b 48 10          	mov    rcx,QWORD PTR [rax+0x10]
    36c1:	48 89 8d 70 fb ff ff 	mov    QWORD PTR [rbp-0x490],rcx
    36c8:	48 8b 48 08          	mov    rcx,QWORD PTR [rax+0x8]
    36cc:	48 89 8d 68 fb ff ff 	mov    QWORD PTR [rbp-0x498],rcx
    36d3:	48 89 10             	mov    QWORD PTR [rax],rdx
    36d6:	48 c7 40 08 00 00 00 	mov    QWORD PTR [rax+0x8],0x0
    36dd:	00 
    36de:	c6 40 10 00          	mov    BYTE PTR [rax+0x10],0x0
    36e2:	48 8d b5 60 fb ff ff 	lea    rsi,[rbp-0x4a0]
    36e9:	48 8d bd 80 fb ff ff 	lea    rdi,[rbp-0x480]
    36f0:	e8 00 00 00 00       	call   36f5 <_ZN9simulator7saveVtkER4mat2NSt7__cxx1112basic_stringIcSt11char_traitsIcESaIcEEE+0x945>
    36f5:	48 8b bd 60 fb ff ff 	mov    rdi,QWORD PTR [rbp-0x4a0]
    36fc:	48 8d 85 70 fb ff ff 	lea    rax,[rbp-0x490]
    3703:	48 39 c7             	cmp    rdi,rax
    3706:	74 05                	je     370d <_ZN9simulator7saveVtkER4mat2NSt7__cxx1112basic_stringIcSt11char_traitsIcESaIcEEE+0x95d>
    3708:	e8 00 00 00 00       	call   370d <_ZN9simulator7saveVtkER4mat2NSt7__cxx1112basic_stringIcSt11char_traitsIcESaIcEEE+0x95d>
    370d:	48 8b bd 40 fb ff ff 	mov    rdi,QWORD PTR [rbp-0x4c0]
    3714:	48 8d 85 50 fb ff ff 	lea    rax,[rbp-0x4b0]
    371b:	48 39 c7             	cmp    rdi,rax
    371e:	74 05                	je     3725 <_ZN9simulator7saveVtkER4mat2NSt7__cxx1112basic_stringIcSt11char_traitsIcESaIcEEE+0x975>
    3720:	e8 00 00 00 00       	call   3725 <_ZN9simulator7saveVtkER4mat2NSt7__cxx1112basic_stringIcSt11char_traitsIcESaIcEEE+0x975>
    3725:	48 8b bd 20 fb ff ff 	mov    rdi,QWORD PTR [rbp-0x4e0]
    372c:	48 8d 85 30 fb ff ff 	lea    rax,[rbp-0x4d0]
    3733:	48 39 c7             	cmp    rdi,rax
    3736:	74 05                	je     373d <_ZN9simulator7saveVtkER4mat2NSt7__cxx1112basic_stringIcSt11char_traitsIcESaIcEEE+0x98d>
    3738:	e8 00 00 00 00       	call   373d <_ZN9simulator7saveVtkER4mat2NSt7__cxx1112basic_stringIcSt11char_traitsIcESaIcEEE+0x98d>
    373d:	48 8b bd 00 fb ff ff 	mov    rdi,QWORD PTR [rbp-0x500]
    3744:	48 8d 85 10 fb ff ff 	lea    rax,[rbp-0x4f0]
    374b:	48 39 c7             	cmp    rdi,rax
    374e:	74 05                	je     3755 <_ZN9simulator7saveVtkER4mat2NSt7__cxx1112basic_stringIcSt11char_traitsIcESaIcEEE+0x9a5>
    3750:	e8 00 00 00 00       	call   3755 <_ZN9simulator7saveVtkER4mat2NSt7__cxx1112basic_stringIcSt11char_traitsIcESaIcEEE+0x9a5>
    3755:	48 8b bd c0 fa ff ff 	mov    rdi,QWORD PTR [rbp-0x540]
    375c:	48 8d 85 d0 fa ff ff 	lea    rax,[rbp-0x530]
    3763:	48 39 c7             	cmp    rdi,rax
    3766:	74 05                	je     376d <_ZN9simulator7saveVtkER4mat2NSt7__cxx1112basic_stringIcSt11char_traitsIcESaIcEEE+0x9bd>
    3768:	e8 00 00 00 00       	call   376d <_ZN9simulator7saveVtkER4mat2NSt7__cxx1112basic_stringIcSt11char_traitsIcESaIcEEE+0x9bd>
    376d:	48 8b bd e0 fa ff ff 	mov    rdi,QWORD PTR [rbp-0x520]
    3774:	48 8d 85 f0 fa ff ff 	lea    rax,[rbp-0x510]
    377b:	48 39 c7             	cmp    rdi,rax
    377e:	74 05                	je     3785 <_ZN9simulator7saveVtkER4mat2NSt7__cxx1112basic_stringIcSt11char_traitsIcESaIcEEE+0x9d5>
    3780:	e8 00 00 00 00       	call   3785 <_ZN9simulator7saveVtkER4mat2NSt7__cxx1112basic_stringIcSt11char_traitsIcESaIcEEE+0x9d5>
    3785:	48 8d bd 80 fb ff ff 	lea    rdi,[rbp-0x480]
    378c:	e8 00 00 00 00       	call   3791 <_ZN9simulator7saveVtkER4mat2NSt7__cxx1112basic_stringIcSt11char_traitsIcESaIcEEE+0x9e1>
    3791:	45 8b 45 24          	mov    r8d,DWORD PTR [r13+0x24]
    3795:	45 0f af 45 28       	imul   r8d,DWORD PTR [r13+0x28]
    379a:	b9 00 00 00 00       	mov    ecx,0x0
    379f:	ba 10 00 00 00       	mov    edx,0x10
    37a4:	be 00 00 00 00       	mov    esi,0x0
    37a9:	48 8d bd 00 fb ff ff 	lea    rdi,[rbp-0x500]
    37b0:	b8 00 00 00 00       	mov    eax,0x0
    37b5:	e8 00 00 00 00       	call   37ba <_ZN9simulator7saveVtkER4mat2NSt7__cxx1112basic_stringIcSt11char_traitsIcESaIcEEE+0xa0a>
    37ba:	41 b8 0b 00 00 00    	mov    r8d,0xb
    37c0:	b9 00 00 00 00       	mov    ecx,0x0
    37c5:	ba 00 00 00 00       	mov    edx,0x0
    37ca:	be 00 00 00 00       	mov    esi,0x0
    37cf:	48 8d bd 00 fb ff ff 	lea    rdi,[rbp-0x500]
    37d6:	e8 00 00 00 00       	call   37db <_ZN9simulator7saveVtkER4mat2NSt7__cxx1112basic_stringIcSt11char_traitsIcESaIcEEE+0xa2b>
    37db:	48 8d 95 70 fb ff ff 	lea    rdx,[rbp-0x490]
    37e2:	48 89 95 60 fb ff ff 	mov    QWORD PTR [rbp-0x4a0],rdx
    37e9:	48 8b 08             	mov    rcx,QWORD PTR [rax]
    37ec:	48 8d 50 10          	lea    rdx,[rax+0x10]
    37f0:	48 39 d1             	cmp    rcx,rdx
    37f3:	75 18                	jne    380d <_ZN9simulator7saveVtkER4mat2NSt7__cxx1112basic_stringIcSt11char_traitsIcESaIcEEE+0xa5d>
    37f5:	48 8b 48 10          	mov    rcx,QWORD PTR [rax+0x10]
    37f9:	48 8b 58 18          	mov    rbx,QWORD PTR [rax+0x18]
    37fd:	48 89 8d 70 fb ff ff 	mov    QWORD PTR [rbp-0x490],rcx
    3804:	48 89 9d 78 fb ff ff 	mov    QWORD PTR [rbp-0x488],rbx
    380b:	eb 12                	jmp    381f <_ZN9simulator7saveVtkER4mat2NSt7__cxx1112basic_stringIcSt11char_traitsIcESaIcEEE+0xa6f>
    380d:	48 89 8d 60 fb ff ff 	mov    QWORD PTR [rbp-0x4a0],rcx
    3814:	48 8b 48 10          	mov    rcx,QWORD PTR [rax+0x10]
    3818:	48 89 8d 70 fb ff ff 	mov    QWORD PTR [rbp-0x490],rcx
    381f:	48 8b 48 08          	mov    rcx,QWORD PTR [rax+0x8]
    3823:	48 89 8d 68 fb ff ff 	mov    QWORD PTR [rbp-0x498],rcx
    382a:	48 89 10             	mov    QWORD PTR [rax],rdx
    382d:	48 c7 40 08 00 00 00 	mov    QWORD PTR [rax+0x8],0x0
    3834:	00 
    3835:	c6 40 10 00          	mov    BYTE PTR [rax+0x10],0x0
    3839:	48 8d b5 60 fb ff ff 	lea    rsi,[rbp-0x4a0]
    3840:	48 8d bd 80 fb ff ff 	lea    rdi,[rbp-0x480]
    3847:	e8 00 00 00 00       	call   384c <_ZN9simulator7saveVtkER4mat2NSt7__cxx1112basic_stringIcSt11char_traitsIcESaIcEEE+0xa9c>
    384c:	48 8b bd 60 fb ff ff 	mov    rdi,QWORD PTR [rbp-0x4a0]
    3853:	48 8d 85 70 fb ff ff 	lea    rax,[rbp-0x490]
    385a:	48 39 c7             	cmp    rdi,rax
    385d:	74 05                	je     3864 <_ZN9simulator7saveVtkER4mat2NSt7__cxx1112basic_stringIcSt11char_traitsIcESaIcEEE+0xab4>
    385f:	e8 00 00 00 00       	call   3864 <_ZN9simulator7saveVtkER4mat2NSt7__cxx1112basic_stringIcSt11char_traitsIcESaIcEEE+0xab4>
    3864:	48 8b bd 00 fb ff ff 	mov    rdi,QWORD PTR [rbp-0x500]
    386b:	48 8d 85 10 fb ff ff 	lea    rax,[rbp-0x4f0]
    3872:	48 39 c7             	cmp    rdi,rax
    3875:	74 05                	je     387c <_ZN9simulator7saveVtkER4mat2NSt7__cxx1112basic_stringIcSt11char_traitsIcESaIcEEE+0xacc>
    3877:	e8 00 00 00 00       	call   387c <_ZN9simulator7saveVtkER4mat2NSt7__cxx1112basic_stringIcSt11char_traitsIcESaIcEEE+0xacc>
    387c:	48 8d bd 80 fb ff ff 	lea    rdi,[rbp-0x480]
    3883:	e8 00 00 00 00       	call   3888 <_ZN9simulator7saveVtkER4mat2NSt7__cxx1112basic_stringIcSt11char_traitsIcESaIcEEE+0xad8>
    3888:	48 8d 85 20 fb ff ff 	lea    rax,[rbp-0x4e0]
    388f:	48 83 c0 10          	add    rax,0x10
    3893:	48 89 85 20 fb ff ff 	mov    QWORD PTR [rbp-0x4e0],rax
    389a:	48 83 ec 08          	sub    rsp,0x8
    389e:	6a 00                	push   0x0
    38a0:	ba 00 00 00 00       	mov    edx,0x0
    38a5:	be 00 00 00 00       	mov    esi,0x0
    38aa:	48 8d bd 20 fb ff ff 	lea    rdi,[rbp-0x4e0]
    38b1:	e8 00 00 00 00       	call   38b6 <_ZN9simulator7saveVtkER4mat2NSt7__cxx1112basic_stringIcSt11char_traitsIcESaIcEEE+0xb06>
    38b6:	48 83 c4 10          	add    rsp,0x10
    38ba:	48 8d b5 20 fb ff ff 	lea    rsi,[rbp-0x4e0]
    38c1:	48 8d bd 80 fb ff ff 	lea    rdi,[rbp-0x480]
    38c8:	e8 00 00 00 00       	call   38cd <_ZN9simulator7saveVtkER4mat2NSt7__cxx1112basic_stringIcSt11char_traitsIcESaIcEEE+0xb1d>
    38cd:	48 8b bd 20 fb ff ff 	mov    rdi,QWORD PTR [rbp-0x4e0]
    38d4:	48 8d 85 30 fb ff ff 	lea    rax,[rbp-0x4d0]
    38db:	48 39 c7             	cmp    rdi,rax
    38de:	74 05                	je     38e5 <_ZN9simulator7saveVtkER4mat2NSt7__cxx1112basic_stringIcSt11char_traitsIcESaIcEEE+0xb35>
    38e0:	e8 00 00 00 00       	call   38e5 <_ZN9simulator7saveVtkER4mat2NSt7__cxx1112basic_stringIcSt11char_traitsIcESaIcEEE+0xb35>
    38e5:	48 8d bd 80 fb ff ff 	lea    rdi,[rbp-0x480]
    38ec:	e8 00 00 00 00       	call   38f1 <_ZN9simulator7saveVtkER4mat2NSt7__cxx1112basic_stringIcSt11char_traitsIcESaIcEEE+0xb41>
    38f1:	48 8d 85 40 fb ff ff 	lea    rax,[rbp-0x4c0]
    38f8:	48 83 c0 10          	add    rax,0x10
    38fc:	48 89 85 40 fb ff ff 	mov    QWORD PTR [rbp-0x4c0],rax
    3903:	48 83 ec 08          	sub    rsp,0x8
    3907:	6a 00                	push   0x0
    3909:	ba 00 00 00 00       	mov    edx,0x0
    390e:	be 00 00 00 00       	mov    esi,0x0
    3913:	48 8d bd 40 fb ff ff 	lea    rdi,[rbp-0x4c0]
    391a:	e8 00 00 00 00       	call   391f <_ZN9simulator7saveVtkER4mat2NSt7__cxx1112basic_stringIcSt11char_traitsIcESaIcEEE+0xb6f>
    391f:	48 83 c4 10          	add    rsp,0x10
    3923:	48 8d b5 40 fb ff ff 	lea    rsi,[rbp-0x4c0]
    392a:	48 8d bd 80 fb ff ff 	lea    rdi,[rbp-0x480]
    3931:	e8 00 00 00 00       	call   3936 <_ZN9simulator7saveVtkER4mat2NSt7__cxx1112basic_stringIcSt11char_traitsIcESaIcEEE+0xb86>
    3936:	48 8b bd 40 fb ff ff 	mov    rdi,QWORD PTR [rbp-0x4c0]
    393d:	48 8d 85 50 fb ff ff 	lea    rax,[rbp-0x4b0]
    3944:	48 39 c7             	cmp    rdi,rax
    3947:	74 05                	je     394e <_ZN9simulator7saveVtkER4mat2NSt7__cxx1112basic_stringIcSt11char_traitsIcESaIcEEE+0xb9e>
    3949:	e8 00 00 00 00       	call   394e <_ZN9simulator7saveVtkER4mat2NSt7__cxx1112basic_stringIcSt11char_traitsIcESaIcEEE+0xb9e>
    394e:	48 8d bd 80 fb ff ff 	lea    rdi,[rbp-0x480]
    3955:	e8 00 00 00 00       	call   395a <_ZN9simulator7saveVtkER4mat2NSt7__cxx1112basic_stringIcSt11char_traitsIcESaIcEEE+0xbaa>
    395a:	41 83 7d 24 00       	cmp    DWORD PTR [r13+0x24],0x0
    395f:	0f 8e 9b 00 00 00    	jle    3a00 <_ZN9simulator7saveVtkER4mat2NSt7__cxx1112basic_stringIcSt11char_traitsIcESaIcEEE+0xc50>
    3965:	41 bc 00 00 00 00    	mov    r12d,0x0
    396b:	48 8d 85 60 fb ff ff 	lea    rax,[rbp-0x4a0]
    3972:	48 83 c0 10          	add    rax,0x10
    3976:	49 89 c7             	mov    r15,rax
    3979:	41 83 7d 28 00       	cmp    DWORD PTR [r13+0x28],0x0
    397e:	7e 72                	jle    39f2 <_ZN9simulator7saveVtkER4mat2NSt7__cxx1112basic_stringIcSt11char_traitsIcESaIcEEE+0xc42>
    3980:	bb 00 00 00 00       	mov    ebx,0x0
    3985:	89 da                	mov    edx,ebx
    3987:	44 89 e6             	mov    esi,r12d
    398a:	4c 89 f7             	mov    rdi,r14
    398d:	e8 00 00 00 00       	call   3992 <_ZN9simulator7saveVtkER4mat2NSt7__cxx1112basic_stringIcSt11char_traitsIcESaIcEEE+0xbe2>
    3992:	48 8d bd 80 fb ff ff 	lea    rdi,[rbp-0x480]
    3999:	e8 00 00 00 00       	call   399e <_ZN9simulator7saveVtkER4mat2NSt7__cxx1112basic_stringIcSt11char_traitsIcESaIcEEE+0xbee>
    399e:	4c 89 bd 60 fb ff ff 	mov    QWORD PTR [rbp-0x4a0],r15
    39a5:	48 83 ec 08          	sub    rsp,0x8
    39a9:	6a 00                	push   0x0
    39ab:	ba 00 00 00 00       	mov    edx,0x0
    39b0:	be 00 00 00 00       	mov    esi,0x0
    39b5:	48 8d bd 60 fb ff ff 	lea    rdi,[rbp-0x4a0]
    39bc:	e8 00 00 00 00       	call   39c1 <_ZN9simulator7saveVtkER4mat2NSt7__cxx1112basic_stringIcSt11char_traitsIcESaIcEEE+0xc11>
    39c1:	48 83 c4 10          	add    rsp,0x10
    39c5:	48 8d b5 60 fb ff ff 	lea    rsi,[rbp-0x4a0]
    39cc:	48 8d bd 80 fb ff ff 	lea    rdi,[rbp-0x480]
    39d3:	e8 00 00 00 00       	call   39d8 <_ZN9simulator7saveVtkER4mat2NSt7__cxx1112basic_stringIcSt11char_traitsIcESaIcEEE+0xc28>
    39d8:	48 8b bd 60 fb ff ff 	mov    rdi,QWORD PTR [rbp-0x4a0]
    39df:	4c 39 ff             	cmp    rdi,r15
    39e2:	74 05                	je     39e9 <_ZN9simulator7saveVtkER4mat2NSt7__cxx1112basic_stringIcSt11char_traitsIcESaIcEEE+0xc39>
    39e4:	e8 00 00 00 00       	call   39e9 <_ZN9simulator7saveVtkER4mat2NSt7__cxx1112basic_stringIcSt11char_traitsIcESaIcEEE+0xc39>
    39e9:	83 c3 01             	add    ebx,0x1
    39ec:	41 39 5d 28          	cmp    DWORD PTR [r13+0x28],ebx
    39f0:	7f 93                	jg     3985 <_ZN9simulator7saveVtkER4mat2NSt7__cxx1112basic_stringIcSt11char_traitsIcESaIcEEE+0xbd5>
    39f2:	41 83 c4 01          	add    r12d,0x1
    39f6:	45 39 65 24          	cmp    DWORD PTR [r13+0x24],r12d
    39fa:	0f 8f 79 ff ff ff    	jg     3979 <_ZN9simulator7saveVtkER4mat2NSt7__cxx1112basic_stringIcSt11char_traitsIcESaIcEEE+0xbc9>
    3a00:	48 8d bd 80 fb ff ff 	lea    rdi,[rbp-0x480]
    3a07:	e8 00 00 00 00       	call   3a0c <_ZN9simulator7saveVtkER4mat2NSt7__cxx1112basic_stringIcSt11char_traitsIcESaIcEEE+0xc5c>
    3a0c:	48 8d bd 80 fb ff ff 	lea    rdi,[rbp-0x480]
    3a13:	e8 00 00 00 00       	call   3a18 <_ZN9simulator7saveVtkER4mat2NSt7__cxx1112basic_stringIcSt11char_traitsIcESaIcEEE+0xc68>
    3a18:	48 8b 45 c8          	mov    rax,QWORD PTR [rbp-0x38]
    3a1c:	64 48 33 04 25 28 00 	xor    rax,QWORD PTR fs:0x28
    3a23:	00 00 
    3a25:	0f 84 10 03 00 00    	je     3d3b <_ZN9simulator7saveVtkER4mat2NSt7__cxx1112basic_stringIcSt11char_traitsIcESaIcEEE+0xf8b>
    3a2b:	e9 06 03 00 00       	jmp    3d36 <_ZN9simulator7saveVtkER4mat2NSt7__cxx1112basic_stringIcSt11char_traitsIcESaIcEEE+0xf86>
    3a30:	48 89 c3             	mov    rbx,rax
    3a33:	48 8b bd 40 fb ff ff 	mov    rdi,QWORD PTR [rbp-0x4c0]
    3a3a:	48 8d 85 50 fb ff ff 	lea    rax,[rbp-0x4b0]
    3a41:	48 39 c7             	cmp    rdi,rax
    3a44:	74 0a                	je     3a50 <_ZN9simulator7saveVtkER4mat2NSt7__cxx1112basic_stringIcSt11char_traitsIcESaIcEEE+0xca0>
    3a46:	e8 00 00 00 00       	call   3a4b <_ZN9simulator7saveVtkER4mat2NSt7__cxx1112basic_stringIcSt11char_traitsIcESaIcEEE+0xc9b>
    3a4b:	eb 03                	jmp    3a50 <_ZN9simulator7saveVtkER4mat2NSt7__cxx1112basic_stringIcSt11char_traitsIcESaIcEEE+0xca0>
    3a4d:	48 89 c3             	mov    rbx,rax
    3a50:	48 8b bd 60 fb ff ff 	mov    rdi,QWORD PTR [rbp-0x4a0]
    3a57:	48 8d 85 70 fb ff ff 	lea    rax,[rbp-0x490]
    3a5e:	48 39 c7             	cmp    rdi,rax
    3a61:	74 05                	je     3a68 <_ZN9simulator7saveVtkER4mat2NSt7__cxx1112basic_stringIcSt11char_traitsIcESaIcEEE+0xcb8>
    3a63:	e8 00 00 00 00       	call   3a68 <_ZN9simulator7saveVtkER4mat2NSt7__cxx1112basic_stringIcSt11char_traitsIcESaIcEEE+0xcb8>
    3a68:	48 89 df             	mov    rdi,rbx
    3a6b:	e8 00 00 00 00       	call   3a70 <_ZN9simulator7saveVtkER4mat2NSt7__cxx1112basic_stringIcSt11char_traitsIcESaIcEEE+0xcc0>
    3a70:	48 89 c3             	mov    rbx,rax
    3a73:	48 8b bd e0 f9 ff ff 	mov    rdi,QWORD PTR [rbp-0x620]
    3a7a:	48 8d 85 f0 f9 ff ff 	lea    rax,[rbp-0x610]
    3a81:	48 39 c7             	cmp    rdi,rax
    3a84:	0f 84 98 02 00 00    	je     3d22 <_ZN9simulator7saveVtkER4mat2NSt7__cxx1112basic_stringIcSt11char_traitsIcESaIcEEE+0xf72>
    3a8a:	e8 00 00 00 00       	call   3a8f <_ZN9simulator7saveVtkER4mat2NSt7__cxx1112basic_stringIcSt11char_traitsIcESaIcEEE+0xcdf>
    3a8f:	e9 8e 02 00 00       	jmp    3d22 <_ZN9simulator7saveVtkER4mat2NSt7__cxx1112basic_stringIcSt11char_traitsIcESaIcEEE+0xf72>
    3a94:	48 89 c3             	mov    rbx,rax
    3a97:	48 8b bd 00 fa ff ff 	mov    rdi,QWORD PTR [rbp-0x600]
    3a9e:	48 8d 85 10 fa ff ff 	lea    rax,[rbp-0x5f0]
    3aa5:	48 39 c7             	cmp    rdi,rax
    3aa8:	0f 84 74 02 00 00    	je     3d22 <_ZN9simulator7saveVtkER4mat2NSt7__cxx1112basic_stringIcSt11char_traitsIcESaIcEEE+0xf72>
    3aae:	e8 00 00 00 00       	call   3ab3 <_ZN9simulator7saveVtkER4mat2NSt7__cxx1112basic_stringIcSt11char_traitsIcESaIcEEE+0xd03>
    3ab3:	e9 6a 02 00 00       	jmp    3d22 <_ZN9simulator7saveVtkER4mat2NSt7__cxx1112basic_stringIcSt11char_traitsIcESaIcEEE+0xf72>
    3ab8:	48 89 c3             	mov    rbx,rax
    3abb:	48 8b bd 20 fa ff ff 	mov    rdi,QWORD PTR [rbp-0x5e0]
    3ac2:	48 8d 85 30 fa ff ff 	lea    rax,[rbp-0x5d0]
    3ac9:	48 39 c7             	cmp    rdi,rax
    3acc:	0f 84 50 02 00 00    	je     3d22 <_ZN9simulator7saveVtkER4mat2NSt7__cxx1112basic_stringIcSt11char_traitsIcESaIcEEE+0xf72>
    3ad2:	e8 00 00 00 00       	call   3ad7 <_ZN9simulator7saveVtkER4mat2NSt7__cxx1112basic_stringIcSt11char_traitsIcESaIcEEE+0xd27>
    3ad7:	e9 46 02 00 00       	jmp    3d22 <_ZN9simulator7saveVtkER4mat2NSt7__cxx1112basic_stringIcSt11char_traitsIcESaIcEEE+0xf72>
    3adc:	48 89 c3             	mov    rbx,rax
    3adf:	48 8b bd 40 fa ff ff 	mov    rdi,QWORD PTR [rbp-0x5c0]
    3ae6:	48 8d 85 50 fa ff ff 	lea    rax,[rbp-0x5b0]
    3aed:	48 39 c7             	cmp    rdi,rax
    3af0:	0f 84 2c 02 00 00    	je     3d22 <_ZN9simulator7saveVtkER4mat2NSt7__cxx1112basic_stringIcSt11char_traitsIcESaIcEEE+0xf72>
    3af6:	e8 00 00 00 00       	call   3afb <_ZN9simulator7saveVtkER4mat2NSt7__cxx1112basic_stringIcSt11char_traitsIcESaIcEEE+0xd4b>
    3afb:	e9 22 02 00 00       	jmp    3d22 <_ZN9simulator7saveVtkER4mat2NSt7__cxx1112basic_stringIcSt11char_traitsIcESaIcEEE+0xf72>
    3b00:	48 89 c3             	mov    rbx,rax
    3b03:	48 8b bd 60 fb ff ff 	mov    rdi,QWORD PTR [rbp-0x4a0]
    3b0a:	48 8d 85 70 fb ff ff 	lea    rax,[rbp-0x490]
    3b11:	48 39 c7             	cmp    rdi,rax
    3b14:	74 0a                	je     3b20 <_ZN9simulator7saveVtkER4mat2NSt7__cxx1112basic_stringIcSt11char_traitsIcESaIcEEE+0xd70>
    3b16:	e8 00 00 00 00       	call   3b1b <_ZN9simulator7saveVtkER4mat2NSt7__cxx1112basic_stringIcSt11char_traitsIcESaIcEEE+0xd6b>
    3b1b:	eb 03                	jmp    3b20 <_ZN9simulator7saveVtkER4mat2NSt7__cxx1112basic_stringIcSt11char_traitsIcESaIcEEE+0xd70>
    3b1d:	48 89 c3             	mov    rbx,rax
    3b20:	48 8b bd 40 fb ff ff 	mov    rdi,QWORD PTR [rbp-0x4c0]
    3b27:	48 8d 85 50 fb ff ff 	lea    rax,[rbp-0x4b0]
    3b2e:	48 39 c7             	cmp    rdi,rax
    3b31:	74 0a                	je     3b3d <_ZN9simulator7saveVtkER4mat2NSt7__cxx1112basic_stringIcSt11char_traitsIcESaIcEEE+0xd8d>
    3b33:	e8 00 00 00 00       	call   3b38 <_ZN9simulator7saveVtkER4mat2NSt7__cxx1112basic_stringIcSt11char_traitsIcESaIcEEE+0xd88>
    3b38:	eb 03                	jmp    3b3d <_ZN9simulator7saveVtkER4mat2NSt7__cxx1112basic_stringIcSt11char_traitsIcESaIcEEE+0xd8d>
    3b3a:	48 89 c3             	mov    rbx,rax
    3b3d:	48 8b bd 20 fb ff ff 	mov    rdi,QWORD PTR [rbp-0x4e0]
    3b44:	48 8d 85 30 fb ff ff 	lea    rax,[rbp-0x4d0]
    3b4b:	48 39 c7             	cmp    rdi,rax
    3b4e:	74 0a                	je     3b5a <_ZN9simulator7saveVtkER4mat2NSt7__cxx1112basic_stringIcSt11char_traitsIcESaIcEEE+0xdaa>
    3b50:	e8 00 00 00 00       	call   3b55 <_ZN9simulator7saveVtkER4mat2NSt7__cxx1112basic_stringIcSt11char_traitsIcESaIcEEE+0xda5>
    3b55:	eb 03                	jmp    3b5a <_ZN9simulator7saveVtkER4mat2NSt7__cxx1112basic_stringIcSt11char_traitsIcESaIcEEE+0xdaa>
    3b57:	48 89 c3             	mov    rbx,rax
    3b5a:	48 8b bd 00 fb ff ff 	mov    rdi,QWORD PTR [rbp-0x500]
    3b61:	48 8d 85 10 fb ff ff 	lea    rax,[rbp-0x4f0]
    3b68:	48 39 c7             	cmp    rdi,rax
    3b6b:	74 0a                	je     3b77 <_ZN9simulator7saveVtkER4mat2NSt7__cxx1112basic_stringIcSt11char_traitsIcESaIcEEE+0xdc7>
    3b6d:	e8 00 00 00 00       	call   3b72 <_ZN9simulator7saveVtkER4mat2NSt7__cxx1112basic_stringIcSt11char_traitsIcESaIcEEE+0xdc2>
    3b72:	eb 03                	jmp    3b77 <_ZN9simulator7saveVtkER4mat2NSt7__cxx1112basic_stringIcSt11char_traitsIcESaIcEEE+0xdc7>
    3b74:	48 89 c3             	mov    rbx,rax
    3b77:	48 8b bd 60 fa ff ff 	mov    rdi,QWORD PTR [rbp-0x5a0]
    3b7e:	48 8d 85 70 fa ff ff 	lea    rax,[rbp-0x590]
    3b85:	48 39 c7             	cmp    rdi,rax
    3b88:	74 0a                	je     3b94 <_ZN9simulator7saveVtkER4mat2NSt7__cxx1112basic_stringIcSt11char_traitsIcESaIcEEE+0xde4>
    3b8a:	e8 00 00 00 00       	call   3b8f <_ZN9simulator7saveVtkER4mat2NSt7__cxx1112basic_stringIcSt11char_traitsIcESaIcEEE+0xddf>
    3b8f:	eb 03                	jmp    3b94 <_ZN9simulator7saveVtkER4mat2NSt7__cxx1112basic_stringIcSt11char_traitsIcESaIcEEE+0xde4>
    3b91:	48 89 c3             	mov    rbx,rax
    3b94:	48 8b bd 80 fa ff ff 	mov    rdi,QWORD PTR [rbp-0x580]
    3b9b:	48 8d 85 90 fa ff ff 	lea    rax,[rbp-0x570]
    3ba2:	48 39 c7             	cmp    rdi,rax
    3ba5:	0f 84 77 01 00 00    	je     3d22 <_ZN9simulator7saveVtkER4mat2NSt7__cxx1112basic_stringIcSt11char_traitsIcESaIcEEE+0xf72>
    3bab:	e8 00 00 00 00       	call   3bb0 <_ZN9simulator7saveVtkER4mat2NSt7__cxx1112basic_stringIcSt11char_traitsIcESaIcEEE+0xe00>
    3bb0:	e9 6d 01 00 00       	jmp    3d22 <_ZN9simulator7saveVtkER4mat2NSt7__cxx1112basic_stringIcSt11char_traitsIcESaIcEEE+0xf72>
    3bb5:	48 89 c3             	mov    rbx,rax
    3bb8:	48 8b bd a0 fa ff ff 	mov    rdi,QWORD PTR [rbp-0x560]
    3bbf:	48 8d 85 b0 fa ff ff 	lea    rax,[rbp-0x550]
    3bc6:	48 39 c7             	cmp    rdi,rax
    3bc9:	0f 84 53 01 00 00    	je     3d22 <_ZN9simulator7saveVtkER4mat2NSt7__cxx1112basic_stringIcSt11char_traitsIcESaIcEEE+0xf72>
    3bcf:	e8 00 00 00 00       	call   3bd4 <_ZN9simulator7saveVtkER4mat2NSt7__cxx1112basic_stringIcSt11char_traitsIcESaIcEEE+0xe24>
    3bd4:	e9 49 01 00 00       	jmp    3d22 <_ZN9simulator7saveVtkER4mat2NSt7__cxx1112basic_stringIcSt11char_traitsIcESaIcEEE+0xf72>
    3bd9:	48 89 c3             	mov    rbx,rax
    3bdc:	48 8b bd 60 fb ff ff 	mov    rdi,QWORD PTR [rbp-0x4a0]
    3be3:	48 8d 85 70 fb ff ff 	lea    rax,[rbp-0x490]
    3bea:	48 39 c7             	cmp    rdi,rax
    3bed:	74 0a                	je     3bf9 <_ZN9simulator7saveVtkER4mat2NSt7__cxx1112basic_stringIcSt11char_traitsIcESaIcEEE+0xe49>
    3bef:	e8 00 00 00 00       	call   3bf4 <_ZN9simulator7saveVtkER4mat2NSt7__cxx1112basic_stringIcSt11char_traitsIcESaIcEEE+0xe44>
    3bf4:	eb 03                	jmp    3bf9 <_ZN9simulator7saveVtkER4mat2NSt7__cxx1112basic_stringIcSt11char_traitsIcESaIcEEE+0xe49>
    3bf6:	48 89 c3             	mov    rbx,rax
    3bf9:	48 8b bd 40 fb ff ff 	mov    rdi,QWORD PTR [rbp-0x4c0]
    3c00:	48 8d 85 50 fb ff ff 	lea    rax,[rbp-0x4b0]
    3c07:	48 39 c7             	cmp    rdi,rax
    3c0a:	74 0a                	je     3c16 <_ZN9simulator7saveVtkER4mat2NSt7__cxx1112basic_stringIcSt11char_traitsIcESaIcEEE+0xe66>
    3c0c:	e8 00 00 00 00       	call   3c11 <_ZN9simulator7saveVtkER4mat2NSt7__cxx1112basic_stringIcSt11char_traitsIcESaIcEEE+0xe61>
    3c11:	eb 03                	jmp    3c16 <_ZN9simulator7saveVtkER4mat2NSt7__cxx1112basic_stringIcSt11char_traitsIcESaIcEEE+0xe66>
    3c13:	48 89 c3             	mov    rbx,rax
    3c16:	48 8b bd 20 fb ff ff 	mov    rdi,QWORD PTR [rbp-0x4e0]
    3c1d:	48 8d 85 30 fb ff ff 	lea    rax,[rbp-0x4d0]
    3c24:	48 39 c7             	cmp    rdi,rax
    3c27:	74 0a                	je     3c33 <_ZN9simulator7saveVtkER4mat2NSt7__cxx1112basic_stringIcSt11char_traitsIcESaIcEEE+0xe83>
    3c29:	e8 00 00 00 00       	call   3c2e <_ZN9simulator7saveVtkER4mat2NSt7__cxx1112basic_stringIcSt11char_traitsIcESaIcEEE+0xe7e>
    3c2e:	eb 03                	jmp    3c33 <_ZN9simulator7saveVtkER4mat2NSt7__cxx1112basic_stringIcSt11char_traitsIcESaIcEEE+0xe83>
    3c30:	48 89 c3             	mov    rbx,rax
    3c33:	48 8b bd 00 fb ff ff 	mov    rdi,QWORD PTR [rbp-0x500]
    3c3a:	48 8d 85 10 fb ff ff 	lea    rax,[rbp-0x4f0]
    3c41:	48 39 c7             	cmp    rdi,rax
    3c44:	74 0a                	je     3c50 <_ZN9simulator7saveVtkER4mat2NSt7__cxx1112basic_stringIcSt11char_traitsIcESaIcEEE+0xea0>
    3c46:	e8 00 00 00 00       	call   3c4b <_ZN9simulator7saveVtkER4mat2NSt7__cxx1112basic_stringIcSt11char_traitsIcESaIcEEE+0xe9b>
    3c4b:	eb 03                	jmp    3c50 <_ZN9simulator7saveVtkER4mat2NSt7__cxx1112basic_stringIcSt11char_traitsIcESaIcEEE+0xea0>
    3c4d:	48 89 c3             	mov    rbx,rax
    3c50:	48 8b bd c0 fa ff ff 	mov    rdi,QWORD PTR [rbp-0x540]
    3c57:	48 8d 85 d0 fa ff ff 	lea    rax,[rbp-0x530]
    3c5e:	48 39 c7             	cmp    rdi,rax
    3c61:	74 0a                	je     3c6d <_ZN9simulator7saveVtkER4mat2NSt7__cxx1112basic_stringIcSt11char_traitsIcESaIcEEE+0xebd>
    3c63:	e8 00 00 00 00       	call   3c68 <_ZN9simulator7saveVtkER4mat2NSt7__cxx1112basic_stringIcSt11char_traitsIcESaIcEEE+0xeb8>
    3c68:	eb 03                	jmp    3c6d <_ZN9simulator7saveVtkER4mat2NSt7__cxx1112basic_stringIcSt11char_traitsIcESaIcEEE+0xebd>
    3c6a:	48 89 c3             	mov    rbx,rax
    3c6d:	48 8b bd e0 fa ff ff 	mov    rdi,QWORD PTR [rbp-0x520]
    3c74:	48 8d 85 f0 fa ff ff 	lea    rax,[rbp-0x510]
    3c7b:	48 39 c7             	cmp    rdi,rax
    3c7e:	0f 84 9e 00 00 00    	je     3d22 <_ZN9simulator7saveVtkER4mat2NSt7__cxx1112basic_stringIcSt11char_traitsIcESaIcEEE+0xf72>
    3c84:	e8 00 00 00 00       	call   3c89 <_ZN9simulator7saveVtkER4mat2NSt7__cxx1112basic_stringIcSt11char_traitsIcESaIcEEE+0xed9>
    3c89:	e9 94 00 00 00       	jmp    3d22 <_ZN9simulator7saveVtkER4mat2NSt7__cxx1112basic_stringIcSt11char_traitsIcESaIcEEE+0xf72>
    3c8e:	48 89 c3             	mov    rbx,rax
    3c91:	48 8b bd 60 fb ff ff 	mov    rdi,QWORD PTR [rbp-0x4a0]
    3c98:	48 8d 85 70 fb ff ff 	lea    rax,[rbp-0x490]
    3c9f:	48 39 c7             	cmp    rdi,rax
    3ca2:	74 0a                	je     3cae <_ZN9simulator7saveVtkER4mat2NSt7__cxx1112basic_stringIcSt11char_traitsIcESaIcEEE+0xefe>
    3ca4:	e8 00 00 00 00       	call   3ca9 <_ZN9simulator7saveVtkER4mat2NSt7__cxx1112basic_stringIcSt11char_traitsIcESaIcEEE+0xef9>
    3ca9:	eb 03                	jmp    3cae <_ZN9simulator7saveVtkER4mat2NSt7__cxx1112basic_stringIcSt11char_traitsIcESaIcEEE+0xefe>
    3cab:	48 89 c3             	mov    rbx,rax
    3cae:	48 8b bd 00 fb ff ff 	mov    rdi,QWORD PTR [rbp-0x500]
    3cb5:	48 8d 85 10 fb ff ff 	lea    rax,[rbp-0x4f0]
    3cbc:	48 39 c7             	cmp    rdi,rax
    3cbf:	74 61                	je     3d22 <_ZN9simulator7saveVtkER4mat2NSt7__cxx1112basic_stringIcSt11char_traitsIcESaIcEEE+0xf72>
    3cc1:	e8 00 00 00 00       	call   3cc6 <_ZN9simulator7saveVtkER4mat2NSt7__cxx1112basic_stringIcSt11char_traitsIcESaIcEEE+0xf16>
    3cc6:	eb 5a                	jmp    3d22 <_ZN9simulator7saveVtkER4mat2NSt7__cxx1112basic_stringIcSt11char_traitsIcESaIcEEE+0xf72>
    3cc8:	48 89 c3             	mov    rbx,rax
    3ccb:	48 8b bd 20 fb ff ff 	mov    rdi,QWORD PTR [rbp-0x4e0]
    3cd2:	48 8d 85 30 fb ff ff 	lea    rax,[rbp-0x4d0]
    3cd9:	48 39 c7             	cmp    rdi,rax
    3cdc:	74 44                	je     3d22 <_ZN9simulator7saveVtkER4mat2NSt7__cxx1112basic_stringIcSt11char_traitsIcESaIcEEE+0xf72>
    3cde:	e8 00 00 00 00       	call   3ce3 <_ZN9simulator7saveVtkER4mat2NSt7__cxx1112basic_stringIcSt11char_traitsIcESaIcEEE+0xf33>
    3ce3:	eb 3d                	jmp    3d22 <_ZN9simulator7saveVtkER4mat2NSt7__cxx1112basic_stringIcSt11char_traitsIcESaIcEEE+0xf72>
    3ce5:	48 89 c3             	mov    rbx,rax
    3ce8:	48 8b bd 40 fb ff ff 	mov    rdi,QWORD PTR [rbp-0x4c0]
    3cef:	48 8d 85 50 fb ff ff 	lea    rax,[rbp-0x4b0]
    3cf6:	48 39 c7             	cmp    rdi,rax
    3cf9:	74 27                	je     3d22 <_ZN9simulator7saveVtkER4mat2NSt7__cxx1112basic_stringIcSt11char_traitsIcESaIcEEE+0xf72>
    3cfb:	e8 00 00 00 00       	call   3d00 <_ZN9simulator7saveVtkER4mat2NSt7__cxx1112basic_stringIcSt11char_traitsIcESaIcEEE+0xf50>
    3d00:	eb 20                	jmp    3d22 <_ZN9simulator7saveVtkER4mat2NSt7__cxx1112basic_stringIcSt11char_traitsIcESaIcEEE+0xf72>
    3d02:	48 89 c3             	mov    rbx,rax
    3d05:	48 8b bd 60 fb ff ff 	mov    rdi,QWORD PTR [rbp-0x4a0]
    3d0c:	48 8d 85 70 fb ff ff 	lea    rax,[rbp-0x490]
    3d13:	48 39 c7             	cmp    rdi,rax
    3d16:	74 0a                	je     3d22 <_ZN9simulator7saveVtkER4mat2NSt7__cxx1112basic_stringIcSt11char_traitsIcESaIcEEE+0xf72>
    3d18:	e8 00 00 00 00       	call   3d1d <_ZN9simulator7saveVtkER4mat2NSt7__cxx1112basic_stringIcSt11char_traitsIcESaIcEEE+0xf6d>
    3d1d:	eb 03                	jmp    3d22 <_ZN9simulator7saveVtkER4mat2NSt7__cxx1112basic_stringIcSt11char_traitsIcESaIcEEE+0xf72>
    3d1f:	48 89 c3             	mov    rbx,rax
    3d22:	48 8d bd 80 fb ff ff 	lea    rdi,[rbp-0x480]
    3d29:	e8 00 00 00 00       	call   3d2e <_ZN9simulator7saveVtkER4mat2NSt7__cxx1112basic_stringIcSt11char_traitsIcESaIcEEE+0xf7e>
    3d2e:	48 89 df             	mov    rdi,rbx
    3d31:	e8 00 00 00 00       	call   3d36 <_ZN9simulator7saveVtkER4mat2NSt7__cxx1112basic_stringIcSt11char_traitsIcESaIcEEE+0xf86>
    3d36:	e8 00 00 00 00       	call   3d3b <_ZN9simulator7saveVtkER4mat2NSt7__cxx1112basic_stringIcSt11char_traitsIcESaIcEEE+0xf8b>
    3d3b:	48 8d 65 d8          	lea    rsp,[rbp-0x28]
    3d3f:	5b                   	pop    rbx
    3d40:	41 5c                	pop    r12
    3d42:	41 5d                	pop    r13
    3d44:	41 5e                	pop    r14
    3d46:	41 5f                	pop    r15
    3d48:	5d                   	pop    rbp
    3d49:	c3                   	ret    

0000000000003d4a <_ZN9simulator20saveVelocitiesToFileEv>:
    3d4a:	55                   	push   rbp
    3d4b:	48 89 e5             	mov    rbp,rsp
    3d4e:	41 57                	push   r15
    3d50:	41 56                	push   r14
    3d52:	41 55                	push   r13
    3d54:	41 54                	push   r12
    3d56:	53                   	push   rbx
    3d57:	48 81 ec a8 07 00 00 	sub    rsp,0x7a8
    3d5e:	49 89 fe             	mov    r14,rdi
    3d61:	64 48 8b 04 25 28 00 	mov    rax,QWORD PTR fs:0x28
    3d68:	00 00 
    3d6a:	48 89 45 c8          	mov    QWORD PTR [rbp-0x38],rax
    3d6e:	31 c0                	xor    eax,eax
    3d70:	48 8d 85 d0 f9 ff ff 	lea    rax,[rbp-0x630]
    3d77:	48 8d 78 70          	lea    rdi,[rax+0x70]
    3d7b:	e8 00 00 00 00       	call   3d80 <_ZN9simulator20saveVelocitiesToFileEv+0x36>
    3d80:	48 c7 85 40 fa ff ff 	mov    QWORD PTR [rbp-0x5c0],0x0
    3d87:	00 00 00 00 
    3d8b:	48 c7 85 18 fb ff ff 	mov    QWORD PTR [rbp-0x4e8],0x0
    3d92:	00 00 00 00 
    3d96:	c6 85 20 fb ff ff 00 	mov    BYTE PTR [rbp-0x4e0],0x0
    3d9d:	c6 85 21 fb ff ff 00 	mov    BYTE PTR [rbp-0x4df],0x0
    3da4:	48 c7 85 28 fb ff ff 	mov    QWORD PTR [rbp-0x4d8],0x0
    3dab:	00 00 00 00 
    3daf:	48 c7 85 30 fb ff ff 	mov    QWORD PTR [rbp-0x4d0],0x0
    3db6:	00 00 00 00 
    3dba:	48 c7 85 38 fb ff ff 	mov    QWORD PTR [rbp-0x4c8],0x0
    3dc1:	00 00 00 00 
    3dc5:	48 c7 85 40 fb ff ff 	mov    QWORD PTR [rbp-0x4c0],0x0
    3dcc:	00 00 00 00 
    3dd0:	48 8b 1d 00 00 00 00 	mov    rbx,QWORD PTR [rip+0x0]        # 3dd7 <_ZN9simulator20saveVelocitiesToFileEv+0x8d>
    3dd7:	48 89 9d d0 f9 ff ff 	mov    QWORD PTR [rbp-0x630],rbx
    3dde:	48 8b 43 e8          	mov    rax,QWORD PTR [rbx-0x18]
    3de2:	48 8b 0d 00 00 00 00 	mov    rcx,QWORD PTR [rip+0x0]        # 3de9 <_ZN9simulator20saveVelocitiesToFileEv+0x9f>
    3de9:	48 89 8c 05 d0 f9 ff 	mov    QWORD PTR [rbp+rax*1-0x630],rcx
    3df0:	ff 
    3df1:	48 8b 85 d0 f9 ff ff 	mov    rax,QWORD PTR [rbp-0x630]
    3df8:	48 8d bd d0 f9 ff ff 	lea    rdi,[rbp-0x630]
    3dff:	48 03 78 e8          	add    rdi,QWORD PTR [rax-0x18]
    3e03:	be 00 00 00 00       	mov    esi,0x0
    3e08:	e8 00 00 00 00       	call   3e0d <_ZN9simulator20saveVelocitiesToFileEv+0xc3>
    3e0d:	48 c7 85 d0 f9 ff ff 	mov    QWORD PTR [rbp-0x630],0x0
    3e14:	00 00 00 00 
    3e18:	48 c7 85 40 fa ff ff 	mov    QWORD PTR [rbp-0x5c0],0x0
    3e1f:	00 00 00 00 
    3e23:	48 c7 85 d8 f9 ff ff 	mov    QWORD PTR [rbp-0x628],0x0
    3e2a:	00 00 00 00 
    3e2e:	48 c7 85 e0 f9 ff ff 	mov    QWORD PTR [rbp-0x620],0x0
    3e35:	00 00 00 00 
    3e39:	48 c7 85 e8 f9 ff ff 	mov    QWORD PTR [rbp-0x618],0x0
    3e40:	00 00 00 00 
    3e44:	48 c7 85 f0 f9 ff ff 	mov    QWORD PTR [rbp-0x610],0x0
    3e4b:	00 00 00 00 
    3e4f:	48 c7 85 f8 f9 ff ff 	mov    QWORD PTR [rbp-0x608],0x0
    3e56:	00 00 00 00 
    3e5a:	48 c7 85 00 fa ff ff 	mov    QWORD PTR [rbp-0x600],0x0
    3e61:	00 00 00 00 
    3e65:	48 c7 85 08 fa ff ff 	mov    QWORD PTR [rbp-0x5f8],0x0
    3e6c:	00 00 00 00 
    3e70:	48 8d 85 d0 f9 ff ff 	lea    rax,[rbp-0x630]
    3e77:	48 8d 78 40          	lea    rdi,[rax+0x40]
    3e7b:	e8 00 00 00 00       	call   3e80 <_ZN9simulator20saveVelocitiesToFileEv+0x136>
    3e80:	48 c7 85 d8 f9 ff ff 	mov    QWORD PTR [rbp-0x628],0x0
    3e87:	00 00 00 00 
    3e8b:	c7 85 18 fa ff ff 10 	mov    DWORD PTR [rbp-0x5e8],0x10
    3e92:	00 00 00 
    3e95:	48 8d 85 d0 f9 ff ff 	lea    rax,[rbp-0x630]
    3e9c:	48 83 c0 60          	add    rax,0x60
    3ea0:	48 89 85 20 fa ff ff 	mov    QWORD PTR [rbp-0x5e0],rax
    3ea7:	48 c7 85 28 fa ff ff 	mov    QWORD PTR [rbp-0x5d8],0x0
    3eae:	00 00 00 00 
    3eb2:	c6 85 30 fa ff ff 00 	mov    BYTE PTR [rbp-0x5d0],0x0
    3eb9:	48 8d 85 d0 f9 ff ff 	lea    rax,[rbp-0x630]
    3ec0:	48 8d 70 08          	lea    rsi,[rax+0x8]
    3ec4:	48 8d 78 70          	lea    rdi,[rax+0x70]
    3ec8:	e8 00 00 00 00       	call   3ecd <_ZN9simulator20saveVelocitiesToFileEv+0x183>
    3ecd:	eb 50                	jmp    3f1f <_ZN9simulator20saveVelocitiesToFileEv+0x1d5>
    3ecf:	49 89 c4             	mov    r12,rax
    3ed2:	48 8d bd d8 f9 ff ff 	lea    rdi,[rbp-0x628]
    3ed9:	e8 00 00 00 00       	call   3ede <_ZN9simulator20saveVelocitiesToFileEv+0x194>
    3ede:	48 89 9d d0 f9 ff ff 	mov    QWORD PTR [rbp-0x630],rbx
    3ee5:	48 8b 43 e8          	mov    rax,QWORD PTR [rbx-0x18]
    3ee9:	48 8b 0d 00 00 00 00 	mov    rcx,QWORD PTR [rip+0x0]        # 3ef0 <_ZN9simulator20saveVelocitiesToFileEv+0x1a6>
    3ef0:	48 89 8c 05 d0 f9 ff 	mov    QWORD PTR [rbp+rax*1-0x630],rcx
    3ef7:	ff 
    3ef8:	4c 89 e3             	mov    rbx,r12
    3efb:	eb 03                	jmp    3f00 <_ZN9simulator20saveVelocitiesToFileEv+0x1b6>
    3efd:	48 89 c3             	mov    rbx,rax
    3f00:	48 c7 85 40 fa ff ff 	mov    QWORD PTR [rbp-0x5c0],0x0
    3f07:	00 00 00 00 
    3f0b:	48 8d bd 40 fa ff ff 	lea    rdi,[rbp-0x5c0]
    3f12:	e8 00 00 00 00       	call   3f17 <_ZN9simulator20saveVelocitiesToFileEv+0x1cd>
    3f17:	48 89 df             	mov    rdi,rbx
    3f1a:	e8 00 00 00 00       	call   3f1f <_ZN9simulator20saveVelocitiesToFileEv+0x1d5>
    3f1f:	48 8d 85 50 fb ff ff 	lea    rax,[rbp-0x4b0]
    3f26:	48 8d 78 70          	lea    rdi,[rax+0x70]
    3f2a:	e8 00 00 00 00       	call   3f2f <_ZN9simulator20saveVelocitiesToFileEv+0x1e5>
    3f2f:	48 c7 85 c0 fb ff ff 	mov    QWORD PTR [rbp-0x440],0x0
    3f36:	00 00 00 00 
    3f3a:	48 c7 85 98 fc ff ff 	mov    QWORD PTR [rbp-0x368],0x0
    3f41:	00 00 00 00 
    3f45:	c6 85 a0 fc ff ff 00 	mov    BYTE PTR [rbp-0x360],0x0
    3f4c:	c6 85 a1 fc ff ff 00 	mov    BYTE PTR [rbp-0x35f],0x0
    3f53:	48 c7 85 a8 fc ff ff 	mov    QWORD PTR [rbp-0x358],0x0
    3f5a:	00 00 00 00 
    3f5e:	48 c7 85 b0 fc ff ff 	mov    QWORD PTR [rbp-0x350],0x0
    3f65:	00 00 00 00 
    3f69:	48 c7 85 b8 fc ff ff 	mov    QWORD PTR [rbp-0x348],0x0
    3f70:	00 00 00 00 
    3f74:	48 c7 85 c0 fc ff ff 	mov    QWORD PTR [rbp-0x340],0x0
    3f7b:	00 00 00 00 
    3f7f:	48 89 9d 50 fb ff ff 	mov    QWORD PTR [rbp-0x4b0],rbx
    3f86:	48 8b 43 e8          	mov    rax,QWORD PTR [rbx-0x18]
    3f8a:	48 8b 0d 00 00 00 00 	mov    rcx,QWORD PTR [rip+0x0]        # 3f91 <_ZN9simulator20saveVelocitiesToFileEv+0x247>
    3f91:	48 89 8c 05 50 fb ff 	mov    QWORD PTR [rbp+rax*1-0x4b0],rcx
    3f98:	ff 
    3f99:	48 8b 85 50 fb ff ff 	mov    rax,QWORD PTR [rbp-0x4b0]
    3fa0:	48 8d bd 50 fb ff ff 	lea    rdi,[rbp-0x4b0]
    3fa7:	48 03 78 e8          	add    rdi,QWORD PTR [rax-0x18]
    3fab:	be 00 00 00 00       	mov    esi,0x0
    3fb0:	e8 00 00 00 00       	call   3fb5 <_ZN9simulator20saveVelocitiesToFileEv+0x26b>
    3fb5:	48 c7 85 50 fb ff ff 	mov    QWORD PTR [rbp-0x4b0],0x0
    3fbc:	00 00 00 00 
    3fc0:	48 c7 85 c0 fb ff ff 	mov    QWORD PTR [rbp-0x440],0x0
    3fc7:	00 00 00 00 
    3fcb:	48 c7 85 58 fb ff ff 	mov    QWORD PTR [rbp-0x4a8],0x0
    3fd2:	00 00 00 00 
    3fd6:	48 c7 85 60 fb ff ff 	mov    QWORD PTR [rbp-0x4a0],0x0
    3fdd:	00 00 00 00 
    3fe1:	48 c7 85 68 fb ff ff 	mov    QWORD PTR [rbp-0x498],0x0
    3fe8:	00 00 00 00 
    3fec:	48 c7 85 70 fb ff ff 	mov    QWORD PTR [rbp-0x490],0x0
    3ff3:	00 00 00 00 
    3ff7:	48 c7 85 78 fb ff ff 	mov    QWORD PTR [rbp-0x488],0x0
    3ffe:	00 00 00 00 
    4002:	48 c7 85 80 fb ff ff 	mov    QWORD PTR [rbp-0x480],0x0
    4009:	00 00 00 00 
    400d:	48 c7 85 88 fb ff ff 	mov    QWORD PTR [rbp-0x478],0x0
    4014:	00 00 00 00 
    4018:	48 8d 85 50 fb ff ff 	lea    rax,[rbp-0x4b0]
    401f:	48 8d 78 40          	lea    rdi,[rax+0x40]
    4023:	e8 00 00 00 00       	call   4028 <_ZN9simulator20saveVelocitiesToFileEv+0x2de>
    4028:	48 c7 85 58 fb ff ff 	mov    QWORD PTR [rbp-0x4a8],0x0
    402f:	00 00 00 00 
    4033:	c7 85 98 fb ff ff 10 	mov    DWORD PTR [rbp-0x468],0x10
    403a:	00 00 00 
    403d:	48 8d 85 50 fb ff ff 	lea    rax,[rbp-0x4b0]
    4044:	48 83 c0 60          	add    rax,0x60
    4048:	48 89 85 a0 fb ff ff 	mov    QWORD PTR [rbp-0x460],rax
    404f:	48 c7 85 a8 fb ff ff 	mov    QWORD PTR [rbp-0x458],0x0
    4056:	00 00 00 00 
    405a:	c6 85 b0 fb ff ff 00 	mov    BYTE PTR [rbp-0x450],0x0
    4061:	48 8d 85 50 fb ff ff 	lea    rax,[rbp-0x4b0]
    4068:	48 8d 70 08          	lea    rsi,[rax+0x8]
    406c:	48 8d 78 70          	lea    rdi,[rax+0x70]
    4070:	e8 00 00 00 00       	call   4075 <_ZN9simulator20saveVelocitiesToFileEv+0x32b>
    4075:	eb 4d                	jmp    40c4 <_ZN9simulator20saveVelocitiesToFileEv+0x37a>
    4077:	49 89 c4             	mov    r12,rax
    407a:	48 8d bd 58 fb ff ff 	lea    rdi,[rbp-0x4a8]
    4081:	e8 00 00 00 00       	call   4086 <_ZN9simulator20saveVelocitiesToFileEv+0x33c>
    4086:	48 89 9d 50 fb ff ff 	mov    QWORD PTR [rbp-0x4b0],rbx
    408d:	48 8b 43 e8          	mov    rax,QWORD PTR [rbx-0x18]
    4091:	48 8b 0d 00 00 00 00 	mov    rcx,QWORD PTR [rip+0x0]        # 4098 <_ZN9simulator20saveVelocitiesToFileEv+0x34e>
    4098:	48 89 8c 05 50 fb ff 	mov    QWORD PTR [rbp+rax*1-0x4b0],rcx
    409f:	ff 
    40a0:	4c 89 e3             	mov    rbx,r12
    40a3:	eb 03                	jmp    40a8 <_ZN9simulator20saveVelocitiesToFileEv+0x35e>
    40a5:	48 89 c3             	mov    rbx,rax
    40a8:	48 c7 85 c0 fb ff ff 	mov    QWORD PTR [rbp-0x440],0x0
    40af:	00 00 00 00 
    40b3:	48 8d bd c0 fb ff ff 	lea    rdi,[rbp-0x440]
    40ba:	e8 00 00 00 00       	call   40bf <_ZN9simulator20saveVelocitiesToFileEv+0x375>
    40bf:	e9 eb 0d 00 00       	jmp    4eaf <_ZN9simulator20saveVelocitiesToFileEv+0x1165>
    40c4:	48 8d 85 d0 fc ff ff 	lea    rax,[rbp-0x330]
    40cb:	48 8d 78 70          	lea    rdi,[rax+0x70]
    40cf:	e8 00 00 00 00       	call   40d4 <_ZN9simulator20saveVelocitiesToFileEv+0x38a>
    40d4:	48 c7 85 40 fd ff ff 	mov    QWORD PTR [rbp-0x2c0],0x0
    40db:	00 00 00 00 
    40df:	48 c7 85 18 fe ff ff 	mov    QWORD PTR [rbp-0x1e8],0x0
    40e6:	00 00 00 00 
    40ea:	c6 85 20 fe ff ff 00 	mov    BYTE PTR [rbp-0x1e0],0x0
    40f1:	c6 85 21 fe ff ff 00 	mov    BYTE PTR [rbp-0x1df],0x0
    40f8:	48 c7 85 28 fe ff ff 	mov    QWORD PTR [rbp-0x1d8],0x0
    40ff:	00 00 00 00 
    4103:	48 c7 85 30 fe ff ff 	mov    QWORD PTR [rbp-0x1d0],0x0
    410a:	00 00 00 00 
    410e:	48 c7 85 38 fe ff ff 	mov    QWORD PTR [rbp-0x1c8],0x0
    4115:	00 00 00 00 
    4119:	48 c7 85 40 fe ff ff 	mov    QWORD PTR [rbp-0x1c0],0x0
    4120:	00 00 00 00 
    4124:	48 89 9d d0 fc ff ff 	mov    QWORD PTR [rbp-0x330],rbx
    412b:	48 8b 43 e8          	mov    rax,QWORD PTR [rbx-0x18]
    412f:	48 8b 0d 00 00 00 00 	mov    rcx,QWORD PTR [rip+0x0]        # 4136 <_ZN9simulator20saveVelocitiesToFileEv+0x3ec>
    4136:	48 89 8c 05 d0 fc ff 	mov    QWORD PTR [rbp+rax*1-0x330],rcx
    413d:	ff 
    413e:	48 8b 85 d0 fc ff ff 	mov    rax,QWORD PTR [rbp-0x330]
    4145:	48 8d bd d0 fc ff ff 	lea    rdi,[rbp-0x330]
    414c:	48 03 78 e8          	add    rdi,QWORD PTR [rax-0x18]
    4150:	be 00 00 00 00       	mov    esi,0x0
    4155:	e8 00 00 00 00       	call   415a <_ZN9simulator20saveVelocitiesToFileEv+0x410>
    415a:	48 c7 85 d0 fc ff ff 	mov    QWORD PTR [rbp-0x330],0x0
    4161:	00 00 00 00 
    4165:	48 c7 85 40 fd ff ff 	mov    QWORD PTR [rbp-0x2c0],0x0
    416c:	00 00 00 00 
    4170:	48 c7 85 d8 fc ff ff 	mov    QWORD PTR [rbp-0x328],0x0
    4177:	00 00 00 00 
    417b:	48 c7 85 e0 fc ff ff 	mov    QWORD PTR [rbp-0x320],0x0
    4182:	00 00 00 00 
    4186:	48 c7 85 e8 fc ff ff 	mov    QWORD PTR [rbp-0x318],0x0
    418d:	00 00 00 00 
    4191:	48 c7 85 f0 fc ff ff 	mov    QWORD PTR [rbp-0x310],0x0
    4198:	00 00 00 00 
    419c:	48 c7 85 f8 fc ff ff 	mov    QWORD PTR [rbp-0x308],0x0
    41a3:	00 00 00 00 
    41a7:	48 c7 85 00 fd ff ff 	mov    QWORD PTR [rbp-0x300],0x0
    41ae:	00 00 00 00 
    41b2:	48 c7 85 08 fd ff ff 	mov    QWORD PTR [rbp-0x2f8],0x0
    41b9:	00 00 00 00 
    41bd:	48 8d 85 d0 fc ff ff 	lea    rax,[rbp-0x330]
    41c4:	48 8d 78 40          	lea    rdi,[rax+0x40]
    41c8:	e8 00 00 00 00       	call   41cd <_ZN9simulator20saveVelocitiesToFileEv+0x483>
    41cd:	48 c7 85 d8 fc ff ff 	mov    QWORD PTR [rbp-0x328],0x0
    41d4:	00 00 00 00 
    41d8:	c7 85 18 fd ff ff 10 	mov    DWORD PTR [rbp-0x2e8],0x10
    41df:	00 00 00 
    41e2:	48 8d 85 d0 fc ff ff 	lea    rax,[rbp-0x330]
    41e9:	48 83 c0 60          	add    rax,0x60
    41ed:	48 89 85 20 fd ff ff 	mov    QWORD PTR [rbp-0x2e0],rax
    41f4:	48 c7 85 28 fd ff ff 	mov    QWORD PTR [rbp-0x2d8],0x0
    41fb:	00 00 00 00 
    41ff:	c6 85 30 fd ff ff 00 	mov    BYTE PTR [rbp-0x2d0],0x0
    4206:	48 8d 85 d0 fc ff ff 	lea    rax,[rbp-0x330]
    420d:	48 8d 70 08          	lea    rsi,[rax+0x8]
    4211:	48 8d 78 70          	lea    rdi,[rax+0x70]
    4215:	e8 00 00 00 00       	call   421a <_ZN9simulator20saveVelocitiesToFileEv+0x4d0>
    421a:	eb 4d                	jmp    4269 <_ZN9simulator20saveVelocitiesToFileEv+0x51f>
    421c:	49 89 c4             	mov    r12,rax
    421f:	48 8d bd d8 fc ff ff 	lea    rdi,[rbp-0x328]
    4226:	e8 00 00 00 00       	call   422b <_ZN9simulator20saveVelocitiesToFileEv+0x4e1>
    422b:	48 89 9d d0 fc ff ff 	mov    QWORD PTR [rbp-0x330],rbx
    4232:	48 8b 43 e8          	mov    rax,QWORD PTR [rbx-0x18]
    4236:	48 8b 0d 00 00 00 00 	mov    rcx,QWORD PTR [rip+0x0]        # 423d <_ZN9simulator20saveVelocitiesToFileEv+0x4f3>
    423d:	48 89 8c 05 d0 fc ff 	mov    QWORD PTR [rbp+rax*1-0x330],rcx
    4244:	ff 
    4245:	4c 89 e3             	mov    rbx,r12
    4248:	eb 03                	jmp    424d <_ZN9simulator20saveVelocitiesToFileEv+0x503>
    424a:	48 89 c3             	mov    rbx,rax
    424d:	48 c7 85 40 fd ff ff 	mov    QWORD PTR [rbp-0x2c0],0x0
    4254:	00 00 00 00 
    4258:	48 8d bd 40 fd ff ff 	lea    rdi,[rbp-0x2c0]
    425f:	e8 00 00 00 00       	call   4264 <_ZN9simulator20saveVelocitiesToFileEv+0x51a>
    4264:	e9 3a 0c 00 00       	jmp    4ea3 <_ZN9simulator20saveVelocitiesToFileEv+0x1159>
    4269:	48 8d 85 50 fe ff ff 	lea    rax,[rbp-0x1b0]
    4270:	48 8d 78 70          	lea    rdi,[rax+0x70]
    4274:	e8 00 00 00 00       	call   4279 <_ZN9simulator20saveVelocitiesToFileEv+0x52f>
    4279:	48 c7 85 c0 fe ff ff 	mov    QWORD PTR [rbp-0x140],0x0
    4280:	00 00 00 00 
    4284:	48 c7 45 98 00 00 00 	mov    QWORD PTR [rbp-0x68],0x0
    428b:	00 
    428c:	c6 45 a0 00          	mov    BYTE PTR [rbp-0x60],0x0
    4290:	c6 45 a1 00          	mov    BYTE PTR [rbp-0x5f],0x0
    4294:	48 c7 45 a8 00 00 00 	mov    QWORD PTR [rbp-0x58],0x0
    429b:	00 
    429c:	48 c7 45 b0 00 00 00 	mov    QWORD PTR [rbp-0x50],0x0
    42a3:	00 
    42a4:	48 c7 45 b8 00 00 00 	mov    QWORD PTR [rbp-0x48],0x0
    42ab:	00 
    42ac:	48 c7 45 c0 00 00 00 	mov    QWORD PTR [rbp-0x40],0x0
    42b3:	00 
    42b4:	48 89 9d 50 fe ff ff 	mov    QWORD PTR [rbp-0x1b0],rbx
    42bb:	48 8b 43 e8          	mov    rax,QWORD PTR [rbx-0x18]
    42bf:	48 8b 0d 00 00 00 00 	mov    rcx,QWORD PTR [rip+0x0]        # 42c6 <_ZN9simulator20saveVelocitiesToFileEv+0x57c>
    42c6:	48 89 8c 05 50 fe ff 	mov    QWORD PTR [rbp+rax*1-0x1b0],rcx
    42cd:	ff 
    42ce:	48 8b 85 50 fe ff ff 	mov    rax,QWORD PTR [rbp-0x1b0]
    42d5:	48 8d bd 50 fe ff ff 	lea    rdi,[rbp-0x1b0]
    42dc:	48 03 78 e8          	add    rdi,QWORD PTR [rax-0x18]
    42e0:	be 00 00 00 00       	mov    esi,0x0
    42e5:	e8 00 00 00 00       	call   42ea <_ZN9simulator20saveVelocitiesToFileEv+0x5a0>
    42ea:	48 c7 85 50 fe ff ff 	mov    QWORD PTR [rbp-0x1b0],0x0
    42f1:	00 00 00 00 
    42f5:	48 c7 85 c0 fe ff ff 	mov    QWORD PTR [rbp-0x140],0x0
    42fc:	00 00 00 00 
    4300:	48 c7 85 58 fe ff ff 	mov    QWORD PTR [rbp-0x1a8],0x0
    4307:	00 00 00 00 
    430b:	48 c7 85 60 fe ff ff 	mov    QWORD PTR [rbp-0x1a0],0x0
    4312:	00 00 00 00 
    4316:	48 c7 85 68 fe ff ff 	mov    QWORD PTR [rbp-0x198],0x0
    431d:	00 00 00 00 
    4321:	48 c7 85 70 fe ff ff 	mov    QWORD PTR [rbp-0x190],0x0
    4328:	00 00 00 00 
    432c:	48 c7 85 78 fe ff ff 	mov    QWORD PTR [rbp-0x188],0x0
    4333:	00 00 00 00 
    4337:	48 c7 85 80 fe ff ff 	mov    QWORD PTR [rbp-0x180],0x0
    433e:	00 00 00 00 
    4342:	48 c7 85 88 fe ff ff 	mov    QWORD PTR [rbp-0x178],0x0
    4349:	00 00 00 00 
    434d:	48 8d 85 50 fe ff ff 	lea    rax,[rbp-0x1b0]
    4354:	48 8d 78 40          	lea    rdi,[rax+0x40]
    4358:	e8 00 00 00 00       	call   435d <_ZN9simulator20saveVelocitiesToFileEv+0x613>
    435d:	48 c7 85 58 fe ff ff 	mov    QWORD PTR [rbp-0x1a8],0x0
    4364:	00 00 00 00 
    4368:	c7 85 98 fe ff ff 10 	mov    DWORD PTR [rbp-0x168],0x10
    436f:	00 00 00 
    4372:	48 8d 85 50 fe ff ff 	lea    rax,[rbp-0x1b0]
    4379:	48 83 c0 60          	add    rax,0x60
    437d:	48 89 85 a0 fe ff ff 	mov    QWORD PTR [rbp-0x160],rax
    4384:	48 c7 85 a8 fe ff ff 	mov    QWORD PTR [rbp-0x158],0x0
    438b:	00 00 00 00 
    438f:	c6 85 b0 fe ff ff 00 	mov    BYTE PTR [rbp-0x150],0x0
    4396:	48 8d 85 50 fe ff ff 	lea    rax,[rbp-0x1b0]
    439d:	48 8d 70 08          	lea    rsi,[rax+0x8]
    43a1:	48 8d 78 70          	lea    rdi,[rax+0x70]
    43a5:	e8 00 00 00 00       	call   43aa <_ZN9simulator20saveVelocitiesToFileEv+0x660>
    43aa:	eb 4d                	jmp    43f9 <_ZN9simulator20saveVelocitiesToFileEv+0x6af>
    43ac:	49 89 c4             	mov    r12,rax
    43af:	48 8d bd 58 fe ff ff 	lea    rdi,[rbp-0x1a8]
    43b6:	e8 00 00 00 00       	call   43bb <_ZN9simulator20saveVelocitiesToFileEv+0x671>
    43bb:	48 89 9d 50 fe ff ff 	mov    QWORD PTR [rbp-0x1b0],rbx
    43c2:	48 8b 43 e8          	mov    rax,QWORD PTR [rbx-0x18]
    43c6:	48 8b 0d 00 00 00 00 	mov    rcx,QWORD PTR [rip+0x0]        # 43cd <_ZN9simulator20saveVelocitiesToFileEv+0x683>
    43cd:	48 89 8c 05 50 fe ff 	mov    QWORD PTR [rbp+rax*1-0x1b0],rcx
    43d4:	ff 
    43d5:	4c 89 e3             	mov    rbx,r12
    43d8:	eb 03                	jmp    43dd <_ZN9simulator20saveVelocitiesToFileEv+0x693>
    43da:	48 89 c3             	mov    rbx,rax
    43dd:	48 c7 85 c0 fe ff ff 	mov    QWORD PTR [rbp-0x140],0x0
    43e4:	00 00 00 00 
    43e8:	48 8d bd c0 fe ff ff 	lea    rdi,[rbp-0x140]
    43ef:	e8 00 00 00 00       	call   43f4 <_ZN9simulator20saveVelocitiesToFileEv+0x6aa>
    43f4:	e9 9e 0a 00 00       	jmp    4e97 <_ZN9simulator20saveVelocitiesToFileEv+0x114d>
    43f9:	41 8b 5e 30          	mov    ebx,DWORD PTR [r14+0x30]
    43fd:	ba 0b 00 00 00       	mov    edx,0xb
    4402:	be 00 00 00 00       	mov    esi,0x0
    4407:	48 8d bd 50 fe ff ff 	lea    rdi,[rbp-0x1b0]
    440e:	e8 00 00 00 00       	call   4413 <_ZN9simulator20saveVelocitiesToFileEv+0x6c9>
    4413:	89 de                	mov    esi,ebx
    4415:	48 8d bd 50 fe ff ff 	lea    rdi,[rbp-0x1b0]
    441c:	e8 00 00 00 00       	call   4421 <_ZN9simulator20saveVelocitiesToFileEv+0x6d7>
    4421:	ba 04 00 00 00       	mov    edx,0x4
    4426:	be 00 00 00 00       	mov    esi,0x0
    442b:	48 89 c7             	mov    rdi,rax
    442e:	e8 00 00 00 00       	call   4433 <_ZN9simulator20saveVelocitiesToFileEv+0x6e9>
    4433:	41 8b 5e 30          	mov    ebx,DWORD PTR [r14+0x30]
    4437:	ba 08 00 00 00       	mov    edx,0x8
    443c:	be 00 00 00 00       	mov    esi,0x0
    4441:	48 8d bd d0 f9 ff ff 	lea    rdi,[rbp-0x630]
    4448:	e8 00 00 00 00       	call   444d <_ZN9simulator20saveVelocitiesToFileEv+0x703>
    444d:	89 de                	mov    esi,ebx
    444f:	48 8d bd d0 f9 ff ff 	lea    rdi,[rbp-0x630]
    4456:	e8 00 00 00 00       	call   445b <_ZN9simulator20saveVelocitiesToFileEv+0x711>
    445b:	ba 04 00 00 00       	mov    edx,0x4
    4460:	be 00 00 00 00       	mov    esi,0x0
    4465:	48 89 c7             	mov    rdi,rax
    4468:	e8 00 00 00 00       	call   446d <_ZN9simulator20saveVelocitiesToFileEv+0x723>
    446d:	41 8b 5e 30          	mov    ebx,DWORD PTR [r14+0x30]
    4471:	ba 08 00 00 00       	mov    edx,0x8
    4476:	be 00 00 00 00       	mov    esi,0x0
    447b:	48 8d bd 50 fb ff ff 	lea    rdi,[rbp-0x4b0]
    4482:	e8 00 00 00 00       	call   4487 <_ZN9simulator20saveVelocitiesToFileEv+0x73d>
    4487:	89 de                	mov    esi,ebx
    4489:	48 8d bd 50 fb ff ff 	lea    rdi,[rbp-0x4b0]
    4490:	e8 00 00 00 00       	call   4495 <_ZN9simulator20saveVelocitiesToFileEv+0x74b>
    4495:	ba 04 00 00 00       	mov    edx,0x4
    449a:	be 00 00 00 00       	mov    esi,0x0
    449f:	48 89 c7             	mov    rdi,rax
    44a2:	e8 00 00 00 00       	call   44a7 <_ZN9simulator20saveVelocitiesToFileEv+0x75d>
    44a7:	41 8b 5e 30          	mov    ebx,DWORD PTR [r14+0x30]
    44ab:	ba 08 00 00 00       	mov    edx,0x8
    44b0:	be 00 00 00 00       	mov    esi,0x0
    44b5:	48 8d bd d0 fc ff ff 	lea    rdi,[rbp-0x330]
    44bc:	e8 00 00 00 00       	call   44c1 <_ZN9simulator20saveVelocitiesToFileEv+0x777>
    44c1:	89 de                	mov    esi,ebx
    44c3:	48 8d bd d0 fc ff ff 	lea    rdi,[rbp-0x330]
    44ca:	e8 00 00 00 00       	call   44cf <_ZN9simulator20saveVelocitiesToFileEv+0x785>
    44cf:	ba 04 00 00 00       	mov    edx,0x4
    44d4:	be 00 00 00 00       	mov    esi,0x0
    44d9:	48 89 c7             	mov    rdi,rax
    44dc:	e8 00 00 00 00       	call   44e1 <_ZN9simulator20saveVelocitiesToFileEv+0x797>
    44e1:	4d 8d a6 10 01 00 00 	lea    r12,[r14+0x110]
    44e8:	66 0f ef c0          	pxor   xmm0,xmm0
    44ec:	f3 41 0f 2a 86 1c 01 	cvtsi2ss xmm0,DWORD PTR [r14+0x11c]
    44f3:	00 00 
    44f5:	f3 0f 2c c0          	cvttss2si eax,xmm0
    44f9:	66 0f ef c0          	pxor   xmm0,xmm0
    44fd:	f3 41 0f 2a 86 18 01 	cvtsi2ss xmm0,DWORD PTR [r14+0x118]
    4504:	00 00 
    4506:	f3 0f 2c d0          	cvttss2si edx,xmm0
    450a:	89 95 48 f8 ff ff    	mov    DWORD PTR [rbp-0x7b8],edx
    4510:	89 85 4c f8 ff ff    	mov    DWORD PTR [rbp-0x7b4],eax
    4516:	66 0f ef c0          	pxor   xmm0,xmm0
    451a:	48 8d bd 40 f8 ff ff 	lea    rdi,[rbp-0x7c0]
    4521:	e8 00 00 00 00       	call   4526 <_ZN9simulator20saveVelocitiesToFileEv+0x7dc>
    4526:	66 0f ef c0          	pxor   xmm0,xmm0
    452a:	f3 0f 2a 85 48 f8 ff 	cvtsi2ss xmm0,DWORD PTR [rbp-0x7b8]
    4531:	ff 
    4532:	41 bf 00 00 00 00    	mov    r15d,0x0
    4538:	0f 2e 05 00 00 00 00 	ucomiss xmm0,DWORD PTR [rip+0x0]        # 453f <_ZN9simulator20saveVelocitiesToFileEv+0x7f5>
    453f:	0f 86 d4 00 00 00    	jbe    4619 <_ZN9simulator20saveVelocitiesToFileEv+0x8cf>
    4545:	4d 8d ae 20 01 00 00 	lea    r13,[r14+0x120]
    454c:	66 0f ef c0          	pxor   xmm0,xmm0
    4550:	f3 0f 2a 85 4c f8 ff 	cvtsi2ss xmm0,DWORD PTR [rbp-0x7b4]
    4557:	ff 
    4558:	bb 00 00 00 00       	mov    ebx,0x0
    455d:	66 0f ef db          	pxor   xmm3,xmm3
    4561:	0f 2e c3             	ucomiss xmm0,xmm3
    4564:	0f 86 89 00 00 00    	jbe    45f3 <_ZN9simulator20saveVelocitiesToFileEv+0x8a9>
    456a:	89 da                	mov    edx,ebx
    456c:	44 89 fe             	mov    esi,r15d
    456f:	4c 89 e7             	mov    rdi,r12
    4572:	e8 00 00 00 00       	call   4577 <_ZN9simulator20saveVelocitiesToFileEv+0x82d>
    4577:	0f 28 d0             	movaps xmm2,xmm0
    457a:	f3 0f 59 d0          	mulss  xmm2,xmm0
    457e:	f3 0f 11 95 3c f8 ff 	movss  DWORD PTR [rbp-0x7c4],xmm2
    4585:	ff 
    4586:	89 da                	mov    edx,ebx
    4588:	44 89 fe             	mov    esi,r15d
    458b:	4c 89 ef             	mov    rdi,r13
    458e:	e8 00 00 00 00       	call   4593 <_ZN9simulator20saveVelocitiesToFileEv+0x849>
    4593:	0f 28 c8             	movaps xmm1,xmm0
    4596:	f3 0f 59 c8          	mulss  xmm1,xmm0
    459a:	f3 0f 58 8d 3c f8 ff 	addss  xmm1,DWORD PTR [rbp-0x7c4]
    45a1:	ff 
    45a2:	f3 0f 51 c9          	sqrtss xmm1,xmm1
    45a6:	0f 2e c9             	ucomiss xmm1,xmm1
    45a9:	7b 14                	jnp    45bf <_ZN9simulator20saveVelocitiesToFileEv+0x875>
    45ab:	f3 0f 59 c0          	mulss  xmm0,xmm0
    45af:	f3 0f 58 85 3c f8 ff 	addss  xmm0,DWORD PTR [rbp-0x7c4]
    45b6:	ff 
    45b7:	e8 00 00 00 00       	call   45bc <_ZN9simulator20saveVelocitiesToFileEv+0x872>
    45bc:	0f 28 c8             	movaps xmm1,xmm0
    45bf:	0f 28 c1             	movaps xmm0,xmm1
    45c2:	89 da                	mov    edx,ebx
    45c4:	44 89 fe             	mov    esi,r15d
    45c7:	48 8d bd 40 f8 ff ff 	lea    rdi,[rbp-0x7c0]
    45ce:	e8 00 00 00 00       	call   45d3 <_ZN9simulator20saveVelocitiesToFileEv+0x889>
    45d3:	83 c3 01             	add    ebx,0x1
    45d6:	66 0f ef c0          	pxor   xmm0,xmm0
    45da:	f3 0f 2a c3          	cvtsi2ss xmm0,ebx
    45de:	66 0f ef c9          	pxor   xmm1,xmm1
    45e2:	f3 0f 2a 8d 4c f8 ff 	cvtsi2ss xmm1,DWORD PTR [rbp-0x7b4]
    45e9:	ff 
    45ea:	0f 2e c8             	ucomiss xmm1,xmm0
    45ed:	0f 87 77 ff ff ff    	ja     456a <_ZN9simulator20saveVelocitiesToFileEv+0x820>
    45f3:	44 89 f8             	mov    eax,r15d
    45f6:	83 c0 01             	add    eax,0x1
    45f9:	41 89 c7             	mov    r15d,eax
    45fc:	66 0f ef c0          	pxor   xmm0,xmm0
    4600:	f3 0f 2a c0          	cvtsi2ss xmm0,eax
    4604:	66 0f ef c9          	pxor   xmm1,xmm1
    4608:	f3 0f 2a 8d 48 f8 ff 	cvtsi2ss xmm1,DWORD PTR [rbp-0x7b8]
    460f:	ff 
    4610:	0f 2e c8             	ucomiss xmm1,xmm0
    4613:	0f 87 33 ff ff ff    	ja     454c <_ZN9simulator20saveVelocitiesToFileEv+0x802>
    4619:	48 8d 85 60 f8 ff ff 	lea    rax,[rbp-0x7a0]
    4620:	48 89 85 50 f8 ff ff 	mov    QWORD PTR [rbp-0x7b0],rax
    4627:	48 c7 85 58 f8 ff ff 	mov    QWORD PTR [rbp-0x7a8],0x0
    462e:	00 00 00 00 
    4632:	c6 85 60 f8 ff ff 00 	mov    BYTE PTR [rbp-0x7a0],0x0
    4639:	48 8b 85 00 fa ff ff 	mov    rax,QWORD PTR [rbp-0x600]
    4640:	48 85 c0             	test   rax,rax
    4643:	0f 84 d2 00 00 00    	je     471b <_ZN9simulator20saveVelocitiesToFileEv+0x9d1>
    4649:	48 8b 95 f0 f9 ff ff 	mov    rdx,QWORD PTR [rbp-0x610]
    4650:	48 39 d0             	cmp    rax,rdx
    4653:	76 66                	jbe    46bb <_ZN9simulator20saveVelocitiesToFileEv+0x971>
    4655:	48 8d 8d f0 f8 ff ff 	lea    rcx,[rbp-0x710]
    465c:	48 8d 51 10          	lea    rdx,[rcx+0x10]
    4660:	48 89 95 f0 f8 ff ff 	mov    QWORD PTR [rbp-0x710],rdx
    4667:	48 83 ec 08          	sub    rsp,0x8
    466b:	6a 00                	push   0x0
    466d:	48 89 c2             	mov    rdx,rax
    4670:	48 8b b5 f8 f9 ff ff 	mov    rsi,QWORD PTR [rbp-0x608]
    4677:	48 89 cf             	mov    rdi,rcx
    467a:	e8 00 00 00 00       	call   467f <_ZN9simulator20saveVelocitiesToFileEv+0x935>
    467f:	48 83 c4 10          	add    rsp,0x10
    4683:	48 8d b5 f0 f8 ff ff 	lea    rsi,[rbp-0x710]
    468a:	48 8d bd 50 f8 ff ff 	lea    rdi,[rbp-0x7b0]
    4691:	e8 00 00 00 00       	call   4696 <_ZN9simulator20saveVelocitiesToFileEv+0x94c>
    4696:	48 8b bd f0 f8 ff ff 	mov    rdi,QWORD PTR [rbp-0x710]
    469d:	48 8d 85 f0 f8 ff ff 	lea    rax,[rbp-0x710]
    46a4:	48 83 c0 10          	add    rax,0x10
    46a8:	48 39 c7             	cmp    rdi,rax
    46ab:	0f 84 a3 00 00 00    	je     4754 <_ZN9simulator20saveVelocitiesToFileEv+0xa0a>
    46b1:	e8 00 00 00 00       	call   46b6 <_ZN9simulator20saveVelocitiesToFileEv+0x96c>
    46b6:	e9 99 00 00 00       	jmp    4754 <_ZN9simulator20saveVelocitiesToFileEv+0xa0a>
    46bb:	48 8d 85 d0 f8 ff ff 	lea    rax,[rbp-0x730]
    46c2:	48 83 c0 10          	add    rax,0x10
    46c6:	48 89 85 d0 f8 ff ff 	mov    QWORD PTR [rbp-0x730],rax
    46cd:	48 83 ec 08          	sub    rsp,0x8
    46d1:	6a 00                	push   0x0
    46d3:	48 8b b5 f8 f9 ff ff 	mov    rsi,QWORD PTR [rbp-0x608]
    46da:	48 8d bd d0 f8 ff ff 	lea    rdi,[rbp-0x730]
    46e1:	e8 00 00 00 00       	call   46e6 <_ZN9simulator20saveVelocitiesToFileEv+0x99c>
    46e6:	48 83 c4 10          	add    rsp,0x10
    46ea:	48 8d b5 d0 f8 ff ff 	lea    rsi,[rbp-0x730]
    46f1:	48 8d bd 50 f8 ff ff 	lea    rdi,[rbp-0x7b0]
    46f8:	e8 00 00 00 00       	call   46fd <_ZN9simulator20saveVelocitiesToFileEv+0x9b3>
    46fd:	48 8b bd d0 f8 ff ff 	mov    rdi,QWORD PTR [rbp-0x730]
    4704:	48 8d 85 d0 f8 ff ff 	lea    rax,[rbp-0x730]
    470b:	48 83 c0 10          	add    rax,0x10
    470f:	48 39 c7             	cmp    rdi,rax
    4712:	74 40                	je     4754 <_ZN9simulator20saveVelocitiesToFileEv+0xa0a>
    4714:	e8 00 00 00 00       	call   4719 <_ZN9simulator20saveVelocitiesToFileEv+0x9cf>
    4719:	eb 39                	jmp    4754 <_ZN9simulator20saveVelocitiesToFileEv+0xa0a>
    471b:	48 8d b5 20 fa ff ff 	lea    rsi,[rbp-0x5e0]
    4722:	48 8d bd 50 f8 ff ff 	lea    rdi,[rbp-0x7b0]
    4729:	e8 00 00 00 00       	call   472e <_ZN9simulator20saveVelocitiesToFileEv+0x9e4>
    472e:	eb 24                	jmp    4754 <_ZN9simulator20saveVelocitiesToFileEv+0xa0a>
    4730:	48 89 c3             	mov    rbx,rax
    4733:	48 8b bd 50 f8 ff ff 	mov    rdi,QWORD PTR [rbp-0x7b0]
    473a:	48 8d 85 60 f8 ff ff 	lea    rax,[rbp-0x7a0]
    4741:	48 39 c7             	cmp    rdi,rax
    4744:	0f 84 30 07 00 00    	je     4e7a <_ZN9simulator20saveVelocitiesToFileEv+0x1130>
    474a:	e8 00 00 00 00       	call   474f <_ZN9simulator20saveVelocitiesToFileEv+0xa05>
    474f:	e9 26 07 00 00       	jmp    4e7a <_ZN9simulator20saveVelocitiesToFileEv+0x1130>
    4754:	48 8d 95 50 f8 ff ff 	lea    rdx,[rbp-0x7b0]
    475b:	4c 89 e6             	mov    rsi,r12
    475e:	4c 89 f7             	mov    rdi,r14
    4761:	e8 00 00 00 00       	call   4766 <_ZN9simulator20saveVelocitiesToFileEv+0xa1c>
    4766:	48 8b bd 50 f8 ff ff 	mov    rdi,QWORD PTR [rbp-0x7b0]
    476d:	48 8d 85 60 f8 ff ff 	lea    rax,[rbp-0x7a0]
    4774:	48 39 c7             	cmp    rdi,rax
    4777:	74 05                	je     477e <_ZN9simulator20saveVelocitiesToFileEv+0xa34>
    4779:	e8 00 00 00 00       	call   477e <_ZN9simulator20saveVelocitiesToFileEv+0xa34>
    477e:	48 8d 85 80 f8 ff ff 	lea    rax,[rbp-0x780]
    4785:	48 89 85 70 f8 ff ff 	mov    QWORD PTR [rbp-0x790],rax
    478c:	48 c7 85 78 f8 ff ff 	mov    QWORD PTR [rbp-0x788],0x0
    4793:	00 00 00 00 
    4797:	c6 85 80 f8 ff ff 00 	mov    BYTE PTR [rbp-0x780],0x0
    479e:	48 8b 85 80 fb ff ff 	mov    rax,QWORD PTR [rbp-0x480]
    47a5:	48 85 c0             	test   rax,rax
    47a8:	0f 84 d2 00 00 00    	je     4880 <_ZN9simulator20saveVelocitiesToFileEv+0xb36>
    47ae:	48 8b 95 70 fb ff ff 	mov    rdx,QWORD PTR [rbp-0x490]
    47b5:	48 39 d0             	cmp    rax,rdx
    47b8:	76 66                	jbe    4820 <_ZN9simulator20saveVelocitiesToFileEv+0xad6>
    47ba:	48 8d 8d 30 f9 ff ff 	lea    rcx,[rbp-0x6d0]
    47c1:	48 8d 51 10          	lea    rdx,[rcx+0x10]
    47c5:	48 89 95 30 f9 ff ff 	mov    QWORD PTR [rbp-0x6d0],rdx
    47cc:	48 83 ec 08          	sub    rsp,0x8
    47d0:	6a 00                	push   0x0
    47d2:	48 89 c2             	mov    rdx,rax
    47d5:	48 8b b5 78 fb ff ff 	mov    rsi,QWORD PTR [rbp-0x488]
    47dc:	48 89 cf             	mov    rdi,rcx
    47df:	e8 00 00 00 00       	call   47e4 <_ZN9simulator20saveVelocitiesToFileEv+0xa9a>
    47e4:	48 83 c4 10          	add    rsp,0x10
    47e8:	48 8d b5 30 f9 ff ff 	lea    rsi,[rbp-0x6d0]
    47ef:	48 8d bd 70 f8 ff ff 	lea    rdi,[rbp-0x790]
    47f6:	e8 00 00 00 00       	call   47fb <_ZN9simulator20saveVelocitiesToFileEv+0xab1>
    47fb:	48 8b bd 30 f9 ff ff 	mov    rdi,QWORD PTR [rbp-0x6d0]
    4802:	48 8d 85 30 f9 ff ff 	lea    rax,[rbp-0x6d0]
    4809:	48 83 c0 10          	add    rax,0x10
    480d:	48 39 c7             	cmp    rdi,rax
    4810:	0f 84 a3 00 00 00    	je     48b9 <_ZN9simulator20saveVelocitiesToFileEv+0xb6f>
    4816:	e8 00 00 00 00       	call   481b <_ZN9simulator20saveVelocitiesToFileEv+0xad1>
    481b:	e9 99 00 00 00       	jmp    48b9 <_ZN9simulator20saveVelocitiesToFileEv+0xb6f>
    4820:	48 8d 85 10 f9 ff ff 	lea    rax,[rbp-0x6f0]
    4827:	48 83 c0 10          	add    rax,0x10
    482b:	48 89 85 10 f9 ff ff 	mov    QWORD PTR [rbp-0x6f0],rax
    4832:	48 83 ec 08          	sub    rsp,0x8
    4836:	6a 00                	push   0x0
    4838:	48 8b b5 78 fb ff ff 	mov    rsi,QWORD PTR [rbp-0x488]
    483f:	48 8d bd 10 f9 ff ff 	lea    rdi,[rbp-0x6f0]
    4846:	e8 00 00 00 00       	call   484b <_ZN9simulator20saveVelocitiesToFileEv+0xb01>
    484b:	48 83 c4 10          	add    rsp,0x10
    484f:	48 8d b5 10 f9 ff ff 	lea    rsi,[rbp-0x6f0]
    4856:	48 8d bd 70 f8 ff ff 	lea    rdi,[rbp-0x790]
    485d:	e8 00 00 00 00       	call   4862 <_ZN9simulator20saveVelocitiesToFileEv+0xb18>
    4862:	48 8b bd 10 f9 ff ff 	mov    rdi,QWORD PTR [rbp-0x6f0]
    4869:	48 8d 85 10 f9 ff ff 	lea    rax,[rbp-0x6f0]
    4870:	48 83 c0 10          	add    rax,0x10
    4874:	48 39 c7             	cmp    rdi,rax
    4877:	74 40                	je     48b9 <_ZN9simulator20saveVelocitiesToFileEv+0xb6f>
    4879:	e8 00 00 00 00       	call   487e <_ZN9simulator20saveVelocitiesToFileEv+0xb34>
    487e:	eb 39                	jmp    48b9 <_ZN9simulator20saveVelocitiesToFileEv+0xb6f>
    4880:	48 8d b5 a0 fb ff ff 	lea    rsi,[rbp-0x460]
    4887:	48 8d bd 70 f8 ff ff 	lea    rdi,[rbp-0x790]
    488e:	e8 00 00 00 00       	call   4893 <_ZN9simulator20saveVelocitiesToFileEv+0xb49>
    4893:	eb 24                	jmp    48b9 <_ZN9simulator20saveVelocitiesToFileEv+0xb6f>
    4895:	48 89 c3             	mov    rbx,rax
    4898:	48 8b bd 70 f8 ff ff 	mov    rdi,QWORD PTR [rbp-0x790]
    489f:	48 8d 85 80 f8 ff ff 	lea    rax,[rbp-0x780]
    48a6:	48 39 c7             	cmp    rdi,rax
    48a9:	0f 84 cb 05 00 00    	je     4e7a <_ZN9simulator20saveVelocitiesToFileEv+0x1130>
    48af:	e8 00 00 00 00       	call   48b4 <_ZN9simulator20saveVelocitiesToFileEv+0xb6a>
    48b4:	e9 c1 05 00 00       	jmp    4e7a <_ZN9simulator20saveVelocitiesToFileEv+0x1130>
    48b9:	49 8d b6 20 01 00 00 	lea    rsi,[r14+0x120]
    48c0:	48 8d 95 70 f8 ff ff 	lea    rdx,[rbp-0x790]
    48c7:	4c 89 f7             	mov    rdi,r14
    48ca:	e8 00 00 00 00       	call   48cf <_ZN9simulator20saveVelocitiesToFileEv+0xb85>
    48cf:	48 8b bd 70 f8 ff ff 	mov    rdi,QWORD PTR [rbp-0x790]
    48d6:	48 8d 85 80 f8 ff ff 	lea    rax,[rbp-0x780]
    48dd:	48 39 c7             	cmp    rdi,rax
    48e0:	74 05                	je     48e7 <_ZN9simulator20saveVelocitiesToFileEv+0xb9d>
    48e2:	e8 00 00 00 00       	call   48e7 <_ZN9simulator20saveVelocitiesToFileEv+0xb9d>
    48e7:	48 8d 85 a0 f8 ff ff 	lea    rax,[rbp-0x760]
    48ee:	48 89 85 90 f8 ff ff 	mov    QWORD PTR [rbp-0x770],rax
    48f5:	48 c7 85 98 f8 ff ff 	mov    QWORD PTR [rbp-0x768],0x0
    48fc:	00 00 00 00 
    4900:	c6 85 a0 f8 ff ff 00 	mov    BYTE PTR [rbp-0x760],0x0
    4907:	48 8b 85 00 fd ff ff 	mov    rax,QWORD PTR [rbp-0x300]
    490e:	48 85 c0             	test   rax,rax
    4911:	0f 84 d2 00 00 00    	je     49e9 <_ZN9simulator20saveVelocitiesToFileEv+0xc9f>
    4917:	48 8b 95 f0 fc ff ff 	mov    rdx,QWORD PTR [rbp-0x310]
    491e:	48 39 d0             	cmp    rax,rdx
    4921:	76 66                	jbe    4989 <_ZN9simulator20saveVelocitiesToFileEv+0xc3f>
    4923:	48 8d 8d 70 f9 ff ff 	lea    rcx,[rbp-0x690]
    492a:	48 8d 51 10          	lea    rdx,[rcx+0x10]
    492e:	48 89 95 70 f9 ff ff 	mov    QWORD PTR [rbp-0x690],rdx
    4935:	48 83 ec 08          	sub    rsp,0x8
    4939:	6a 00                	push   0x0
    493b:	48 89 c2             	mov    rdx,rax
    493e:	48 8b b5 f8 fc ff ff 	mov    rsi,QWORD PTR [rbp-0x308]
    4945:	48 89 cf             	mov    rdi,rcx
    4948:	e8 00 00 00 00       	call   494d <_ZN9simulator20saveVelocitiesToFileEv+0xc03>
    494d:	48 83 c4 10          	add    rsp,0x10
    4951:	48 8d b5 70 f9 ff ff 	lea    rsi,[rbp-0x690]
    4958:	48 8d bd 90 f8 ff ff 	lea    rdi,[rbp-0x770]
    495f:	e8 00 00 00 00       	call   4964 <_ZN9simulator20saveVelocitiesToFileEv+0xc1a>
    4964:	48 8b bd 70 f9 ff ff 	mov    rdi,QWORD PTR [rbp-0x690]
    496b:	48 8d 85 70 f9 ff ff 	lea    rax,[rbp-0x690]
    4972:	48 83 c0 10          	add    rax,0x10
    4976:	48 39 c7             	cmp    rdi,rax
    4979:	0f 84 a3 00 00 00    	je     4a22 <_ZN9simulator20saveVelocitiesToFileEv+0xcd8>
    497f:	e8 00 00 00 00       	call   4984 <_ZN9simulator20saveVelocitiesToFileEv+0xc3a>
    4984:	e9 99 00 00 00       	jmp    4a22 <_ZN9simulator20saveVelocitiesToFileEv+0xcd8>
    4989:	48 8d 85 50 f9 ff ff 	lea    rax,[rbp-0x6b0]
    4990:	48 83 c0 10          	add    rax,0x10
    4994:	48 89 85 50 f9 ff ff 	mov    QWORD PTR [rbp-0x6b0],rax
    499b:	48 83 ec 08          	sub    rsp,0x8
    499f:	6a 00                	push   0x0
    49a1:	48 8b b5 f8 fc ff ff 	mov    rsi,QWORD PTR [rbp-0x308]
    49a8:	48 8d bd 50 f9 ff ff 	lea    rdi,[rbp-0x6b0]
    49af:	e8 00 00 00 00       	call   49b4 <_ZN9simulator20saveVelocitiesToFileEv+0xc6a>
    49b4:	48 83 c4 10          	add    rsp,0x10
    49b8:	48 8d b5 50 f9 ff ff 	lea    rsi,[rbp-0x6b0]
    49bf:	48 8d bd 90 f8 ff ff 	lea    rdi,[rbp-0x770]
    49c6:	e8 00 00 00 00       	call   49cb <_ZN9simulator20saveVelocitiesToFileEv+0xc81>
    49cb:	48 8b bd 50 f9 ff ff 	mov    rdi,QWORD PTR [rbp-0x6b0]
    49d2:	48 8d 85 50 f9 ff ff 	lea    rax,[rbp-0x6b0]
    49d9:	48 83 c0 10          	add    rax,0x10
    49dd:	48 39 c7             	cmp    rdi,rax
    49e0:	74 40                	je     4a22 <_ZN9simulator20saveVelocitiesToFileEv+0xcd8>
    49e2:	e8 00 00 00 00       	call   49e7 <_ZN9simulator20saveVelocitiesToFileEv+0xc9d>
    49e7:	eb 39                	jmp    4a22 <_ZN9simulator20saveVelocitiesToFileEv+0xcd8>
    49e9:	48 8d b5 20 fd ff ff 	lea    rsi,[rbp-0x2e0]
    49f0:	48 8d bd 90 f8 ff ff 	lea    rdi,[rbp-0x770]
    49f7:	e8 00 00 00 00       	call   49fc <_ZN9simulator20saveVelocitiesToFileEv+0xcb2>
    49fc:	eb 24                	jmp    4a22 <_ZN9simulator20saveVelocitiesToFileEv+0xcd8>
    49fe:	48 89 c3             	mov    rbx,rax
    4a01:	48 8b bd 90 f8 ff ff 	mov    rdi,QWORD PTR [rbp-0x770]
    4a08:	48 8d 85 a0 f8 ff ff 	lea    rax,[rbp-0x760]
    4a0f:	48 39 c7             	cmp    rdi,rax
    4a12:	0f 84 62 04 00 00    	je     4e7a <_ZN9simulator20saveVelocitiesToFileEv+0x1130>
    4a18:	e8 00 00 00 00       	call   4a1d <_ZN9simulator20saveVelocitiesToFileEv+0xcd3>
    4a1d:	e9 58 04 00 00       	jmp    4e7a <_ZN9simulator20saveVelocitiesToFileEv+0x1130>
    4a22:	49 8d b6 30 01 00 00 	lea    rsi,[r14+0x130]
    4a29:	48 8d 95 90 f8 ff ff 	lea    rdx,[rbp-0x770]
    4a30:	4c 89 f7             	mov    rdi,r14
    4a33:	e8 00 00 00 00       	call   4a38 <_ZN9simulator20saveVelocitiesToFileEv+0xcee>
    4a38:	48 8b bd 90 f8 ff ff 	mov    rdi,QWORD PTR [rbp-0x770]
    4a3f:	48 8d 85 a0 f8 ff ff 	lea    rax,[rbp-0x760]
    4a46:	48 39 c7             	cmp    rdi,rax
    4a49:	74 05                	je     4a50 <_ZN9simulator20saveVelocitiesToFileEv+0xd06>
    4a4b:	e8 00 00 00 00       	call   4a50 <_ZN9simulator20saveVelocitiesToFileEv+0xd06>
    4a50:	48 8d 85 c0 f8 ff ff 	lea    rax,[rbp-0x740]
    4a57:	48 89 85 b0 f8 ff ff 	mov    QWORD PTR [rbp-0x750],rax
    4a5e:	48 c7 85 b8 f8 ff ff 	mov    QWORD PTR [rbp-0x748],0x0
    4a65:	00 00 00 00 
    4a69:	c6 85 c0 f8 ff ff 00 	mov    BYTE PTR [rbp-0x740],0x0
    4a70:	48 8b 85 80 fe ff ff 	mov    rax,QWORD PTR [rbp-0x180]
    4a77:	48 85 c0             	test   rax,rax
    4a7a:	0f 84 d2 00 00 00    	je     4b52 <_ZN9simulator20saveVelocitiesToFileEv+0xe08>
    4a80:	48 8b 95 70 fe ff ff 	mov    rdx,QWORD PTR [rbp-0x190]
    4a87:	48 39 d0             	cmp    rax,rdx
    4a8a:	76 66                	jbe    4af2 <_ZN9simulator20saveVelocitiesToFileEv+0xda8>
    4a8c:	48 8d 8d b0 f9 ff ff 	lea    rcx,[rbp-0x650]
    4a93:	48 8d 51 10          	lea    rdx,[rcx+0x10]
    4a97:	48 89 95 b0 f9 ff ff 	mov    QWORD PTR [rbp-0x650],rdx
    4a9e:	48 83 ec 08          	sub    rsp,0x8
    4aa2:	6a 00                	push   0x0
    4aa4:	48 89 c2             	mov    rdx,rax
    4aa7:	48 8b b5 78 fe ff ff 	mov    rsi,QWORD PTR [rbp-0x188]
    4aae:	48 89 cf             	mov    rdi,rcx
    4ab1:	e8 00 00 00 00       	call   4ab6 <_ZN9simulator20saveVelocitiesToFileEv+0xd6c>
    4ab6:	48 83 c4 10          	add    rsp,0x10
    4aba:	48 8d b5 b0 f9 ff ff 	lea    rsi,[rbp-0x650]
    4ac1:	48 8d bd b0 f8 ff ff 	lea    rdi,[rbp-0x750]
    4ac8:	e8 00 00 00 00       	call   4acd <_ZN9simulator20saveVelocitiesToFileEv+0xd83>
    4acd:	48 8b bd b0 f9 ff ff 	mov    rdi,QWORD PTR [rbp-0x650]
    4ad4:	48 8d 85 b0 f9 ff ff 	lea    rax,[rbp-0x650]
    4adb:	48 83 c0 10          	add    rax,0x10
    4adf:	48 39 c7             	cmp    rdi,rax
    4ae2:	0f 84 a3 00 00 00    	je     4b8b <_ZN9simulator20saveVelocitiesToFileEv+0xe41>
    4ae8:	e8 00 00 00 00       	call   4aed <_ZN9simulator20saveVelocitiesToFileEv+0xda3>
    4aed:	e9 99 00 00 00       	jmp    4b8b <_ZN9simulator20saveVelocitiesToFileEv+0xe41>
    4af2:	48 8d 85 90 f9 ff ff 	lea    rax,[rbp-0x670]
    4af9:	48 83 c0 10          	add    rax,0x10
    4afd:	48 89 85 90 f9 ff ff 	mov    QWORD PTR [rbp-0x670],rax
    4b04:	48 83 ec 08          	sub    rsp,0x8
    4b08:	6a 00                	push   0x0
    4b0a:	48 8b b5 78 fe ff ff 	mov    rsi,QWORD PTR [rbp-0x188]
    4b11:	48 8d bd 90 f9 ff ff 	lea    rdi,[rbp-0x670]
    4b18:	e8 00 00 00 00       	call   4b1d <_ZN9simulator20saveVelocitiesToFileEv+0xdd3>
    4b1d:	48 83 c4 10          	add    rsp,0x10
    4b21:	48 8d b5 90 f9 ff ff 	lea    rsi,[rbp-0x670]
    4b28:	48 8d bd b0 f8 ff ff 	lea    rdi,[rbp-0x750]
    4b2f:	e8 00 00 00 00       	call   4b34 <_ZN9simulator20saveVelocitiesToFileEv+0xdea>
    4b34:	48 8b bd 90 f9 ff ff 	mov    rdi,QWORD PTR [rbp-0x670]
    4b3b:	48 8d 85 90 f9 ff ff 	lea    rax,[rbp-0x670]
    4b42:	48 83 c0 10          	add    rax,0x10
    4b46:	48 39 c7             	cmp    rdi,rax
    4b49:	74 40                	je     4b8b <_ZN9simulator20saveVelocitiesToFileEv+0xe41>
    4b4b:	e8 00 00 00 00       	call   4b50 <_ZN9simulator20saveVelocitiesToFileEv+0xe06>
    4b50:	eb 39                	jmp    4b8b <_ZN9simulator20saveVelocitiesToFileEv+0xe41>
    4b52:	48 8d b5 a0 fe ff ff 	lea    rsi,[rbp-0x160]
    4b59:	48 8d bd b0 f8 ff ff 	lea    rdi,[rbp-0x750]
    4b60:	e8 00 00 00 00       	call   4b65 <_ZN9simulator20saveVelocitiesToFileEv+0xe1b>
    4b65:	eb 24                	jmp    4b8b <_ZN9simulator20saveVelocitiesToFileEv+0xe41>
    4b67:	48 89 c3             	mov    rbx,rax
    4b6a:	48 8b bd b0 f8 ff ff 	mov    rdi,QWORD PTR [rbp-0x750]
    4b71:	48 8d 85 c0 f8 ff ff 	lea    rax,[rbp-0x740]
    4b78:	48 39 c7             	cmp    rdi,rax
    4b7b:	0f 84 f9 02 00 00    	je     4e7a <_ZN9simulator20saveVelocitiesToFileEv+0x1130>
    4b81:	e8 00 00 00 00       	call   4b86 <_ZN9simulator20saveVelocitiesToFileEv+0xe3c>
    4b86:	e9 ef 02 00 00       	jmp    4e7a <_ZN9simulator20saveVelocitiesToFileEv+0x1130>
    4b8b:	48 8d 95 b0 f8 ff ff 	lea    rdx,[rbp-0x750]
    4b92:	48 8d b5 40 f8 ff ff 	lea    rsi,[rbp-0x7c0]
    4b99:	4c 89 f7             	mov    rdi,r14
    4b9c:	e8 00 00 00 00       	call   4ba1 <_ZN9simulator20saveVelocitiesToFileEv+0xe57>
    4ba1:	48 8b bd b0 f8 ff ff 	mov    rdi,QWORD PTR [rbp-0x750]
    4ba8:	48 8d 85 c0 f8 ff ff 	lea    rax,[rbp-0x740]
    4baf:	48 39 c7             	cmp    rdi,rax
    4bb2:	74 05                	je     4bb9 <_ZN9simulator20saveVelocitiesToFileEv+0xe6f>
    4bb4:	e8 00 00 00 00       	call   4bb9 <_ZN9simulator20saveVelocitiesToFileEv+0xe6f>
    4bb9:	48 8d bd 40 f8 ff ff 	lea    rdi,[rbp-0x7c0]
    4bc0:	e8 00 00 00 00       	call   4bc5 <_ZN9simulator20saveVelocitiesToFileEv+0xe7b>
    4bc5:	48 c7 85 50 fe ff ff 	mov    QWORD PTR [rbp-0x1b0],0x0
    4bcc:	00 00 00 00 
    4bd0:	48 c7 85 c0 fe ff ff 	mov    QWORD PTR [rbp-0x140],0x0
    4bd7:	00 00 00 00 
    4bdb:	48 c7 85 58 fe ff ff 	mov    QWORD PTR [rbp-0x1a8],0x0
    4be2:	00 00 00 00 
    4be6:	48 8b bd a0 fe ff ff 	mov    rdi,QWORD PTR [rbp-0x160]
    4bed:	48 8d 85 b0 fe ff ff 	lea    rax,[rbp-0x150]
    4bf4:	48 39 c7             	cmp    rdi,rax
    4bf7:	74 05                	je     4bfe <_ZN9simulator20saveVelocitiesToFileEv+0xeb4>
    4bf9:	e8 00 00 00 00       	call   4bfe <_ZN9simulator20saveVelocitiesToFileEv+0xeb4>
    4bfe:	48 c7 85 58 fe ff ff 	mov    QWORD PTR [rbp-0x1a8],0x0
    4c05:	00 00 00 00 
    4c09:	48 8d 85 50 fe ff ff 	lea    rax,[rbp-0x1b0]
    4c10:	48 8d 78 40          	lea    rdi,[rax+0x40]
    4c14:	e8 00 00 00 00       	call   4c19 <_ZN9simulator20saveVelocitiesToFileEv+0xecf>
    4c19:	48 8b 1d 00 00 00 00 	mov    rbx,QWORD PTR [rip+0x0]        # 4c20 <_ZN9simulator20saveVelocitiesToFileEv+0xed6>
    4c20:	48 89 9d 50 fe ff ff 	mov    QWORD PTR [rbp-0x1b0],rbx
    4c27:	48 8b 43 e8          	mov    rax,QWORD PTR [rbx-0x18]
    4c2b:	48 8b 0d 00 00 00 00 	mov    rcx,QWORD PTR [rip+0x0]        # 4c32 <_ZN9simulator20saveVelocitiesToFileEv+0xee8>
    4c32:	48 89 8c 05 50 fe ff 	mov    QWORD PTR [rbp+rax*1-0x1b0],rcx
    4c39:	ff 
    4c3a:	48 c7 85 c0 fe ff ff 	mov    QWORD PTR [rbp-0x140],0x0
    4c41:	00 00 00 00 
    4c45:	48 8d 85 50 fe ff ff 	lea    rax,[rbp-0x1b0]
    4c4c:	48 8d 78 70          	lea    rdi,[rax+0x70]
    4c50:	e8 00 00 00 00       	call   4c55 <_ZN9simulator20saveVelocitiesToFileEv+0xf0b>
    4c55:	48 c7 85 d0 fc ff ff 	mov    QWORD PTR [rbp-0x330],0x0
    4c5c:	00 00 00 00 
    4c60:	48 c7 85 40 fd ff ff 	mov    QWORD PTR [rbp-0x2c0],0x0
    4c67:	00 00 00 00 
    4c6b:	48 c7 85 d8 fc ff ff 	mov    QWORD PTR [rbp-0x328],0x0
    4c72:	00 00 00 00 
    4c76:	48 8b bd 20 fd ff ff 	mov    rdi,QWORD PTR [rbp-0x2e0]
    4c7d:	48 8d 85 30 fd ff ff 	lea    rax,[rbp-0x2d0]
    4c84:	48 39 c7             	cmp    rdi,rax
    4c87:	74 05                	je     4c8e <_ZN9simulator20saveVelocitiesToFileEv+0xf44>
    4c89:	e8 00 00 00 00       	call   4c8e <_ZN9simulator20saveVelocitiesToFileEv+0xf44>
    4c8e:	48 c7 85 d8 fc ff ff 	mov    QWORD PTR [rbp-0x328],0x0
    4c95:	00 00 00 00 
    4c99:	48 8d 85 d0 fc ff ff 	lea    rax,[rbp-0x330]
    4ca0:	48 8d 78 40          	lea    rdi,[rax+0x40]
    4ca4:	e8 00 00 00 00       	call   4ca9 <_ZN9simulator20saveVelocitiesToFileEv+0xf5f>
    4ca9:	48 89 9d d0 fc ff ff 	mov    QWORD PTR [rbp-0x330],rbx
    4cb0:	48 8b 43 e8          	mov    rax,QWORD PTR [rbx-0x18]
    4cb4:	48 8b 0d 00 00 00 00 	mov    rcx,QWORD PTR [rip+0x0]        # 4cbb <_ZN9simulator20saveVelocitiesToFileEv+0xf71>
    4cbb:	48 89 8c 05 d0 fc ff 	mov    QWORD PTR [rbp+rax*1-0x330],rcx
    4cc2:	ff 
    4cc3:	48 c7 85 40 fd ff ff 	mov    QWORD PTR [rbp-0x2c0],0x0
    4cca:	00 00 00 00 
    4cce:	48 8d 85 d0 fc ff ff 	lea    rax,[rbp-0x330]
    4cd5:	48 8d 78 70          	lea    rdi,[rax+0x70]
    4cd9:	e8 00 00 00 00       	call   4cde <_ZN9simulator20saveVelocitiesToFileEv+0xf94>
    4cde:	48 c7 85 50 fb ff ff 	mov    QWORD PTR [rbp-0x4b0],0x0
    4ce5:	00 00 00 00 
    4ce9:	48 c7 85 c0 fb ff ff 	mov    QWORD PTR [rbp-0x440],0x0
    4cf0:	00 00 00 00 
    4cf4:	48 c7 85 58 fb ff ff 	mov    QWORD PTR [rbp-0x4a8],0x0
    4cfb:	00 00 00 00 
    4cff:	48 8b bd a0 fb ff ff 	mov    rdi,QWORD PTR [rbp-0x460]
    4d06:	48 8d 85 b0 fb ff ff 	lea    rax,[rbp-0x450]
    4d0d:	48 39 c7             	cmp    rdi,rax
    4d10:	74 05                	je     4d17 <_ZN9simulator20saveVelocitiesToFileEv+0xfcd>
    4d12:	e8 00 00 00 00       	call   4d17 <_ZN9simulator20saveVelocitiesToFileEv+0xfcd>
    4d17:	48 c7 85 58 fb ff ff 	mov    QWORD PTR [rbp-0x4a8],0x0
    4d1e:	00 00 00 00 
    4d22:	48 8d 85 50 fb ff ff 	lea    rax,[rbp-0x4b0]
    4d29:	48 8d 78 40          	lea    rdi,[rax+0x40]
    4d2d:	e8 00 00 00 00       	call   4d32 <_ZN9simulator20saveVelocitiesToFileEv+0xfe8>
    4d32:	48 89 9d 50 fb ff ff 	mov    QWORD PTR [rbp-0x4b0],rbx
    4d39:	48 8b 43 e8          	mov    rax,QWORD PTR [rbx-0x18]
    4d3d:	48 8b 0d 00 00 00 00 	mov    rcx,QWORD PTR [rip+0x0]        # 4d44 <_ZN9simulator20saveVelocitiesToFileEv+0xffa>
    4d44:	48 89 8c 05 50 fb ff 	mov    QWORD PTR [rbp+rax*1-0x4b0],rcx
    4d4b:	ff 
    4d4c:	48 c7 85 c0 fb ff ff 	mov    QWORD PTR [rbp-0x440],0x0
    4d53:	00 00 00 00 
    4d57:	48 8d 85 50 fb ff ff 	lea    rax,[rbp-0x4b0]
    4d5e:	48 8d 78 70          	lea    rdi,[rax+0x70]
    4d62:	e8 00 00 00 00       	call   4d67 <_ZN9simulator20saveVelocitiesToFileEv+0x101d>
    4d67:	48 c7 85 d0 f9 ff ff 	mov    QWORD PTR [rbp-0x630],0x0
    4d6e:	00 00 00 00 
    4d72:	48 c7 85 40 fa ff ff 	mov    QWORD PTR [rbp-0x5c0],0x0
    4d79:	00 00 00 00 
    4d7d:	48 c7 85 d8 f9 ff ff 	mov    QWORD PTR [rbp-0x628],0x0
    4d84:	00 00 00 00 
    4d88:	48 8b bd 20 fa ff ff 	mov    rdi,QWORD PTR [rbp-0x5e0]
    4d8f:	48 8d 85 30 fa ff ff 	lea    rax,[rbp-0x5d0]
    4d96:	48 39 c7             	cmp    rdi,rax
    4d99:	74 05                	je     4da0 <_ZN9simulator20saveVelocitiesToFileEv+0x1056>
    4d9b:	e8 00 00 00 00       	call   4da0 <_ZN9simulator20saveVelocitiesToFileEv+0x1056>
    4da0:	48 c7 85 d8 f9 ff ff 	mov    QWORD PTR [rbp-0x628],0x0
    4da7:	00 00 00 00 
    4dab:	48 8d 85 d0 f9 ff ff 	lea    rax,[rbp-0x630]
    4db2:	48 8d 78 40          	lea    rdi,[rax+0x40]
    4db6:	e8 00 00 00 00       	call   4dbb <_ZN9simulator20saveVelocitiesToFileEv+0x1071>
    4dbb:	48 89 9d d0 f9 ff ff 	mov    QWORD PTR [rbp-0x630],rbx
    4dc2:	48 8b 43 e8          	mov    rax,QWORD PTR [rbx-0x18]
    4dc6:	48 8b 0d 00 00 00 00 	mov    rcx,QWORD PTR [rip+0x0]        # 4dcd <_ZN9simulator20saveVelocitiesToFileEv+0x1083>
    4dcd:	48 89 8c 05 d0 f9 ff 	mov    QWORD PTR [rbp+rax*1-0x630],rcx
    4dd4:	ff 
    4dd5:	48 c7 85 40 fa ff ff 	mov    QWORD PTR [rbp-0x5c0],0x0
    4ddc:	00 00 00 00 
    4de0:	48 8d 85 d0 f9 ff ff 	lea    rax,[rbp-0x630]
    4de7:	48 8d 78 70          	lea    rdi,[rax+0x70]
    4deb:	e8 00 00 00 00       	call   4df0 <_ZN9simulator20saveVelocitiesToFileEv+0x10a6>
    4df0:	48 8b 45 c8          	mov    rax,QWORD PTR [rbp-0x38]
    4df4:	64 48 33 04 25 28 00 	xor    rax,QWORD PTR fs:0x28
    4dfb:	00 00 
    4dfd:	0f 84 c5 00 00 00    	je     4ec8 <_ZN9simulator20saveVelocitiesToFileEv+0x117e>
    4e03:	e9 bb 00 00 00       	jmp    4ec3 <_ZN9simulator20saveVelocitiesToFileEv+0x1179>
    4e08:	48 89 c3             	mov    rbx,rax
    4e0b:	48 8b bd 50 f8 ff ff 	mov    rdi,QWORD PTR [rbp-0x7b0]
    4e12:	48 8d 85 60 f8 ff ff 	lea    rax,[rbp-0x7a0]
    4e19:	48 39 c7             	cmp    rdi,rax
    4e1c:	74 5c                	je     4e7a <_ZN9simulator20saveVelocitiesToFileEv+0x1130>
    4e1e:	e8 00 00 00 00       	call   4e23 <_ZN9simulator20saveVelocitiesToFileEv+0x10d9>
    4e23:	eb 55                	jmp    4e7a <_ZN9simulator20saveVelocitiesToFileEv+0x1130>
    4e25:	48 89 c3             	mov    rbx,rax
    4e28:	48 8b bd 70 f8 ff ff 	mov    rdi,QWORD PTR [rbp-0x790]
    4e2f:	48 8d 85 80 f8 ff ff 	lea    rax,[rbp-0x780]
    4e36:	48 39 c7             	cmp    rdi,rax
    4e39:	74 3f                	je     4e7a <_ZN9simulator20saveVelocitiesToFileEv+0x1130>
    4e3b:	e8 00 00 00 00       	call   4e40 <_ZN9simulator20saveVelocitiesToFileEv+0x10f6>
    4e40:	eb 38                	jmp    4e7a <_ZN9simulator20saveVelocitiesToFileEv+0x1130>
    4e42:	48 89 c3             	mov    rbx,rax
    4e45:	48 8b bd 90 f8 ff ff 	mov    rdi,QWORD PTR [rbp-0x770]
    4e4c:	48 8d 85 a0 f8 ff ff 	lea    rax,[rbp-0x760]
    4e53:	48 39 c7             	cmp    rdi,rax
    4e56:	74 22                	je     4e7a <_ZN9simulator20saveVelocitiesToFileEv+0x1130>
    4e58:	e8 00 00 00 00       	call   4e5d <_ZN9simulator20saveVelocitiesToFileEv+0x1113>
    4e5d:	eb 1b                	jmp    4e7a <_ZN9simulator20saveVelocitiesToFileEv+0x1130>
    4e5f:	48 89 c3             	mov    rbx,rax
    4e62:	48 8b bd b0 f8 ff ff 	mov    rdi,QWORD PTR [rbp-0x750]
    4e69:	48 8d 85 c0 f8 ff ff 	lea    rax,[rbp-0x740]
    4e70:	48 39 c7             	cmp    rdi,rax
    4e73:	74 05                	je     4e7a <_ZN9simulator20saveVelocitiesToFileEv+0x1130>
    4e75:	e8 00 00 00 00       	call   4e7a <_ZN9simulator20saveVelocitiesToFileEv+0x1130>
    4e7a:	48 8d bd 40 f8 ff ff 	lea    rdi,[rbp-0x7c0]
    4e81:	e8 00 00 00 00       	call   4e86 <_ZN9simulator20saveVelocitiesToFileEv+0x113c>
    4e86:	eb 03                	jmp    4e8b <_ZN9simulator20saveVelocitiesToFileEv+0x1141>
    4e88:	48 89 c3             	mov    rbx,rax
    4e8b:	48 8d bd 50 fe ff ff 	lea    rdi,[rbp-0x1b0]
    4e92:	e8 00 00 00 00       	call   4e97 <_ZN9simulator20saveVelocitiesToFileEv+0x114d>
    4e97:	48 8d bd d0 fc ff ff 	lea    rdi,[rbp-0x330]
    4e9e:	e8 00 00 00 00       	call   4ea3 <_ZN9simulator20saveVelocitiesToFileEv+0x1159>
    4ea3:	48 8d bd 50 fb ff ff 	lea    rdi,[rbp-0x4b0]
    4eaa:	e8 00 00 00 00       	call   4eaf <_ZN9simulator20saveVelocitiesToFileEv+0x1165>
    4eaf:	48 8d bd d0 f9 ff ff 	lea    rdi,[rbp-0x630]
    4eb6:	e8 00 00 00 00       	call   4ebb <_ZN9simulator20saveVelocitiesToFileEv+0x1171>
    4ebb:	48 89 df             	mov    rdi,rbx
    4ebe:	e8 00 00 00 00       	call   4ec3 <_ZN9simulator20saveVelocitiesToFileEv+0x1179>
    4ec3:	e8 00 00 00 00       	call   4ec8 <_ZN9simulator20saveVelocitiesToFileEv+0x117e>
    4ec8:	48 8d 65 d8          	lea    rsp,[rbp-0x28]
    4ecc:	5b                   	pop    rbx
    4ecd:	41 5c                	pop    r12
    4ecf:	41 5d                	pop    r13
    4ed1:	41 5e                	pop    r14
    4ed3:	41 5f                	pop    r15
    4ed5:	5d                   	pop    rbp
    4ed6:	c3                   	ret    

0000000000004ed7 <_GLOBAL__sub_I__ZN4mat2C2Ev>:
    4ed7:	48 83 ec 08          	sub    rsp,0x8
    4edb:	bf 00 00 00 00       	mov    edi,0x0
    4ee0:	e8 00 00 00 00       	call   4ee5 <_GLOBAL__sub_I__ZN4mat2C2Ev+0xe>
    4ee5:	ba 00 00 00 00       	mov    edx,0x0
    4eea:	be 00 00 00 00       	mov    esi,0x0
    4eef:	bf 00 00 00 00       	mov    edi,0x0
    4ef4:	e8 00 00 00 00       	call   4ef9 <_GLOBAL__sub_I__ZN4mat2C2Ev+0x22>
    4ef9:	48 83 c4 08          	add    rsp,0x8
    4efd:	c3                   	ret    

Desensamblado de la sección .bss:

0000000000000000 <_ZStL8__ioinit>:
	...

Desensamblado de la sección .rodata.str1.1:

0000000000000000 <.LC1>:
   0:	20 00                	and    BYTE PTR [rax],al

0000000000000002 <.LC2>:
   2:	72 65                	jb     69 <.LC3+0x62>
   4:	61                   	(bad)  
   5:	64 00 77 72          	add    BYTE PTR fs:[rdi+0x72],dh

0000000000000007 <.LC3>:
   7:	77 72                	ja     7b <.LC29+0x2>
   9:	69 74 65 00 77 72 69 	imul   esi,DWORD PTR [rbp+riz*2+0x0],0x74697277
  10:	74 
  11:	65 5f                	gs pop rdi
  13:	61                   	(bad)  
  14:	70 70                	jo     86 <.LC29+0xd>
  16:	65 6e                	outs   dx,BYTE PTR gs:[rsi]
  18:	64 69 6e 67 00 0a 00 	imul   ebp,DWORD PTR fs:[rsi+0x67],0x25000a00
  1f:	25 
  20:	20 0a                	and    BYTE PTR [rdx],cl
  22:	00 78 4d             	add    BYTE PTR [rax+0x4d],bh
  25:	61                   	(bad)  
  26:	78 00                	js     28 <.LC3+0x21>
  28:	79 4d                	jns    77 <.LC3+0x70>
  2a:	61                   	(bad)  
  2b:	78 00                	js     2d <.LC3+0x26>
  2d:	74 4d                	je     7c <.LC29+0x3>
  2f:	61                   	(bad)  
  30:	78 00                	js     32 <.LC3+0x2b>
  32:	6e                   	outs   dx,BYTE PTR ds:[rsi]
  33:	75 00                	jne    35 <.LC3+0x2e>
  35:	72 68                	jb     9f <.LC31+0x17>
  37:	6f                   	outs   dx,DWORD PTR ds:[rsi]
  38:	00 64 78 00          	add    BYTE PTR [rax+rdi*2+0x0],ah
  3c:	64 79 00             	fs jns 3f <.LC3+0x38>
  3f:	64 74 00             	fs je  42 <.LC3+0x3b>
  42:	61                   	(bad)  
  43:	6c                   	ins    BYTE PTR es:[rdi],dx
  44:	00 70 72             	add    BYTE PTR [rax+0x72],dh
  47:	69 6e 74 50 65 72 63 	imul   ebp,DWORD PTR [rsi+0x74],0x63726550
  4e:	65 6e                	outs   dx,BYTE PTR gs:[rsi]
  50:	74 61                	je     b3 <.LC32+0x10>
  52:	67 65 53             	addr32 gs push rbx
  55:	74 65                	je     bc <.LC34+0x1>
  57:	70 73                	jo     cc <.LC34+0x11>
  59:	00 70 72             	add    BYTE PTR [rax+0x72],dh
  5c:	69 6e 74 50 65 72 63 	imul   ebp,DWORD PTR [rsi+0x74],0x63726550
  63:	65 6e                	outs   dx,BYTE PTR gs:[rsi]
  65:	74 61                	je     c8 <.LC34+0xd>
  67:	67 65 00 70 65       	add    BYTE PTR gs:[eax+0x65],dh
  6c:	72 63                	jb     d1 <.LC34+0x16>
  6e:	65 6e                	outs   dx,BYTE PTR gs:[rsi]
  70:	74 61                	je     d3 <.LC34+0x18>
  72:	67 65 53             	addr32 gs push rbx
  75:	74 6f                	je     e6 <.LC34+0x2b>
  77:	70 00                	jo     79 <.LC29>

0000000000000079 <.LC29>:
  79:	70 61                	jo     dc <.LC34+0x21>
  7b:	72 61                	jb     de <.LC34+0x23>
  7d:	6d                   	ins    DWORD PTR es:[rdi],dx
  7e:	65 74 65             	gs je  e6 <.LC34+0x2b>
  81:	72 73                	jb     f6 <.LC34+0x3b>
  83:	2e 74 78             	cs je  fe <.LC39+0x2>
  86:	74 00                	je     88 <.LC31>

0000000000000088 <.LC31>:
  88:	23 20                	and    esp,DWORD PTR [rax]
  8a:	76 74                	jbe    100 <.LC39+0x4>
  8c:	6b 20 44             	imul   esp,DWORD PTR [rax],0x44
  8f:	61                   	(bad)  
  90:	74 61                	je     f3 <.LC34+0x38>
  92:	46 69 6c 65 20 56 65 	imul   r13d,DWORD PTR [rbp+r12*2+0x20],0x73726556
  99:	72 73 
  9b:	69 6f 6e 20 32 2e 30 	imul   ebp,DWORD PTR [rdi+0x6e],0x302e3220
	...

00000000000000a3 <.LC32>:
  a3:	43 6f                	rex.XB outs dx,DWORD PTR ds:[rsi]
  a5:	6d                   	ins    DWORD PTR es:[rdi],dx
  a6:	6d                   	ins    DWORD PTR es:[rdi],dx
  a7:	65 6e                	outs   dx,BYTE PTR gs:[rsi]
  a9:	74 20                	je     cb <.LC34+0x10>
  ab:	67 6f                	outs   dx,DWORD PTR ds:[esi]
  ad:	65 73 20             	gs jae d0 <.LC34+0x15>
  b0:	68 65 72 65 00       	push   0x657265

00000000000000b5 <.LC33>:
  b5:	41 53                	push   r11
  b7:	43                   	rex.XB
  b8:	49                   	rex.WB
  b9:	49 00 44 41 54       	rex.WB add BYTE PTR [r9+rax*2+0x54],al

00000000000000bb <.LC34>:
  bb:	44                   	rex.R
  bc:	41 54                	push   r12
  be:	41 53                	push   r11
  c0:	45 54                	rex.RB push r12
  c2:	20 53 54             	and    BYTE PTR [rbx+0x54],dl
  c5:	52                   	push   rdx
  c6:	55                   	push   rbp
  c7:	43 54                	rex.XB push r12
  c9:	55                   	push   rbp
  ca:	52                   	push   rdx
  cb:	45                   	rex.RB
  cc:	44 5f                	rex.R pop rdi
  ce:	50                   	push   rax
  cf:	4f                   	rex.WRXB
  d0:	49                   	rex.WB
  d1:	4e 54                	rex.WRX push rsp
  d3:	53                   	push   rbx
  d4:	00 25 64 00 44 49    	add    BYTE PTR [rip+0x49440064],ah        # 4944013e <_GLOBAL__sub_I__ZN4mat2C2Ev+0x4943b267>
  da:	4d                   	rex.WRB
  db:	45                   	rex.RB
  dc:	4e 53                	rex.WRX push rbx
  de:	49                   	rex.WB
  df:	4f                   	rex.WRXB
  e0:	4e 53                	rex.WRX push rbx
  e2:	20 00                	and    BYTE PTR [rax],al
  e4:	62 61                	(bad)  
  e6:	73 69                	jae    151 <.LC44+0x30>
  e8:	63 5f 73             	movsxd ebx,DWORD PTR [rdi+0x73]
  eb:	74 72                	je     15f <.LC44+0x3e>
  ed:	69 6e 67 3a 3a 61 70 	imul   ebp,DWORD PTR [rsi+0x67],0x70613a3a
  f4:	70 65                	jo     15b <.LC44+0x3a>
  f6:	6e                   	outs   dx,BYTE PTR ds:[rsi]
  f7:	64 00 20             	add    BYTE PTR fs:[rax],ah
  fa:	31 00                	xor    DWORD PTR [rax],eax

00000000000000fc <.LC39>:
  fc:	4f 52                	rex.WRXB push r10
  fe:	49                   	rex.WB
  ff:	47                   	rex.RXB
 100:	49                   	rex.WB
 101:	4e 20 30             	rex.WRX and BYTE PTR [rax],r14b
 104:	20 30                	and    BYTE PTR [rax],dh
 106:	20 30                	and    BYTE PTR [rax],dh
 108:	00 25 66 00 53 50    	add    BYTE PTR [rip+0x50530066],ah        # 50530174 <_GLOBAL__sub_I__ZN4mat2C2Ev+0x5052b29d>
 10e:	41                   	rex.B
 10f:	43                   	rex.XB
 110:	49                   	rex.WB
 111:	4e                   	rex.WRX
 112:	47 20 00             	rex.RXB and BYTE PTR [r8],r8b
 115:	50                   	push   rax
 116:	4f                   	rex.WRXB
 117:	49                   	rex.WB
 118:	4e 54                	rex.WRX push rsp
 11a:	5f                   	pop    rdi
 11b:	44                   	rex.R
 11c:	41 54                	push   r12
 11e:	41 20 00             	and    BYTE PTR [r8],al

0000000000000121 <.LC44>:
 121:	4c                   	rex.WR
 122:	4f                   	rex.WRXB
 123:	4f                   	rex.WRXB
 124:	4b 55                	rex.WXB push r13
 126:	50                   	push   rax
 127:	5f                   	pop    rdi
 128:	54                   	push   rsp
 129:	41                   	rex.B
 12a:	42                   	rex.X
 12b:	4c                   	rex.WR
 12c:	45 20 64 65 66       	and    BYTE PTR [r13+riz*2+0x66],r12b
 131:	61                   	(bad)  
 132:	75 6c                	jne    1a0 <.LC44+0x7f>
 134:	74 00                	je     136 <.LC44+0x15>
 136:	2e 2f                	cs (bad) 
 138:	6f                   	outs   dx,DWORD PTR ds:[rsi]
 139:	75 74                	jne    1af <_ZN4mat24rowsEv+0x1>
 13b:	2f                   	(bad)  
 13c:	6e                   	outs   dx,BYTE PTR ds:[rsi]
 13d:	6f                   	outs   dx,DWORD PTR ds:[rsi]
 13e:	72 6d                	jb     1ad <_ZN4mat24colsEv+0x9>
 140:	5f                   	pop    rdi
 141:	00 2e                	add    BYTE PTR [rsi],ch
 143:	76 74                	jbe    1b9 <_ZN4mat25printEv+0x1>
 145:	6b 00 2e             	imul   eax,DWORD PTR [rax],0x2e
 148:	2f                   	(bad)  
 149:	6f                   	outs   dx,DWORD PTR ds:[rsi]
 14a:	75 74                	jne    1c0 <_ZN4mat25printEv+0x8>
 14c:	2f                   	(bad)  
 14d:	55                   	push   rbp
 14e:	5f                   	pop    rdi
 14f:	00 2e                	add    BYTE PTR [rsi],ch
 151:	2f                   	(bad)  
 152:	6f                   	outs   dx,DWORD PTR ds:[rsi]
 153:	75 74                	jne    1c9 <_ZN4mat25printEv+0x11>
 155:	2f                   	(bad)  
 156:	56                   	push   rsi
 157:	5f                   	pop    rdi
 158:	00 2e                	add    BYTE PTR [rsi],ch
 15a:	2f                   	(bad)  
 15b:	6f                   	outs   dx,DWORD PTR ds:[rsi]
 15c:	75 74                	jne    1d2 <_ZN4mat25printEv+0x1a>
 15e:	2f                   	(bad)  
 15f:	50                   	push   rax
 160:	5f                   	pop    rdi
	...

Desensamblado de la sección .rodata.str1.8:

0000000000000000 <.LC43-0xd0>:
   0:	45 72 72             	rex.RB jb 75 <.LC43-0x5b>
   3:	6f                   	outs   dx,DWORD PTR ds:[rsi]
   4:	72 3a                	jb     40 <.LC43-0x90>
   6:	20 76 61             	and    BYTE PTR [rsi+0x61],dh
   9:	6c                   	ins    BYTE PTR es:[rdi],dx
   a:	69 64 20 69 6f 20 74 	imul   esp,DWORD PTR [rax+riz*1+0x69],0x7974206f
  11:	79 
  12:	70 65                	jo     79 <.LC43-0x57>
  14:	73 20                	jae    36 <.LC43-0x9a>
  16:	61                   	(bad)  
  17:	72 65                	jb     7e <.LC43-0x52>
  19:	20 72 65             	and    BYTE PTR [rdx+0x65],dh
  1c:	61                   	(bad)  
  1d:	64 2c 20             	fs sub al,0x20
  20:	77 72                	ja     94 <.LC43-0x3c>
  22:	69 74 65 20 61 6e 64 	imul   esi,DWORD PTR [rbp+riz*2+0x20],0x20646e61
  29:	20 
  2a:	72 65                	jb     91 <.LC43-0x3f>
  2c:	61                   	(bad)  
  2d:	64 5f                	fs pop rdi
  2f:	77 72                	ja     a3 <.LC43-0x2d>
  31:	69 74 65 5f 61 70 70 	imul   esi,DWORD PTR [rbp+riz*2+0x5f],0x65707061
  38:	65 
  39:	6e                   	outs   dx,BYTE PTR ds:[rsi]
  3a:	64 69 6e 67 00 00 45 	imul   ebp,DWORD PTR fs:[rsi+0x67],0x72450000
  41:	72 
  42:	72 6f                	jb     b3 <.LC43-0x1d>
  44:	72 3a                	jb     80 <.LC43-0x50>
  46:	20 54 72 79          	and    BYTE PTR [rdx+rsi*2+0x79],dl
  4a:	69 6e 67 20 74 6f 20 	imul   ebp,DWORD PTR [rsi+0x67],0x206f7420
  51:	77 72                	ja     c5 <.LC43-0xb>
  53:	69 74 65 20 74 6f 20 	imul   esi,DWORD PTR [rbp+riz*2+0x20],0x72206f74
  5a:	72 
  5b:	65 61                	gs (bad) 
  5d:	64 20 6f 6e          	and    BYTE PTR fs:[rdi+0x6e],ch
  61:	6c                   	ins    BYTE PTR es:[rdi],dx
  62:	79 20                	jns    84 <.LC43-0x4c>
  64:	69 6f 00 00 57 61 72 	imul   ebp,DWORD PTR [rdi+0x0],0x72615700
  6b:	6e                   	outs   dx,BYTE PTR ds:[rsi]
  6c:	69 6e 67 3a 20 54 72 	imul   ebp,DWORD PTR [rsi+0x67],0x7254203a
  73:	79 69                	jns    de <.LC43+0xe>
  75:	6e                   	outs   dx,BYTE PTR ds:[rsi]
  76:	67 20 74 6f 20       	and    BYTE PTR [edi+ebp*2+0x20],dh
  7b:	73 65                	jae    e2 <.LC43+0x12>
  7d:	74 20                	je     9f <.LC43-0x31>
  7f:	77 72                	ja     f3 <_ZN4mat23addEiif+0xd>
  81:	69 74 65 20 6f 6e 6c 	imul   esi,DWORD PTR [rbp+riz*2+0x20],0x796c6e6f
  88:	79 
  89:	20 66 69             	and    BYTE PTR [rsi+0x69],ah
  8c:	6c                   	ins    BYTE PTR es:[rdi],dx
  8d:	65 20 61 73          	and    BYTE PTR gs:[rcx+0x73],ah
  91:	20 72 65             	and    BYTE PTR [rdx+0x65],dh
  94:	61                   	(bad)  
  95:	64 20 6f 6e          	and    BYTE PTR fs:[rdi+0x6e],ch
  99:	6c                   	ins    BYTE PTR es:[rdi],dx
  9a:	74 79                	je     115 <_ZN4mat27copyAllERS_+0x3>
  9c:	2e 00 00             	add    BYTE PTR cs:[rax],al
  9f:	00 62 61             	add    BYTE PTR [rdx+0x61],ah
  a2:	73 69                	jae    10d <_ZN4mat22atEii+0xd>
  a4:	63 5f 73             	movsxd ebx,DWORD PTR [rdi+0x73]
  a7:	74 72                	je     11b <_ZN4mat27copyAllERS_+0x9>
  a9:	69 6e 67 3a 3a 5f 4d 	imul   ebp,DWORD PTR [rsi+0x67],0x4d5f3a3a
  b0:	5f                   	pop    rdi
  b1:	63 6f 6e             	movsxd ebp,DWORD PTR [rdi+0x6e]
  b4:	73 74                	jae    12a <.LC44+0x9>
  b6:	72 75                	jb     12d <.LC44+0xc>
  b8:	63 74 20 6e          	movsxd esi,DWORD PTR [rax+riz*1+0x6e]
  bc:	75 6c                	jne    12a <.LC44+0x9>
  be:	6c                   	ins    BYTE PTR es:[rdi],dx
  bf:	20 6e 6f             	and    BYTE PTR [rsi+0x6f],ch
  c2:	74 20                	je     e4 <.LC43+0x14>
  c4:	76 61                	jbe    127 <.LC44+0x6>
  c6:	6c                   	ins    BYTE PTR es:[rdi],dx
  c7:	69 64 00 00 00 00 00 	imul   esp,DWORD PTR [rax+rax*1+0x0],0x0
  ce:	00 
	...

00000000000000d0 <.LC43>:
  d0:	53                   	push   rbx
  d1:	43                   	rex.XB
  d2:	41                   	rex.B
  d3:	4c                   	rex.WR
  d4:	41 52                	push   r10
  d6:	53                   	push   rbx
  d7:	20 76 6f             	and    BYTE PTR [rsi+0x6f],dh
  da:	6c                   	ins    BYTE PTR es:[rdi],dx
  db:	75 6d                	jne    14a <.LC44+0x29>
  dd:	65 5f                	gs pop rdi
  df:	73 63                	jae    144 <.LC44+0x23>
  e1:	61                   	(bad)  
  e2:	6c                   	ins    BYTE PTR es:[rdi],dx
  e3:	61                   	(bad)  
  e4:	72 73                	jb     159 <.LC44+0x38>
  e6:	20 66 6c             	and    BYTE PTR [rsi+0x6c],ah
  e9:	6f                   	outs   dx,DWORD PTR ds:[rsi]
  ea:	61                   	(bad)  
  eb:	74 20                	je     10d <_ZN4mat22atEii+0xd>
  ed:	31 00                	xor    DWORD PTR [rax],eax

Desensamblado de la sección .gcc_except_table:

0000000000000000 <.gcc_except_table>:
   0:	ff                   	(bad)  
   1:	ff 01                	inc    DWORD PTR [rcx]
   3:	30 d9                	xor    cl,bl
   5:	01 05 b3 02 00 f8    	add    DWORD PTR [rip+0xfffffffff80002b3],eax        # fffffffff80002be <_GLOBAL__sub_I__ZN4mat2C2Ev+0xfffffffff7ffb3e7>
   b:	01 05 9a 02 00 83    	add    DWORD PTR [rip+0xffffffff8300029a],eax        # ffffffff830002ab <_GLOBAL__sub_I__ZN4mat2C2Ev+0xffffffff82ffb3d4>
  11:	02 05 8a 02 00 f3    	add    al,BYTE PTR [rip+0xfffffffff300028a]        # fffffffff30002a1 <_GLOBAL__sub_I__ZN4mat2C2Ev+0xfffffffff2ffb3ca>
  17:	03 05 e0 04 00 98    	add    eax,DWORD PTR [rip+0xffffffff980004e0]        # ffffffff980004fd <_GLOBAL__sub_I__ZN4mat2C2Ev+0xffffffff97ffb626>
  1d:	04 05                	add    al,0x5
  1f:	ba 04 00 a3 04       	mov    edx,0x4a30004
  24:	05 aa 04 00 82       	add    eax,0x820004aa
  29:	05 96 03 9a 08       	add    eax,0x89a0396
  2e:	00 cf                	add    bh,cl
  30:	08 05 00 00 ff ff    	or     BYTE PTR [rip+0xffffffffffff0000],al        # ffffffffffff0036 <_GLOBAL__sub_I__ZN4mat2C2Ev+0xfffffffffffeb15f>
  36:	01 00                	add    DWORD PTR [rax],eax
  38:	ff                   	(bad)  
  39:	ff 01                	inc    DWORD PTR [rcx]
  3b:	1b 4a 05             	sbb    ecx,DWORD PTR [rdx+0x5]
  3e:	00 00                	add    BYTE PTR [rax],al
  40:	78 05                	js     47 <.gcc_except_table+0x47>
  42:	ba 06 00 96 01       	mov    edx,0x1960006
  47:	05 9d 06 00 84       	add    eax,0x8400069d
  4c:	02 e4                	add    ah,ah
  4e:	03 dd                	add    ebx,ebp
  50:	06                   	(bad)  
  51:	00 d8                	add    al,bl
  53:	06                   	(bad)  
  54:	34 00                	xor    al,0x0
  56:	00 ff                	add    bh,bh
  58:	ff 01                	inc    DWORD PTR [rcx]
  5a:	18 ba 03 05 86 08    	sbb    BYTE PTR [rdx+0x8860503],bh
  60:	00 ca                	add    dl,cl
  62:	03 05 ef 07 00 99    	add    eax,DWORD PTR [rip+0xffffffff990007ef]        # ffffffff99000857 <_GLOBAL__sub_I__ZN4mat2C2Ev+0xffffffff98ffb980>
  68:	05 8c 02 86 08       	add    eax,0x886028c
  6d:	00 e0                	add    al,ah
  6f:	08 05 00 00 ff ff    	or     BYTE PTR [rip+0xffffffffffff0000],al        # ffffffffffff0075 <_GLOBAL__sub_I__ZN4mat2C2Ev+0xfffffffffffeb19e>
  75:	01 0c 1e             	add    DWORD PTR [rsi+rbx*1],ecx
  78:	05 00 00 26 05       	add    eax,0x5260000
  7d:	4d 00 5b 05          	rex.WRB add BYTE PTR [r11+0x5],r11b
  81:	00 00                	add    BYTE PTR [rax],al
  83:	ff                   	(bad)  
  84:	ff 01                	inc    DWORD PTR [rcx]
  86:	e1 01                	loope  89 <.gcc_except_table+0x89>
  88:	51                   	push   rcx
  89:	05 00 00 7d 05       	add    eax,0x57d0000
  8e:	9d                   	popf   
  8f:	19 00                	sbb    DWORD PTR [rax],eax
  91:	9b                   	fwait
  92:	01 05 80 19 00 f9    	add    DWORD PTR [rip+0xfffffffff9001980],eax        # fffffffff9001a18 <_GLOBAL__sub_I__ZN4mat2C2Ev+0xfffffffff8ffcb41>
  98:	01 05 ef 1e 00 90    	add    DWORD PTR [rip+0xffffffff90001eef],eax        # ffffffff90001f8d <_GLOBAL__sub_I__ZN4mat2C2Ev+0xffffffff8fffd0b6>
  9e:	02 05 c0 19 00 b4    	add    al,BYTE PTR [rip+0xffffffffb40019c0]        # ffffffffb4001a64 <_GLOBAL__sub_I__ZN4mat2C2Ev+0xffffffffb3ffcb8d>
  a4:	02 33                	add    dh,BYTE PTR [rbx]
  a6:	ef                   	out    dx,eax
  a7:	1e                   	(bad)  
  a8:	00 f9                	add    cl,bh
  aa:	02 05 e4 19 00 9d    	add    al,BYTE PTR [rip+0xffffffff9d0019e4]        # ffffffff9d001a94 <_GLOBAL__sub_I__ZN4mat2C2Ev+0xffffffff9cffcbbd>
  b0:	03 33                	add    esi,DWORD PTR [rbx]
  b2:	ef                   	out    dx,eax
  b3:	1e                   	(bad)  
  b4:	00 e2                	add    dl,ah
  b6:	03 05 88 1a 00 86    	add    eax,DWORD PTR [rip+0xffffffff86001a88]        # ffffffff86001b44 <_GLOBAL__sub_I__ZN4mat2C2Ev+0xffffffff85ffcc6d>
  bc:	04 33                	add    al,0x33
  be:	ef                   	out    dx,eax
  bf:	1e                   	(bad)  
  c0:	00 cb                	add    bl,cl
  c2:	04 05                	add    al,0x5
  c4:	ac                   	lods   al,BYTE PTR ds:[rsi]
  c5:	1a 00                	sbb    al,BYTE PTR [rax]
  c7:	ef                   	out    dx,eax
  c8:	04 29                	add    al,0x29
  ca:	ef                   	out    dx,eax
  cb:	1e                   	(bad)  
  cc:	00 b7 05 05 e1 1b    	add    BYTE PTR [rdi+0x1be10505],dh
  d2:	00 d8                	add    al,bl
  d4:	05 05 c4 1b 00       	add    eax,0x1bc405
  d9:	d3 06                	rol    DWORD PTR [rsi],cl
  db:	1b a7 1b 00 b8 08    	sbb    esp,DWORD PTR [rdi+0x8b8001b]
  e1:	1a 8a 1b 00 cc 09    	sbb    cl,BYTE PTR [rdx+0x9cc001b]
  e7:	1b ed                	sbb    ebp,ebp
  e9:	1a 00                	sbb    al,BYTE PTR [rax]
  eb:	d3 0a                	ror    DWORD PTR [rdx],cl
  ed:	05 d0 1a 00 ef       	add    eax,0xef001ad0
  f2:	0b 33                	or     esi,DWORD PTR [rbx]
  f4:	ef                   	out    dx,eax
  f5:	1e                   	(bad)  
  f6:	00 b4 0c 05 85 1c 00 	add    BYTE PTR [rsp+rcx*1+0x1c8505],dh
  fd:	d8 0c 2b             	fmul   DWORD PTR [rbx+rbp*1]
 100:	ef                   	out    dx,eax
 101:	1e                   	(bad)  
 102:	00 a4 0d 05 ba 1d 00 	add    BYTE PTR [rbp+rcx*1+0x1dba05],ah
 109:	c5 0d 05             	(bad)  
 10c:	9d                   	popf   
 10d:	1d 00 c0 0e 1b       	sbb    eax,0x1b0ec000
 112:	80 1d 00 a5 10 1a e3 	sbb    BYTE PTR [rip+0x1a10a500],0xe3        # 1a10a619 <_GLOBAL__sub_I__ZN4mat2C2Ev+0x1a105742>
 119:	1c 00                	sbb    al,0x0
 11b:	b9 11 1b c6 1c       	mov    ecx,0x1cc61b11
 120:	00 c0                	add    al,al
 122:	12 05 a9 1c 00 dc    	adc    al,BYTE PTR [rip+0xffffffffdc001ca9]        # ffffffffdc001dd1 <_GLOBAL__sub_I__ZN4mat2C2Ev+0xffffffffdbffcefa>
 128:	13 2e                	adc    ebp,DWORD PTR [rsi]
 12a:	ef                   	out    dx,eax
 12b:	1e                   	(bad)  
 12c:	00 a6 14 05 fb 1d    	add    BYTE PTR [rsi+0x1dfb0514],ah
 132:	00 97 15 05 de 1d    	add    BYTE PTR [rdi+0x1dde0515],dl
 138:	00 d3                	add    bl,dl
 13a:	15 33 ef 1e 00       	adc    eax,0x1eef33
 13f:	98                   	cwde   
 140:	16                   	(bad)  
 141:	05 98 1e 00 bc       	add    eax,0xbc001e98
 146:	16                   	(bad)  
 147:	33 ef                	xor    ebp,edi
 149:	1e                   	(bad)  
 14a:	00 81 17 05 b5 1e    	add    BYTE PTR [rcx+0x1eb50517],al
 150:	00 a5 17 6c ef 1e    	add    BYTE PTR [rbp+0x1eef6c17],ah
 156:	00 a3 18 05 d2 1e    	add    BYTE PTR [rbx+0x1ed20518],ah
 15c:	00 d7                	add    bh,dl
 15e:	18 05 ef 1e 00 bb    	sbb    BYTE PTR [rip+0xffffffffbb001eef],al        # ffffffffbb002053 <_GLOBAL__sub_I__ZN4mat2C2Ev+0xffffffffbaffd17c>
 164:	19 cb                	sbb    ebx,ecx
 166:	05 00 00 ff ff       	add    eax,0xffff0000
 16b:	01 75 be             	add    DWORD PTR [rbp-0x42],esi
 16e:	01 05 b3 03 00 fe    	add    DWORD PTR [rip+0xfffffffffe0003b3],eax        # fffffffffe000527 <_GLOBAL__sub_I__ZN4mat2C2Ev+0xfffffffffdffb650>
 174:	02 05 85 03 00 d0    	add    al,BYTE PTR [rip+0xffffffffd0000385]        # ffffffffd00004ff <_GLOBAL__sub_I__ZN4mat2C2Ev+0xffffffffcfffb628>
 17a:	03 05 00 00 e6 04    	add    eax,DWORD PTR [rip+0x4e60000]        # 4e60180 <_GLOBAL__sub_I__ZN4mat2C2Ev+0x4e5b2a9>
 180:	05 db 06 00 a6       	add    eax,0xa60006db
 185:	06                   	(bad)  
 186:	05 ad 06 00 8b       	add    eax,0x8b0006ad
 18b:	08 05 80 0a 00 cb    	or     BYTE PTR [rip+0xffffffffcb000a80],al        # ffffffffcb000c11 <_GLOBAL__sub_I__ZN4mat2C2Ev+0xffffffffcaffbd3a>
 191:	09 05 d2 09 00 9b    	or     DWORD PTR [rip+0xffffffff9b0009d2],eax        # ffffffff9b000b69 <_GLOBAL__sub_I__ZN4mat2C2Ev+0xffffffff9affbc92>
 197:	0b 05 90 0d 00 db    	or     eax,DWORD PTR [rip+0xffffffffdb000d90]        # ffffffffdb000f2d <_GLOBAL__sub_I__ZN4mat2C2Ev+0xffffffffdaffc056>
 19d:	0c 05                	or     al,0x5
 19f:	e2 0c                	loop   1ad <.gcc_except_table+0x1ad>
 1a1:	00 c4                	add    ah,al
 1a3:	0d 98 02 be 22       	or     eax,0x22be0298
 1a8:	00 b0 12 b4 01 e6    	add    BYTE PTR [rax-0x19fe4bee],dh
 1ae:	13 00                	adc    eax,DWORD PTR [rax]
 1b0:	97                   	xchg   edi,eax
 1b1:	14 05                	adc    al,0x5
 1b3:	be 21 00 95 15       	mov    esi,0x15950021
 1b8:	b4 01                	mov    ah,0x1
 1ba:	cb                   	retf   
 1bb:	16                   	(bad)  
 1bc:	00 80 17 05 db 21    	add    BYTE PTR [rax+0x21db0517],al
 1c2:	00 fe                	add    dh,bh
 1c4:	17                   	(bad)  
 1c5:	b4 01                	mov    ah,0x1
 1c7:	b4 19                	mov    ah,0x19
 1c9:	00 e9                	add    cl,ch
 1cb:	19 05 f8 21 00 e7    	sbb    DWORD PTR [rip+0xffffffffe70021f8],eax        # ffffffffe70023c9 <_GLOBAL__sub_I__ZN4mat2C2Ev+0xffffffffe6ffd4f2>
 1d1:	1a b4 01 9d 1c 00 d2 	sbb    dh,BYTE PTR [rcx+rax*1-0x2dffe363]
 1d8:	1c 05                	sbb    al,0x5
 1da:	95                   	xchg   ebp,eax
 1db:	22 00                	and    al,BYTE PTR [rax]
 1dd:	f4                   	hlt    
 1de:	22                   	.byte 0x22
 1df:	05                   	.byte 0x5
	...

Desensamblado de la sección .text._ZN9simulatorD2Ev:

0000000000000000 <_ZN9simulatorD1Ev>:
   0:	53                   	push   rbx
   1:	48 89 fb             	mov    rbx,rdi
   4:	48 8d bf 30 01 00 00 	lea    rdi,[rdi+0x130]
   b:	e8 00 00 00 00       	call   10 <_ZN9simulatorD1Ev+0x10>
  10:	48 8d bb 20 01 00 00 	lea    rdi,[rbx+0x120]
  17:	e8 00 00 00 00       	call   1c <_ZN9simulatorD1Ev+0x1c>
  1c:	48 8d bb 10 01 00 00 	lea    rdi,[rbx+0x110]
  23:	e8 00 00 00 00       	call   28 <_ZN9simulatorD1Ev+0x28>
  28:	48 8d bb 00 01 00 00 	lea    rdi,[rbx+0x100]
  2f:	e8 00 00 00 00       	call   34 <_ZN9simulatorD1Ev+0x34>
  34:	48 8d bb f0 00 00 00 	lea    rdi,[rbx+0xf0]
  3b:	e8 00 00 00 00       	call   40 <_ZN9simulatorD1Ev+0x40>
  40:	48 8d bb e0 00 00 00 	lea    rdi,[rbx+0xe0]
  47:	e8 00 00 00 00       	call   4c <_ZN9simulatorD1Ev+0x4c>
  4c:	48 8d bb d0 00 00 00 	lea    rdi,[rbx+0xd0]
  53:	e8 00 00 00 00       	call   58 <_ZN9simulatorD1Ev+0x58>
  58:	48 8d bb c0 00 00 00 	lea    rdi,[rbx+0xc0]
  5f:	e8 00 00 00 00       	call   64 <_ZN9simulatorD1Ev+0x64>
  64:	48 8d bb b0 00 00 00 	lea    rdi,[rbx+0xb0]
  6b:	e8 00 00 00 00       	call   70 <_ZN9simulatorD1Ev+0x70>
  70:	5b                   	pop    rbx
  71:	c3                   	ret    

Desensamblado de la sección .text._ZNSt7__cxx1115basic_stringbufIcSt11char_traitsIcESaIcEED2Ev:

0000000000000000 <_ZNSt7__cxx1115basic_stringbufIcSt11char_traitsIcESaIcEED1Ev>:
   0:	53                   	push   rbx
   1:	48 89 fb             	mov    rbx,rdi
   4:	48 c7 07 00 00 00 00 	mov    QWORD PTR [rdi],0x0
   b:	48 8b 7f 48          	mov    rdi,QWORD PTR [rdi+0x48]
   f:	48 8d 43 58          	lea    rax,[rbx+0x58]
  13:	48 39 c7             	cmp    rdi,rax
  16:	74 05                	je     1d <_ZNSt7__cxx1115basic_stringbufIcSt11char_traitsIcESaIcEED1Ev+0x1d>
  18:	e8 00 00 00 00       	call   1d <_ZNSt7__cxx1115basic_stringbufIcSt11char_traitsIcESaIcEED1Ev+0x1d>
  1d:	48 c7 03 00 00 00 00 	mov    QWORD PTR [rbx],0x0
  24:	48 8d 7b 38          	lea    rdi,[rbx+0x38]
  28:	e8 00 00 00 00       	call   2d <_ZNSt7__cxx1115basic_stringbufIcSt11char_traitsIcESaIcEED1Ev+0x2d>
  2d:	5b                   	pop    rbx
  2e:	c3                   	ret    

Desensamblado de la sección .text._ZNSt7__cxx1115basic_stringbufIcSt11char_traitsIcESaIcEED0Ev:

0000000000000000 <_ZNSt7__cxx1115basic_stringbufIcSt11char_traitsIcESaIcEED0Ev>:
   0:	53                   	push   rbx
   1:	48 89 fb             	mov    rbx,rdi
   4:	48 c7 07 00 00 00 00 	mov    QWORD PTR [rdi],0x0
   b:	48 8b 7f 48          	mov    rdi,QWORD PTR [rdi+0x48]
   f:	48 8d 43 58          	lea    rax,[rbx+0x58]
  13:	48 39 c7             	cmp    rdi,rax
  16:	74 05                	je     1d <_ZNSt7__cxx1115basic_stringbufIcSt11char_traitsIcESaIcEED0Ev+0x1d>
  18:	e8 00 00 00 00       	call   1d <_ZNSt7__cxx1115basic_stringbufIcSt11char_traitsIcESaIcEED0Ev+0x1d>
  1d:	48 c7 03 00 00 00 00 	mov    QWORD PTR [rbx],0x0
  24:	48 8d 7b 38          	lea    rdi,[rbx+0x38]
  28:	e8 00 00 00 00       	call   2d <_ZNSt7__cxx1115basic_stringbufIcSt11char_traitsIcESaIcEED0Ev+0x2d>
  2d:	48 89 df             	mov    rdi,rbx
  30:	e8 00 00 00 00       	call   35 <_ZNSt7__cxx1115basic_stringbufIcSt11char_traitsIcESaIcEED0Ev+0x35>
  35:	5b                   	pop    rbx
  36:	c3                   	ret    

Desensamblado de la sección .text._ZNSt7__cxx1112basic_stringIcSt11char_traitsIcESaIcEE12_M_constructIPKcEEvT_S8_St20forward_iterator_tag:

0000000000000000 <_ZNSt7__cxx1112basic_stringIcSt11char_traitsIcESaIcEE12_M_constructIPKcEEvT_S8_St20forward_iterator_tag>:
   0:	41 54                	push   r12
   2:	55                   	push   rbp
   3:	53                   	push   rbx
   4:	48 83 ec 10          	sub    rsp,0x10
   8:	48 89 fd             	mov    rbp,rdi
   b:	49 89 f4             	mov    r12,rsi
   e:	64 48 8b 04 25 28 00 	mov    rax,QWORD PTR fs:0x28
  15:	00 00 
  17:	48 89 44 24 08       	mov    QWORD PTR [rsp+0x8],rax
  1c:	31 c0                	xor    eax,eax
  1e:	48 39 d6             	cmp    rsi,rdx
  21:	74 0f                	je     32 <_ZNSt7__cxx1112basic_stringIcSt11char_traitsIcESaIcEE12_M_constructIPKcEEvT_S8_St20forward_iterator_tag+0x32>
  23:	48 85 f6             	test   rsi,rsi
  26:	75 0a                	jne    32 <_ZNSt7__cxx1112basic_stringIcSt11char_traitsIcESaIcEE12_M_constructIPKcEEvT_S8_St20forward_iterator_tag+0x32>
  28:	bf 00 00 00 00       	mov    edi,0x0
  2d:	e8 00 00 00 00       	call   32 <_ZNSt7__cxx1112basic_stringIcSt11char_traitsIcESaIcEE12_M_constructIPKcEEvT_S8_St20forward_iterator_tag+0x32>
  32:	48 89 d3             	mov    rbx,rdx
  35:	4c 29 e3             	sub    rbx,r12
  38:	48 89 1c 24          	mov    QWORD PTR [rsp],rbx
  3c:	48 83 fb 0f          	cmp    rbx,0xf
  40:	76 1c                	jbe    5e <_ZNSt7__cxx1112basic_stringIcSt11char_traitsIcESaIcEE12_M_constructIPKcEEvT_S8_St20forward_iterator_tag+0x5e>
  42:	ba 00 00 00 00       	mov    edx,0x0
  47:	48 89 e6             	mov    rsi,rsp
  4a:	48 89 ef             	mov    rdi,rbp
  4d:	e8 00 00 00 00       	call   52 <_ZNSt7__cxx1112basic_stringIcSt11char_traitsIcESaIcEE12_M_constructIPKcEEvT_S8_St20forward_iterator_tag+0x52>
  52:	48 89 45 00          	mov    QWORD PTR [rbp+0x0],rax
  56:	48 8b 04 24          	mov    rax,QWORD PTR [rsp]
  5a:	48 89 45 10          	mov    QWORD PTR [rbp+0x10],rax
  5e:	48 8b 7d 00          	mov    rdi,QWORD PTR [rbp+0x0]
  62:	48 83 fb 01          	cmp    rbx,0x1
  66:	75 09                	jne    71 <_ZNSt7__cxx1112basic_stringIcSt11char_traitsIcESaIcEE12_M_constructIPKcEEvT_S8_St20forward_iterator_tag+0x71>
  68:	41 0f b6 04 24       	movzx  eax,BYTE PTR [r12]
  6d:	88 07                	mov    BYTE PTR [rdi],al
  6f:	eb 10                	jmp    81 <_ZNSt7__cxx1112basic_stringIcSt11char_traitsIcESaIcEE12_M_constructIPKcEEvT_S8_St20forward_iterator_tag+0x81>
  71:	48 85 db             	test   rbx,rbx
  74:	74 0b                	je     81 <_ZNSt7__cxx1112basic_stringIcSt11char_traitsIcESaIcEE12_M_constructIPKcEEvT_S8_St20forward_iterator_tag+0x81>
  76:	48 89 da             	mov    rdx,rbx
  79:	4c 89 e6             	mov    rsi,r12
  7c:	e8 00 00 00 00       	call   81 <_ZNSt7__cxx1112basic_stringIcSt11char_traitsIcESaIcEE12_M_constructIPKcEEvT_S8_St20forward_iterator_tag+0x81>
  81:	48 8b 04 24          	mov    rax,QWORD PTR [rsp]
  85:	48 89 45 08          	mov    QWORD PTR [rbp+0x8],rax
  89:	48 8b 55 00          	mov    rdx,QWORD PTR [rbp+0x0]
  8d:	c6 04 02 00          	mov    BYTE PTR [rdx+rax*1],0x0
  91:	48 8b 44 24 08       	mov    rax,QWORD PTR [rsp+0x8]
  96:	64 48 33 04 25 28 00 	xor    rax,QWORD PTR fs:0x28
  9d:	00 00 
  9f:	74 05                	je     a6 <_ZNSt7__cxx1112basic_stringIcSt11char_traitsIcESaIcEE12_M_constructIPKcEEvT_S8_St20forward_iterator_tag+0xa6>
  a1:	e8 00 00 00 00       	call   a6 <_ZNSt7__cxx1112basic_stringIcSt11char_traitsIcESaIcEE12_M_constructIPKcEEvT_S8_St20forward_iterator_tag+0xa6>
  a6:	48 83 c4 10          	add    rsp,0x10
  aa:	5b                   	pop    rbx
  ab:	5d                   	pop    rbp
  ac:	41 5c                	pop    r12
  ae:	c3                   	ret    

Desensamblado de la sección .text._ZNSt7__cxx1112basic_stringIcSt11char_traitsIcESaIcEE12_M_constructIPcEEvT_S7_St20forward_iterator_tag:

0000000000000000 <_ZNSt7__cxx1112basic_stringIcSt11char_traitsIcESaIcEE12_M_constructIPcEEvT_S7_St20forward_iterator_tag>:
   0:	41 54                	push   r12
   2:	55                   	push   rbp
   3:	53                   	push   rbx
   4:	48 83 ec 10          	sub    rsp,0x10
   8:	48 89 fd             	mov    rbp,rdi
   b:	49 89 f4             	mov    r12,rsi
   e:	64 48 8b 04 25 28 00 	mov    rax,QWORD PTR fs:0x28
  15:	00 00 
  17:	48 89 44 24 08       	mov    QWORD PTR [rsp+0x8],rax
  1c:	31 c0                	xor    eax,eax
  1e:	48 39 d6             	cmp    rsi,rdx
  21:	74 0f                	je     32 <_ZNSt7__cxx1112basic_stringIcSt11char_traitsIcESaIcEE12_M_constructIPcEEvT_S7_St20forward_iterator_tag+0x32>
  23:	48 85 f6             	test   rsi,rsi
  26:	75 0a                	jne    32 <_ZNSt7__cxx1112basic_stringIcSt11char_traitsIcESaIcEE12_M_constructIPcEEvT_S7_St20forward_iterator_tag+0x32>
  28:	bf 00 00 00 00       	mov    edi,0x0
  2d:	e8 00 00 00 00       	call   32 <_ZNSt7__cxx1112basic_stringIcSt11char_traitsIcESaIcEE12_M_constructIPcEEvT_S7_St20forward_iterator_tag+0x32>
  32:	48 89 d3             	mov    rbx,rdx
  35:	4c 29 e3             	sub    rbx,r12
  38:	48 89 1c 24          	mov    QWORD PTR [rsp],rbx
  3c:	48 83 fb 0f          	cmp    rbx,0xf
  40:	76 1c                	jbe    5e <_ZNSt7__cxx1112basic_stringIcSt11char_traitsIcESaIcEE12_M_constructIPcEEvT_S7_St20forward_iterator_tag+0x5e>
  42:	ba 00 00 00 00       	mov    edx,0x0
  47:	48 89 e6             	mov    rsi,rsp
  4a:	48 89 ef             	mov    rdi,rbp
  4d:	e8 00 00 00 00       	call   52 <_ZNSt7__cxx1112basic_stringIcSt11char_traitsIcESaIcEE12_M_constructIPcEEvT_S7_St20forward_iterator_tag+0x52>
  52:	48 89 45 00          	mov    QWORD PTR [rbp+0x0],rax
  56:	48 8b 04 24          	mov    rax,QWORD PTR [rsp]
  5a:	48 89 45 10          	mov    QWORD PTR [rbp+0x10],rax
  5e:	48 8b 7d 00          	mov    rdi,QWORD PTR [rbp+0x0]
  62:	48 83 fb 01          	cmp    rbx,0x1
  66:	75 09                	jne    71 <_ZNSt7__cxx1112basic_stringIcSt11char_traitsIcESaIcEE12_M_constructIPcEEvT_S7_St20forward_iterator_tag+0x71>
  68:	41 0f b6 04 24       	movzx  eax,BYTE PTR [r12]
  6d:	88 07                	mov    BYTE PTR [rdi],al
  6f:	eb 10                	jmp    81 <_ZNSt7__cxx1112basic_stringIcSt11char_traitsIcESaIcEE12_M_constructIPcEEvT_S7_St20forward_iterator_tag+0x81>
  71:	48 85 db             	test   rbx,rbx
  74:	74 0b                	je     81 <_ZNSt7__cxx1112basic_stringIcSt11char_traitsIcESaIcEE12_M_constructIPcEEvT_S7_St20forward_iterator_tag+0x81>
  76:	48 89 da             	mov    rdx,rbx
  79:	4c 89 e6             	mov    rsi,r12
  7c:	e8 00 00 00 00       	call   81 <_ZNSt7__cxx1112basic_stringIcSt11char_traitsIcESaIcEE12_M_constructIPcEEvT_S7_St20forward_iterator_tag+0x81>
  81:	48 8b 04 24          	mov    rax,QWORD PTR [rsp]
  85:	48 89 45 08          	mov    QWORD PTR [rbp+0x8],rax
  89:	48 8b 55 00          	mov    rdx,QWORD PTR [rbp+0x0]
  8d:	c6 04 02 00          	mov    BYTE PTR [rdx+rax*1],0x0
  91:	48 8b 44 24 08       	mov    rax,QWORD PTR [rsp+0x8]
  96:	64 48 33 04 25 28 00 	xor    rax,QWORD PTR fs:0x28
  9d:	00 00 
  9f:	74 05                	je     a6 <_ZNSt7__cxx1112basic_stringIcSt11char_traitsIcESaIcEE12_M_constructIPcEEvT_S7_St20forward_iterator_tag+0xa6>
  a1:	e8 00 00 00 00       	call   a6 <_ZNSt7__cxx1112basic_stringIcSt11char_traitsIcESaIcEE12_M_constructIPcEEvT_S7_St20forward_iterator_tag+0xa6>
  a6:	48 83 c4 10          	add    rsp,0x10
  aa:	5b                   	pop    rbx
  ab:	5d                   	pop    rbp
  ac:	41 5c                	pop    r12
  ae:	c3                   	ret    

Desensamblado de la sección .text._ZN9__gnu_cxx12__to_xstringINSt7__cxx1112basic_stringIcSt11char_traitsIcESaIcEEEcEET_PFiPT0_mPKS8_P13__va_list_tagEmSB_z:

0000000000000000 <_ZN9__gnu_cxx12__to_xstringINSt7__cxx1112basic_stringIcSt11char_traitsIcESaIcEEEcEET_PFiPT0_mPKS8_P13__va_list_tagEmSB_z>:
   0:	55                   	push   rbp
   1:	48 89 e5             	mov    rbp,rsp
   4:	41 54                	push   r12
   6:	53                   	push   rbx
   7:	48 81 ec d0 00 00 00 	sub    rsp,0xd0
   e:	49 89 fc             	mov    r12,rdi
  11:	49 89 f2             	mov    r10,rsi
  14:	48 89 d6             	mov    rsi,rdx
  17:	48 89 ca             	mov    rdx,rcx
  1a:	4c 89 85 60 ff ff ff 	mov    QWORD PTR [rbp-0xa0],r8
  21:	4c 89 8d 68 ff ff ff 	mov    QWORD PTR [rbp-0x98],r9
  28:	84 c0                	test   al,al
  2a:	74 23                	je     4f <_ZN9__gnu_cxx12__to_xstringINSt7__cxx1112basic_stringIcSt11char_traitsIcESaIcEEEcEET_PFiPT0_mPKS8_P13__va_list_tagEmSB_z+0x4f>
  2c:	0f 29 85 70 ff ff ff 	movaps XMMWORD PTR [rbp-0x90],xmm0
  33:	0f 29 4d 80          	movaps XMMWORD PTR [rbp-0x80],xmm1
  37:	0f 29 55 90          	movaps XMMWORD PTR [rbp-0x70],xmm2
  3b:	0f 29 5d a0          	movaps XMMWORD PTR [rbp-0x60],xmm3
  3f:	0f 29 65 b0          	movaps XMMWORD PTR [rbp-0x50],xmm4
  43:	0f 29 6d c0          	movaps XMMWORD PTR [rbp-0x40],xmm5
  47:	0f 29 75 d0          	movaps XMMWORD PTR [rbp-0x30],xmm6
  4b:	0f 29 7d e0          	movaps XMMWORD PTR [rbp-0x20],xmm7
  4f:	64 48 8b 04 25 28 00 	mov    rax,QWORD PTR fs:0x28
  56:	00 00 
  58:	48 89 85 38 ff ff ff 	mov    QWORD PTR [rbp-0xc8],rax
  5f:	31 c0                	xor    eax,eax
  61:	48 8d 46 1e          	lea    rax,[rsi+0x1e]
  65:	48 83 e0 f0          	and    rax,0xfffffffffffffff0
  69:	48 29 c4             	sub    rsp,rax
  6c:	48 8d 5c 24 0f       	lea    rbx,[rsp+0xf]
  71:	48 83 e3 f0          	and    rbx,0xfffffffffffffff0
  75:	c7 85 20 ff ff ff 20 	mov    DWORD PTR [rbp-0xe0],0x20
  7c:	00 00 00 
  7f:	c7 85 24 ff ff ff 30 	mov    DWORD PTR [rbp-0xdc],0x30
  86:	00 00 00 
  89:	48 8d 45 10          	lea    rax,[rbp+0x10]
  8d:	48 89 85 28 ff ff ff 	mov    QWORD PTR [rbp-0xd8],rax
  94:	48 8d 85 40 ff ff ff 	lea    rax,[rbp-0xc0]
  9b:	48 89 85 30 ff ff ff 	mov    QWORD PTR [rbp-0xd0],rax
  a2:	48 8d 8d 20 ff ff ff 	lea    rcx,[rbp-0xe0]
  a9:	48 89 df             	mov    rdi,rbx
  ac:	41 ff d2             	call   r10
  af:	49 8d 54 24 10       	lea    rdx,[r12+0x10]
  b4:	49 89 14 24          	mov    QWORD PTR [r12],rdx
  b8:	48 63 d0             	movsxd rdx,eax
  bb:	48 01 da             	add    rdx,rbx
  be:	48 83 ec 08          	sub    rsp,0x8
  c2:	6a 00                	push   0x0
  c4:	48 89 de             	mov    rsi,rbx
  c7:	4c 89 e7             	mov    rdi,r12
  ca:	e8 00 00 00 00       	call   cf <_ZN9__gnu_cxx12__to_xstringINSt7__cxx1112basic_stringIcSt11char_traitsIcESaIcEEEcEET_PFiPT0_mPKS8_P13__va_list_tagEmSB_z+0xcf>
  cf:	4c 89 e0             	mov    rax,r12
  d2:	48 8b bd 38 ff ff ff 	mov    rdi,QWORD PTR [rbp-0xc8]
  d9:	64 48 33 3c 25 28 00 	xor    rdi,QWORD PTR fs:0x28
  e0:	00 00 
  e2:	74 05                	je     e9 <_ZN9__gnu_cxx12__to_xstringINSt7__cxx1112basic_stringIcSt11char_traitsIcESaIcEEEcEET_PFiPT0_mPKS8_P13__va_list_tagEmSB_z+0xe9>
  e4:	e8 00 00 00 00       	call   e9 <_ZN9__gnu_cxx12__to_xstringINSt7__cxx1112basic_stringIcSt11char_traitsIcESaIcEEEcEET_PFiPT0_mPKS8_P13__va_list_tagEmSB_z+0xe9>
  e9:	48 8d 65 f0          	lea    rsp,[rbp-0x10]
  ed:	5b                   	pop    rbx
  ee:	41 5c                	pop    r12
  f0:	5d                   	pop    rbp
  f1:	c3                   	ret    

Desensamblado de la sección .init_array:

0000000000000000 <.init_array>:
	...

Desensamblado de la sección .rodata.cst4:

0000000000000000 <.LC0>:
   0:	00 00                	add    BYTE PTR [rax],al
	...

0000000000000004 <.LC9>:
   4:	0a d7                	or     dl,bh
   6:	23 3c 00             	and    edi,DWORD PTR [rax+rax*1]

0000000000000008 <.LC10>:
   8:	00 00                	add    BYTE PTR [rax],al
   a:	80 3f 00             	cmp    BYTE PTR [rdi],0x0

000000000000000c <.LC12>:
   c:	00 00                	add    BYTE PTR [rax],al
   e:	c8 42 00 00          	enter  0x42,0x0

0000000000000010 <.LC14>:
  10:	00 00                	add    BYTE PTR [rax],al
  12:	20                   	.byte 0x20
  13:	40                   	rex

Desensamblado de la sección .rodata.cst8:

0000000000000000 <.LC11>:
   0:	00 00                	add    BYTE PTR [rax],al
   2:	00 00                	add    BYTE PTR [rax],al
   4:	00 00                	add    BYTE PTR [rax],al
   6:	f0 3f                	lock (bad) 

0000000000000008 <.LC30>:
   8:	7b 14                	jnp    1e <_ZN4mat24inicEf+0x8>
   a:	ae                   	scas   al,BYTE PTR es:[rdi]
   b:	47 e1 7a             	rex.RXB loope 88 <.LC31>
   e:	84 3f                	test   BYTE PTR [rdi],bh

Desensamblado de la sección .comment:

0000000000000000 <.comment>:
   0:	00 47 43             	add    BYTE PTR [rdi+0x43],al
   3:	43 3a 20             	rex.XB cmp spl,BYTE PTR [r8]
   6:	28 55 62             	sub    BYTE PTR [rbp+0x62],dl
   9:	75 6e                	jne    79 <.LC29>
   b:	74 75                	je     82 <_ZN4mat2C1Eii+0x8>
   d:	20 35 2e 34 2e 30    	and    BYTE PTR [rip+0x302e342e],dh        # 302e3441 <_GLOBAL__sub_I__ZN4mat2C2Ev+0x302de56a>
  13:	2d 36 75 62 75       	sub    eax,0x75627536
  18:	6e                   	outs   dx,BYTE PTR ds:[rsi]
  19:	74 75                	je     90 <.LC31+0x8>
  1b:	31 7e 31             	xor    DWORD PTR [rsi+0x31],edi
  1e:	36 2e 30 34 2e       	ss xor BYTE PTR cs:[rsi+rbp*1],dh
  23:	39 29                	cmp    DWORD PTR [rcx],ebp
  25:	20 35 2e 34 2e 30    	and    BYTE PTR [rip+0x302e342e],dh        # 302e3459 <_GLOBAL__sub_I__ZN4mat2C2Ev+0x302de582>
  2b:	20 32                	and    BYTE PTR [rdx],dh
  2d:	30 31                	xor    BYTE PTR [rcx],dh
  2f:	36 30 36             	xor    BYTE PTR ss:[rsi],dh
  32:	30 39                	xor    BYTE PTR [rcx],bh
	...

Desensamblado de la sección .eh_frame:

0000000000000000 <.eh_frame>:
   0:	14 00                	adc    al,0x0
   2:	00 00                	add    BYTE PTR [rax],al
   4:	00 00                	add    BYTE PTR [rax],al
   6:	00 00                	add    BYTE PTR [rax],al
   8:	01 7a 52             	add    DWORD PTR [rdx+0x52],edi
   b:	00 01                	add    BYTE PTR [rcx],al
   d:	78 10                	js     1f <.eh_frame+0x1f>
   f:	01 1b                	add    DWORD PTR [rbx],ebx
  11:	0c 07                	or     al,0x7
  13:	08 90 01 00 00 10    	or     BYTE PTR [rax+0x10000001],dl
  19:	00 00                	add    BYTE PTR [rax],al
  1b:	00 1c 00             	add    BYTE PTR [rax+rax*1],bl
  1e:	00 00                	add    BYTE PTR [rax],al
  20:	00 00                	add    BYTE PTR [rax],al
  22:	00 00                	add    BYTE PTR [rax],al
  24:	16                   	(bad)  
  25:	00 00                	add    BYTE PTR [rax],al
  27:	00 00                	add    BYTE PTR [rax],al
  29:	00 00                	add    BYTE PTR [rax],al
  2b:	00 28                	add    BYTE PTR [rax],ch
  2d:	00 00                	add    BYTE PTR [rax],al
  2f:	00 30                	add    BYTE PTR [rax],dh
  31:	00 00                	add    BYTE PTR [rax],al
  33:	00 00                	add    BYTE PTR [rax],al
  35:	00 00                	add    BYTE PTR [rax],al
  37:	00 64 00 00          	add    BYTE PTR [rax+rax*1+0x0],ah
  3b:	00 00                	add    BYTE PTR [rax],al
  3d:	42 0e                	rex.X (bad) 
  3f:	10 8c 02 41 0e 18 86 	adc    BYTE PTR [rdx+rax*1-0x79e7f1bf],cl
  46:	03 41 0e             	add    eax,DWORD PTR [rcx+0xe]
  49:	20 83 04 02 5c 0e    	and    BYTE PTR [rbx+0xe5c0204],al
  4f:	18 41 0e             	sbb    BYTE PTR [rcx+0xe],al
  52:	10 42 0e             	adc    BYTE PTR [rdx+0xe],al
  55:	08 00                	or     BYTE PTR [rax],al
  57:	00 14 00             	add    BYTE PTR [rax+rax*1],dl
  5a:	00 00                	add    BYTE PTR [rax],al
  5c:	5c                   	pop    rsp
  5d:	00 00                	add    BYTE PTR [rax],al
  5f:	00 00                	add    BYTE PTR [rax],al
  61:	00 00                	add    BYTE PTR [rax],al
  63:	00 18                	add    BYTE PTR [rax],bl
  65:	00 00                	add    BYTE PTR [rax],al
  67:	00 00                	add    BYTE PTR [rax],al
  69:	44 0e                	rex.R (bad) 
  6b:	10 53 0e             	adc    BYTE PTR [rbx+0xe],dl
  6e:	08 00                	or     BYTE PTR [rax],al
  70:	14 00                	adc    al,0x0
  72:	00 00                	add    BYTE PTR [rax],al
  74:	74 00                	je     76 <.eh_frame+0x76>
  76:	00 00                	add    BYTE PTR [rax],al
  78:	00 00                	add    BYTE PTR [rax],al
  7a:	00 00                	add    BYTE PTR [rax],al
  7c:	14 00                	adc    al,0x0
  7e:	00 00                	add    BYTE PTR [rax],al
  80:	00 44 0e 10          	add    BYTE PTR [rsi+rcx*1+0x10],al
  84:	4f 0e                	rex.WRXB (bad) 
  86:	08 00                	or     BYTE PTR [rax],al
  88:	10 00                	adc    BYTE PTR [rax],al
  8a:	00 00                	add    BYTE PTR [rax],al
  8c:	8c 00                	mov    WORD PTR [rax],es
  8e:	00 00                	add    BYTE PTR [rax],al
  90:	00 00                	add    BYTE PTR [rax],al
  92:	00 00                	add    BYTE PTR [rax],al
  94:	2e 00 00             	add    BYTE PTR cs:[rax],al
  97:	00 00                	add    BYTE PTR [rax],al
  99:	00 00                	add    BYTE PTR [rax],al
  9b:	00 10                	add    BYTE PTR [rax],dl
  9d:	00 00                	add    BYTE PTR [rax],al
  9f:	00 a0 00 00 00 00    	add    BYTE PTR [rax+0x0],ah
  a5:	00 00                	add    BYTE PTR [rax],al
  a7:	00 12                	add    BYTE PTR [rdx],dl
  a9:	00 00                	add    BYTE PTR [rax],al
  ab:	00 00                	add    BYTE PTR [rax],al
  ad:	00 00                	add    BYTE PTR [rax],al
  af:	00 10                	add    BYTE PTR [rax],dl
  b1:	00 00                	add    BYTE PTR [rax],al
  b3:	00 b4 00 00 00 00 00 	add    BYTE PTR [rax+rax*1+0x0],dh
  ba:	00 00                	add    BYTE PTR [rax],al
  bc:	19 00                	sbb    DWORD PTR [rax],eax
  be:	00 00                	add    BYTE PTR [rax],al
  c0:	00 00                	add    BYTE PTR [rax],al
  c2:	00 00                	add    BYTE PTR [rax],al
  c4:	10 00                	adc    BYTE PTR [rax],al
  c6:	00 00                	add    BYTE PTR [rax],al
  c8:	c8 00 00 00          	enter  0x0,0x0
  cc:	00 00                	add    BYTE PTR [rax],al
  ce:	00 00                	add    BYTE PTR [rax],al
  d0:	12 00                	adc    al,BYTE PTR [rax]
  d2:	00 00                	add    BYTE PTR [rax],al
  d4:	00 00                	add    BYTE PTR [rax],al
  d6:	00 00                	add    BYTE PTR [rax],al
  d8:	30 00                	xor    BYTE PTR [rax],al
  da:	00 00                	add    BYTE PTR [rax],al
  dc:	dc 00                	fadd   QWORD PTR [rax]
  de:	00 00                	add    BYTE PTR [rax],al
  e0:	00 00                	add    BYTE PTR [rax],al
  e2:	00 00                	add    BYTE PTR [rax],al
  e4:	91                   	xchg   ecx,eax
  e5:	00 00                	add    BYTE PTR [rax],al
  e7:	00 00                	add    BYTE PTR [rax],al
  e9:	42 0e                	rex.X (bad) 
  eb:	10 8d 02 42 0e 18    	adc    BYTE PTR [rbp+0x180e4202],cl
  f1:	8c 03                	mov    WORD PTR [rbx],es
  f3:	41 0e                	rex.B (bad) 
  f5:	20 86 04 41 0e 28    	and    BYTE PTR [rsi+0x280e4104],al
  fb:	83 05 02 85 0e 20 41 	add    DWORD PTR [rip+0x200e8502],0x41        # 200e8604 <_GLOBAL__sub_I__ZN4mat2C2Ev+0x200e372d>
 102:	0e                   	(bad)  
 103:	18 42 0e             	sbb    BYTE PTR [rdx+0xe],al
 106:	10 42 0e             	adc    BYTE PTR [rdx+0xe],al
 109:	08 00                	or     BYTE PTR [rax],al
 10b:	00 10                	add    BYTE PTR [rax],dl
 10d:	00 00                	add    BYTE PTR [rax],al
 10f:	00 10                	add    BYTE PTR [rax],dl
 111:	01 00                	add    DWORD PTR [rax],eax
 113:	00 00                	add    BYTE PTR [rax],al
 115:	00 00                	add    BYTE PTR [rax],al
 117:	00 0a                	add    BYTE PTR [rdx],cl
 119:	00 00                	add    BYTE PTR [rax],al
 11b:	00 00                	add    BYTE PTR [rax],al
 11d:	00 00                	add    BYTE PTR [rax],al
 11f:	00 10                	add    BYTE PTR [rax],dl
 121:	00 00                	add    BYTE PTR [rax],al
 123:	00 24 01             	add    BYTE PTR [rcx+rax*1],ah
 126:	00 00                	add    BYTE PTR [rax],al
 128:	00 00                	add    BYTE PTR [rax],al
 12a:	00 00                	add    BYTE PTR [rax],al
 12c:	0a 00                	or     al,BYTE PTR [rax]
 12e:	00 00                	add    BYTE PTR [rax],al
 130:	00 00                	add    BYTE PTR [rax],al
 132:	00 00                	add    BYTE PTR [rax],al
 134:	28 00                	sub    BYTE PTR [rax],al
 136:	00 00                	add    BYTE PTR [rax],al
 138:	38 01                	cmp    BYTE PTR [rcx],al
 13a:	00 00                	add    BYTE PTR [rax],al
 13c:	00 00                	add    BYTE PTR [rax],al
 13e:	00 00                	add    BYTE PTR [rax],al
 140:	66 01 00             	add    WORD PTR [rax],ax
 143:	00 00                	add    BYTE PTR [rax],al
 145:	42 0e                	rex.X (bad) 
 147:	10 8c 02 41 0e 18 86 	adc    BYTE PTR [rdx+rax*1-0x79e7f1bf],cl
 14e:	03 41 0e             	add    eax,DWORD PTR [rcx+0xe]
 151:	20 83 04 03 5e 01    	and    BYTE PTR [rbx+0x15e0304],al
 157:	0e                   	(bad)  
 158:	18 41 0e             	sbb    BYTE PTR [rcx+0xe],al
 15b:	10 42 0e             	adc    BYTE PTR [rdx+0xe],al
 15e:	08 00                	or     BYTE PTR [rax],al
 160:	14 00                	adc    al,0x0
 162:	00 00                	add    BYTE PTR [rax],al
 164:	64 01 00             	add    DWORD PTR fs:[rax],eax
 167:	00 00                	add    BYTE PTR [rax],al
 169:	00 00                	add    BYTE PTR [rax],al
 16b:	00 17                	add    BYTE PTR [rdi],dl
 16d:	00 00                	add    BYTE PTR [rax],al
 16f:	00 00                	add    BYTE PTR [rax],al
 171:	4c 0e                	rex.WR (bad) 
 173:	10 49 0e             	adc    BYTE PTR [rcx+0xe],cl
 176:	08 00                	or     BYTE PTR [rax],al
 178:	34 00                	xor    al,0x0
 17a:	00 00                	add    BYTE PTR [rax],al
 17c:	7c 01                	jl     17f <.eh_frame+0x17f>
 17e:	00 00                	add    BYTE PTR [rax],al
 180:	00 00                	add    BYTE PTR [rax],al
 182:	00 00                	add    BYTE PTR [rax],al
 184:	f9                   	stc    
 185:	00 00                	add    BYTE PTR [rax],al
 187:	00 00                	add    BYTE PTR [rax],al
 189:	42 0e                	rex.X (bad) 
 18b:	10 8d 02 42 0e 18    	adc    BYTE PTR [rbp+0x180e4202],cl
 191:	8c 03                	mov    WORD PTR [rbx],es
 193:	41 0e                	rex.B (bad) 
 195:	20 86 04 41 0e 28    	and    BYTE PTR [rsi+0x280e4104],al
 19b:	83 05 44 0e 40 02 e8 	add    DWORD PTR [rip+0x2400e44],0xffffffe8        # 2400fe6 <_GLOBAL__sub_I__ZN4mat2C2Ev+0x23fc10f>
 1a2:	0e                   	(bad)  
 1a3:	28 41 0e             	sub    BYTE PTR [rcx+0xe],al
 1a6:	20 41 0e             	and    BYTE PTR [rcx+0xe],al
 1a9:	18 42 0e             	sbb    BYTE PTR [rdx+0xe],al
 1ac:	10 42 0e             	adc    BYTE PTR [rdx+0xe],al
 1af:	08 14 00             	or     BYTE PTR [rax+rax*1],dl
 1b2:	00 00                	add    BYTE PTR [rax],al
 1b4:	b4 01                	mov    ah,0x1
 1b6:	00 00                	add    BYTE PTR [rax],al
 1b8:	00 00                	add    BYTE PTR [rax],al
 1ba:	00 00                	add    BYTE PTR [rax],al
 1bc:	14 00                	adc    al,0x0
 1be:	00 00                	add    BYTE PTR [rax],al
 1c0:	00 44 0e 10          	add    BYTE PTR [rsi+rcx*1+0x10],al
 1c4:	4f 0e                	rex.WRXB (bad) 
 1c6:	08 00                	or     BYTE PTR [rax],al
 1c8:	14 00                	adc    al,0x0
 1ca:	00 00                	add    BYTE PTR [rax],al
 1cc:	cc                   	int3   
 1cd:	01 00                	add    DWORD PTR [rax],eax
 1cf:	00 00                	add    BYTE PTR [rax],al
 1d1:	00 00                	add    BYTE PTR [rax],al
 1d3:	00 12                	add    BYTE PTR [rdx],dl
 1d5:	00 00                	add    BYTE PTR [rax],al
 1d7:	00 00                	add    BYTE PTR [rax],al
 1d9:	44 0e                	rex.R (bad) 
 1db:	10 4d 0e             	adc    BYTE PTR [rbp+0xe],cl
 1de:	08 00                	or     BYTE PTR [rax],al
 1e0:	1c 00                	sbb    al,0x0
 1e2:	00 00                	add    BYTE PTR [rax],al
 1e4:	00 00                	add    BYTE PTR [rax],al
 1e6:	00 00                	add    BYTE PTR [rax],al
 1e8:	01 7a 50             	add    DWORD PTR [rdx+0x50],edi
 1eb:	4c 52                	rex.WR push rdx
 1ed:	00 01                	add    BYTE PTR [rcx],al
 1ef:	78 10                	js     201 <.eh_frame+0x201>
 1f1:	07                   	(bad)  
 1f2:	03 00                	add    eax,DWORD PTR [rax]
 1f4:	00 00                	add    BYTE PTR [rax],al
 1f6:	00 03                	add    BYTE PTR [rbx],al
 1f8:	1b 0c 07             	sbb    ecx,DWORD PTR [rdi+rax*1]
 1fb:	08 90 01 00 00 4c    	or     BYTE PTR [rax+0x4c000001],dl
 201:	00 00                	add    BYTE PTR [rax],al
 203:	00 24 00             	add    BYTE PTR [rax+rax*1],ah
 206:	00 00                	add    BYTE PTR [rax],al
 208:	00 00                	add    BYTE PTR [rax],al
 20a:	00 00                	add    BYTE PTR [rax],al
 20c:	63 04 00             	movsxd eax,DWORD PTR [rax+rax*1]
 20f:	00 04 00             	add    BYTE PTR [rax+rax*1],al
 212:	00 00                	add    BYTE PTR [rax],al
 214:	00 42 0e             	add    BYTE PTR [rdx+0xe],al
 217:	10 8f 02 42 0e 18    	adc    BYTE PTR [rdi+0x180e4202],cl
 21d:	8e 03                	mov    es,WORD PTR [rbx]
 21f:	42 0e                	rex.X (bad) 
 221:	20 8d 04 42 0e 28    	and    BYTE PTR [rbp+0x280e4204],cl
 227:	8c 05 41 0e 30 86    	mov    WORD PTR [rip+0xffffffff86300e41],es        # ffffffff8630106e <_GLOBAL__sub_I__ZN4mat2C2Ev+0xffffffff862fc197>
 22d:	06                   	(bad)  
 22e:	41 0e                	rex.B (bad) 
 230:	38 83 07 44 0e 60    	cmp    BYTE PTR [rbx+0x600e4407],al
 236:	03 4a 04             	add    ecx,DWORD PTR [rdx+0x4]
 239:	0e                   	(bad)  
 23a:	38 41 0e             	cmp    BYTE PTR [rcx+0xe],al
 23d:	30 41 0e             	xor    BYTE PTR [rcx+0xe],al
 240:	28 42 0e             	sub    BYTE PTR [rdx+0xe],al
 243:	20 42 0e             	and    BYTE PTR [rdx+0xe],al
 246:	18 42 0e             	sbb    BYTE PTR [rdx+0xe],al
 249:	10 42 0e             	adc    BYTE PTR [rdx+0xe],al
 24c:	08 00                	or     BYTE PTR [rax],al
 24e:	00 00                	add    BYTE PTR [rax],al
 250:	2c 00                	sub    al,0x0
 252:	00 00                	add    BYTE PTR [rax],al
 254:	74 00                	je     256 <.eh_frame+0x256>
 256:	00 00                	add    BYTE PTR [rax],al
 258:	00 00                	add    BYTE PTR [rax],al
 25a:	00 00                	add    BYTE PTR [rax],al
 25c:	57                   	push   rdi
 25d:	01 00                	add    DWORD PTR [rax],eax
 25f:	00 04 00             	add    BYTE PTR [rax+rax*1],al
 262:	00 00                	add    BYTE PTR [rax],al
 264:	00 42 0e             	add    BYTE PTR [rdx+0xe],al
 267:	10 8c 02 41 0e 18 86 	adc    BYTE PTR [rdx+rax*1-0x79e7f1bf],cl
 26e:	03 41 0e             	add    eax,DWORD PTR [rcx+0xe]
 271:	20 83 04 03 4f 01    	and    BYTE PTR [rbx+0x14f0304],al
 277:	0e                   	(bad)  
 278:	18 41 0e             	sbb    BYTE PTR [rcx+0xe],al
 27b:	10 42 0e             	adc    BYTE PTR [rdx+0xe],al
 27e:	08 00                	or     BYTE PTR [rax],al
 280:	24 00                	and    al,0x0
 282:	00 00                	add    BYTE PTR [rax],al
 284:	84 02                	test   BYTE PTR [rdx],al
 286:	00 00                	add    BYTE PTR [rax],al
 288:	00 00                	add    BYTE PTR [rax],al
 28a:	00 00                	add    BYTE PTR [rax],al
 28c:	9b                   	fwait
 28d:	00 00                	add    BYTE PTR [rax],al
 28f:	00 00                	add    BYTE PTR [rax],al
 291:	41 0e                	rex.B (bad) 
 293:	10 86 02 41 0e 18    	adc    BYTE PTR [rsi+0x180e4102],al
 299:	83 03 44             	add    DWORD PTR [rbx],0x44
 29c:	0e                   	(bad)  
 29d:	20 02                	and    BYTE PTR [rdx],al
 29f:	92                   	xchg   edx,eax
 2a0:	0e                   	(bad)  
 2a1:	18 41 0e             	sbb    BYTE PTR [rcx+0xe],al
 2a4:	10 41 0e             	adc    BYTE PTR [rcx+0xe],al
 2a7:	08 1c 00             	or     BYTE PTR [rax+rax*1],bl
 2aa:	00 00                	add    BYTE PTR [rax],al
 2ac:	ac                   	lods   al,BYTE PTR ds:[rsi]
 2ad:	02 00                	add    al,BYTE PTR [rax]
 2af:	00 00                	add    BYTE PTR [rax],al
 2b1:	00 00                	add    BYTE PTR [rax],al
 2b3:	00 9a 00 00 00 00    	add    BYTE PTR [rdx+0x0],bl
 2b9:	41 0e                	rex.B (bad) 
 2bb:	10 83 02 44 0e 20    	adc    BYTE PTR [rbx+0x200e4402],al
 2c1:	02 93 0e 10 41 0e    	add    dl,BYTE PTR [rbx+0xe41100e]
 2c7:	08 24 00             	or     BYTE PTR [rax+rax*1],ah
 2ca:	00 00                	add    BYTE PTR [rax],al
 2cc:	cc                   	int3   
 2cd:	02 00                	add    al,BYTE PTR [rax]
 2cf:	00 00                	add    BYTE PTR [rax],al
 2d1:	00 00                	add    BYTE PTR [rax],al
 2d3:	00 94 00 00 00 00 41 	add    BYTE PTR [rax+rax*1+0x41000000],dl
 2da:	0e                   	(bad)  
 2db:	10 86 02 41 0e 18    	adc    BYTE PTR [rsi+0x180e4102],al
 2e1:	83 03 44             	add    DWORD PTR [rbx],0x44
 2e4:	0e                   	(bad)  
 2e5:	20 02                	and    BYTE PTR [rdx],al
 2e7:	8b 0e                	mov    ecx,DWORD PTR [rsi]
 2e9:	18 41 0e             	sbb    BYTE PTR [rcx+0xe],al
 2ec:	10 41 0e             	adc    BYTE PTR [rcx+0xe],al
 2ef:	08 18                	or     BYTE PTR [rax],bl
 2f1:	00 00                	add    BYTE PTR [rax],al
 2f3:	00 f4                	add    ah,dh
 2f5:	02 00                	add    al,BYTE PTR [rax]
 2f7:	00 00                	add    BYTE PTR [rax],al
 2f9:	00 00                	add    BYTE PTR [rax],al
 2fb:	00 90 00 00 00 00    	add    BYTE PTR [rax+0x0],dl
 301:	41 0e                	rex.B (bad) 
 303:	10 83 02 02 8e 0e    	adc    BYTE PTR [rbx+0xe8e0202],al
 309:	08 00                	or     BYTE PTR [rax],al
 30b:	00 28                	add    BYTE PTR [rax],ch
 30d:	00 00                	add    BYTE PTR [rax],al
 30f:	00 10                	add    BYTE PTR [rax],dl
 311:	03 00                	add    eax,DWORD PTR [rax]
 313:	00 00                	add    BYTE PTR [rax],al
 315:	00 00                	add    BYTE PTR [rax],al
 317:	00 ee                	add    dh,ch
 319:	00 00                	add    BYTE PTR [rax],al
 31b:	00 00                	add    BYTE PTR [rax],al
 31d:	42 0e                	rex.X (bad) 
 31f:	10 8c 02 41 0e 18 86 	adc    BYTE PTR [rdx+rax*1-0x79e7f1bf],cl
 326:	03 41 0e             	add    eax,DWORD PTR [rcx+0xe]
 329:	20 83 04 02 e6 0e    	and    BYTE PTR [rbx+0xee60204],al
 32f:	18 41 0e             	sbb    BYTE PTR [rcx+0xe],al
 332:	10 42 0e             	adc    BYTE PTR [rdx+0xe],al
 335:	08 00                	or     BYTE PTR [rax],al
 337:	00 24 00             	add    BYTE PTR [rax+rax*1],ah
 33a:	00 00                	add    BYTE PTR [rax],al
 33c:	3c 03                	cmp    al,0x3
 33e:	00 00                	add    BYTE PTR [rax],al
 340:	00 00                	add    BYTE PTR [rax],al
 342:	00 00                	add    BYTE PTR [rax],al
 344:	ad                   	lods   eax,DWORD PTR ds:[rsi]
 345:	00 00                	add    BYTE PTR [rax],al
 347:	00 00                	add    BYTE PTR [rax],al
 349:	41 0e                	rex.B (bad) 
 34b:	10 86 02 41 0e 18    	adc    BYTE PTR [rsi+0x180e4102],al
 351:	83 03 44             	add    DWORD PTR [rbx],0x44
 354:	0e                   	(bad)  
 355:	20 02                	and    BYTE PTR [rdx],al
 357:	a4                   	movs   BYTE PTR es:[rdi],BYTE PTR ds:[rsi]
 358:	0e                   	(bad)  
 359:	18 41 0e             	sbb    BYTE PTR [rcx+0xe],al
 35c:	10 41 0e             	adc    BYTE PTR [rcx+0xe],al
 35f:	08 24 00             	or     BYTE PTR [rax+rax*1],ah
 362:	00 00                	add    BYTE PTR [rax],al
 364:	64 03 00             	add    eax,DWORD PTR fs:[rax]
 367:	00 00                	add    BYTE PTR [rax],al
 369:	00 00                	add    BYTE PTR [rax],al
 36b:	00 ad 00 00 00 00    	add    BYTE PTR [rbp+0x0],ch
 371:	41 0e                	rex.B (bad) 
 373:	10 86 02 41 0e 18    	adc    BYTE PTR [rsi+0x180e4102],al
 379:	83 03 44             	add    DWORD PTR [rbx],0x44
 37c:	0e                   	(bad)  
 37d:	20 02                	and    BYTE PTR [rdx],al
 37f:	a4                   	movs   BYTE PTR es:[rdi],BYTE PTR ds:[rsi]
 380:	0e                   	(bad)  
 381:	18 41 0e             	sbb    BYTE PTR [rcx+0xe],al
 384:	10 41 0e             	adc    BYTE PTR [rcx+0xe],al
 387:	08 24 00             	or     BYTE PTR [rax+rax*1],ah
 38a:	00 00                	add    BYTE PTR [rax],al
 38c:	8c 03                	mov    WORD PTR [rbx],es
 38e:	00 00                	add    BYTE PTR [rax],al
 390:	00 00                	add    BYTE PTR [rax],al
 392:	00 00                	add    BYTE PTR [rax],al
 394:	ad                   	lods   eax,DWORD PTR ds:[rsi]
 395:	00 00                	add    BYTE PTR [rax],al
 397:	00 00                	add    BYTE PTR [rax],al
 399:	41 0e                	rex.B (bad) 
 39b:	10 86 02 41 0e 18    	adc    BYTE PTR [rsi+0x180e4102],al
 3a1:	83 03 44             	add    DWORD PTR [rbx],0x44
 3a4:	0e                   	(bad)  
 3a5:	20 02                	and    BYTE PTR [rdx],al
 3a7:	a4                   	movs   BYTE PTR es:[rdi],BYTE PTR ds:[rsi]
 3a8:	0e                   	(bad)  
 3a9:	18 41 0e             	sbb    BYTE PTR [rcx+0xe],al
 3ac:	10 41 0e             	adc    BYTE PTR [rcx+0xe],al
 3af:	08 24 00             	or     BYTE PTR [rax+rax*1],ah
 3b2:	00 00                	add    BYTE PTR [rax],al
 3b4:	b4 03                	mov    ah,0x3
 3b6:	00 00                	add    BYTE PTR [rax],al
 3b8:	00 00                	add    BYTE PTR [rax],al
 3ba:	00 00                	add    BYTE PTR [rax],al
 3bc:	ad                   	lods   eax,DWORD PTR ds:[rsi]
 3bd:	00 00                	add    BYTE PTR [rax],al
 3bf:	00 00                	add    BYTE PTR [rax],al
 3c1:	41 0e                	rex.B (bad) 
 3c3:	10 86 02 41 0e 18    	adc    BYTE PTR [rsi+0x180e4102],al
 3c9:	83 03 44             	add    DWORD PTR [rbx],0x44
 3cc:	0e                   	(bad)  
 3cd:	20 02                	and    BYTE PTR [rdx],al
 3cf:	a4                   	movs   BYTE PTR es:[rdi],BYTE PTR ds:[rsi]
 3d0:	0e                   	(bad)  
 3d1:	18 41 0e             	sbb    BYTE PTR [rcx+0xe],al
 3d4:	10 41 0e             	adc    BYTE PTR [rcx+0xe],al
 3d7:	08 18                	or     BYTE PTR [rax],bl
 3d9:	00 00                	add    BYTE PTR [rax],al
 3db:	00 dc                	add    ah,bl
 3dd:	03 00                	add    eax,DWORD PTR [rax]
 3df:	00 00                	add    BYTE PTR [rax],al
 3e1:	00 00                	add    BYTE PTR [rax],al
 3e3:	00 5b 00             	add    BYTE PTR [rbx+0x0],bl
 3e6:	00 00                	add    BYTE PTR [rax],al
 3e8:	00 41 0e             	add    BYTE PTR [rcx+0xe],al
 3eb:	10 83 02 02 59 0e    	adc    BYTE PTR [rbx+0xe590202],al
 3f1:	08 00                	or     BYTE PTR [rax],al
 3f3:	00 3c 00             	add    BYTE PTR [rax+rax*1],bh
 3f6:	00 00                	add    BYTE PTR [rax],al
 3f8:	f8                   	clc    
 3f9:	03 00                	add    eax,DWORD PTR [rax]
 3fb:	00 00                	add    BYTE PTR [rax],al
 3fd:	00 00                	add    BYTE PTR [rax],al
 3ff:	00 85 00 00 00 00    	add    BYTE PTR [rbp+0x0],al
 405:	48 0e                	rex.W (bad) 
 407:	10 8e 02 42 0e 18    	adc    BYTE PTR [rsi+0x180e4202],cl
 40d:	8d 03                	lea    eax,[rbx]
 40f:	42 0e                	rex.X (bad) 
 411:	20 8c 04 41 0e 28 86 	and    BYTE PTR [rsp+rax*1-0x79d7f1bf],cl
 418:	05 41 0e 30 83       	add    eax,0x83300e41
 41d:	06                   	(bad)  
 41e:	02 6e c3             	add    ch,BYTE PTR [rsi-0x3d]
 421:	0e                   	(bad)  
 422:	28 41 c6             	sub    BYTE PTR [rcx-0x3a],al
 425:	0e                   	(bad)  
 426:	20 42 cc             	and    BYTE PTR [rdx-0x34],al
 429:	0e                   	(bad)  
 42a:	18 42 cd             	sbb    BYTE PTR [rdx-0x33],al
 42d:	0e                   	(bad)  
 42e:	10 42 ce             	adc    BYTE PTR [rdx-0x32],al
 431:	0e                   	(bad)  
 432:	08 00                	or     BYTE PTR [rax],al
 434:	40 00 00             	add    BYTE PTR [rax],al
 437:	00 38                	add    BYTE PTR [rax],bh
 439:	04 00                	add    al,0x0
 43b:	00 00                	add    BYTE PTR [rax],al
 43d:	00 00                	add    BYTE PTR [rax],al
 43f:	00 fe                	add    dh,bh
 441:	01 00                	add    DWORD PTR [rax],eax
 443:	00 00                	add    BYTE PTR [rax],al
 445:	42 0e                	rex.X (bad) 
 447:	10 8f 02 42 0e 18    	adc    BYTE PTR [rdi+0x180e4202],cl
 44d:	8e 03                	mov    es,WORD PTR [rbx]
 44f:	42 0e                	rex.X (bad) 
 451:	20 8d 04 42 0e 28    	and    BYTE PTR [rbp+0x280e4204],cl
 457:	8c 05 41 0e 30 86    	mov    WORD PTR [rip+0xffffffff86300e41],es        # ffffffff8630129e <_GLOBAL__sub_I__ZN4mat2C2Ev+0xffffffff862fc3c7>
 45d:	06                   	(bad)  
 45e:	41 0e                	rex.B (bad) 
 460:	38 83 07 03 ea 01    	cmp    BYTE PTR [rbx+0x1ea0307],al
 466:	0e                   	(bad)  
 467:	30 41 0e             	xor    BYTE PTR [rcx+0xe],al
 46a:	28 42 0e             	sub    BYTE PTR [rdx+0xe],al
 46d:	20 42 0e             	and    BYTE PTR [rdx+0xe],al
 470:	18 42 0e             	sbb    BYTE PTR [rdx+0xe],al
 473:	10 42 0e             	adc    BYTE PTR [rdx+0xe],al
 476:	08 00                	or     BYTE PTR [rax],al
 478:	48 00 00             	rex.W add BYTE PTR [rax],al
 47b:	00 7c 04 00          	add    BYTE PTR [rsp+rax*1+0x0],bh
 47f:	00 00                	add    BYTE PTR [rax],al
 481:	00 00                	add    BYTE PTR [rax],al
 483:	00 aa 05 00 00 00    	add    BYTE PTR [rdx+0x5],ch
 489:	42 0e                	rex.X (bad) 
 48b:	10 8f 02 42 0e 18    	adc    BYTE PTR [rdi+0x180e4202],cl
 491:	8e 03                	mov    es,WORD PTR [rbx]
 493:	42 0e                	rex.X (bad) 
 495:	20 8d 04 42 0e 28    	and    BYTE PTR [rbp+0x280e4204],cl
 49b:	8c 05 41 0e 30 86    	mov    WORD PTR [rip+0xffffffff86300e41],es        # ffffffff863012e2 <_GLOBAL__sub_I__ZN4mat2C2Ev+0xffffffff862fc40b>
 4a1:	06                   	(bad)  
 4a2:	41 0e                	rex.B (bad) 
 4a4:	38 83 07 44 0e 68    	cmp    BYTE PTR [rbx+0x680e4407],al
 4aa:	03 91 05 0e 38 41    	add    edx,DWORD PTR [rcx+0x41380e05]
 4b0:	0e                   	(bad)  
 4b1:	30 41 0e             	xor    BYTE PTR [rcx+0xe],al
 4b4:	28 42 0e             	sub    BYTE PTR [rdx+0xe],al
 4b7:	20 42 0e             	and    BYTE PTR [rdx+0xe],al
 4ba:	18 42 0e             	sbb    BYTE PTR [rdx+0xe],al
 4bd:	10 42 0e             	adc    BYTE PTR [rdx+0xe],al
 4c0:	08 00                	or     BYTE PTR [rax],al
 4c2:	00 00                	add    BYTE PTR [rax],al
 4c4:	48 00 00             	rex.W add BYTE PTR [rax],al
 4c7:	00 c8                	add    al,cl
 4c9:	04 00                	add    al,0x0
 4cb:	00 00                	add    BYTE PTR [rax],al
 4cd:	00 00                	add    BYTE PTR [rax],al
 4cf:	00 60 08             	add    BYTE PTR [rax+0x8],ah
 4d2:	00 00                	add    BYTE PTR [rax],al
 4d4:	00 42 0e             	add    BYTE PTR [rdx+0xe],al
 4d7:	10 8f 02 42 0e 18    	adc    BYTE PTR [rdi+0x180e4202],cl
 4dd:	8e 03                	mov    es,WORD PTR [rbx]
 4df:	42 0e                	rex.X (bad) 
 4e1:	20 8d 04 42 0e 28    	and    BYTE PTR [rbp+0x280e4204],cl
 4e7:	8c 05 41 0e 30 86    	mov    WORD PTR [rip+0xffffffff86300e41],es        # ffffffff8630132e <_GLOBAL__sub_I__ZN4mat2C2Ev+0xffffffff862fc457>
 4ed:	06                   	(bad)  
 4ee:	41 0e                	rex.B (bad) 
 4f0:	38 83 07 44 0e 88    	cmp    BYTE PTR [rbx-0x77f1bbf9],al
 4f6:	01 03                	add    DWORD PTR [rbx],eax
 4f8:	47 08 0e             	rex.RXB or BYTE PTR [r14],r9b
 4fb:	38 41 0e             	cmp    BYTE PTR [rcx+0xe],al
 4fe:	30 41 0e             	xor    BYTE PTR [rcx+0xe],al
 501:	28 42 0e             	sub    BYTE PTR [rdx+0xe],al
 504:	20 42 0e             	and    BYTE PTR [rdx+0xe],al
 507:	18 42 0e             	sbb    BYTE PTR [rdx+0xe],al
 50a:	10 42 0e             	adc    BYTE PTR [rdx+0xe],al
 50d:	08 00                	or     BYTE PTR [rax],al
 50f:	00 48 00             	add    BYTE PTR [rax+0x0],cl
 512:	00 00                	add    BYTE PTR [rax],al
 514:	14 05                	adc    al,0x5
 516:	00 00                	add    BYTE PTR [rax],al
 518:	00 00                	add    BYTE PTR [rax],al
 51a:	00 00                	add    BYTE PTR [rax],al
 51c:	95                   	xchg   ebp,eax
 51d:	01 00                	add    DWORD PTR [rax],eax
 51f:	00 00                	add    BYTE PTR [rax],al
 521:	42 0e                	rex.X (bad) 
 523:	10 8f 02 42 0e 18    	adc    BYTE PTR [rdi+0x180e4202],cl
 529:	8e 03                	mov    es,WORD PTR [rbx]
 52b:	42 0e                	rex.X (bad) 
 52d:	20 8d 04 42 0e 28    	and    BYTE PTR [rbp+0x280e4204],cl
 533:	8c 05 41 0e 30 86    	mov    WORD PTR [rip+0xffffffff86300e41],es        # ffffffff8630137a <_GLOBAL__sub_I__ZN4mat2C2Ev+0xffffffff862fc4a3>
 539:	06                   	(bad)  
 53a:	41 0e                	rex.B (bad) 
 53c:	38 83 07 44 0e 50    	cmp    BYTE PTR [rbx+0x500e4407],al
 542:	03 7c 01 0e          	add    edi,DWORD PTR [rcx+rax*1+0xe]
 546:	38 41 0e             	cmp    BYTE PTR [rcx+0xe],al
 549:	30 41 0e             	xor    BYTE PTR [rcx+0xe],al
 54c:	28 42 0e             	sub    BYTE PTR [rdx+0xe],al
 54f:	20 42 0e             	and    BYTE PTR [rdx+0xe],al
 552:	18 42 0e             	sbb    BYTE PTR [rdx+0xe],al
 555:	10 42 0e             	adc    BYTE PTR [rdx+0xe],al
 558:	08 00                	or     BYTE PTR [rax],al
 55a:	00 00                	add    BYTE PTR [rax],al
 55c:	3c 00                	cmp    al,0x0
 55e:	00 00                	add    BYTE PTR [rax],al
 560:	60                   	(bad)  
 561:	05 00 00 00 00       	add    eax,0x0
 566:	00 00                	add    BYTE PTR [rax],al
 568:	a2 01 00 00 00 4c 0e 	movabs ds:0x8d100e4c00000001,al
 56f:	10 8d 
 571:	02 42 0e             	add    al,BYTE PTR [rdx+0xe]
 574:	18 8c 03 41 0e 20 86 	sbb    BYTE PTR [rbx+rax*1-0x79dff1bf],cl
 57b:	04 41                	add    al,0x41
 57d:	0e                   	(bad)  
 57e:	28 83 05 44 0e 40    	sub    BYTE PTR [rbx+0x400e4405],al
 584:	03 86 01 0e 28 41    	add    eax,DWORD PTR [rsi+0x41280e01]
 58a:	c3                   	ret    
 58b:	0e                   	(bad)  
 58c:	20 41 c6             	and    BYTE PTR [rcx-0x3a],al
 58f:	0e                   	(bad)  
 590:	18 42 cc             	sbb    BYTE PTR [rdx-0x34],al
 593:	0e                   	(bad)  
 594:	10 42 cd             	adc    BYTE PTR [rdx-0x33],al
 597:	0e                   	(bad)  
 598:	08 00                	or     BYTE PTR [rax],al
 59a:	00 00                	add    BYTE PTR [rax],al
 59c:	34 00                	xor    al,0x0
 59e:	00 00                	add    BYTE PTR [rax],al
 5a0:	a0 05 00 00 00 00 00 	movabs al,ds:0xf900000000000005
 5a7:	00 f9 
 5a9:	00 00                	add    BYTE PTR [rax],al
 5ab:	00 00                	add    BYTE PTR [rax],al
 5ad:	42 0e                	rex.X (bad) 
 5af:	10 8d 02 42 0e 18    	adc    BYTE PTR [rbp+0x180e4202],cl
 5b5:	8c 03                	mov    WORD PTR [rbx],es
 5b7:	41 0e                	rex.B (bad) 
 5b9:	20 86 04 41 0e 28    	and    BYTE PTR [rsi+0x280e4104],al
 5bf:	83 05 44 0e 40 02 e8 	add    DWORD PTR [rip+0x2400e44],0xffffffe8        # 240140a <_GLOBAL__sub_I__ZN4mat2C2Ev+0x23fc533>
 5c6:	0e                   	(bad)  
 5c7:	28 41 0e             	sub    BYTE PTR [rcx+0xe],al
 5ca:	20 41 0e             	and    BYTE PTR [rcx+0xe],al
 5cd:	18 42 0e             	sbb    BYTE PTR [rdx+0xe],al
 5d0:	10 42 0e             	adc    BYTE PTR [rdx+0xe],al
 5d3:	08 18                	or     BYTE PTR [rax],bl
 5d5:	00 00                	add    BYTE PTR [rax],al
 5d7:	00 d8                	add    al,bl
 5d9:	05 00 00 00 00       	add    eax,0x0
 5de:	00 00                	add    BYTE PTR [rax],al
 5e0:	72 00                	jb     5e2 <.eh_frame+0x5e2>
 5e2:	00 00                	add    BYTE PTR [rax],al
 5e4:	00 41 0e             	add    BYTE PTR [rcx+0xe],al
 5e7:	10 83 02 02 70 0e    	adc    BYTE PTR [rbx+0xe700202],al
 5ed:	08 00                	or     BYTE PTR [rax],al
 5ef:	00 18                	add    BYTE PTR [rax],bl
 5f1:	00 00                	add    BYTE PTR [rax],al
 5f3:	00 f4                	add    ah,dh
 5f5:	05 00 00 00 00       	add    eax,0x0
 5fa:	00 00                	add    BYTE PTR [rax],al
 5fc:	2f                   	(bad)  
 5fd:	00 00                	add    BYTE PTR [rax],al
 5ff:	00 00                	add    BYTE PTR [rax],al
 601:	41 0e                	rex.B (bad) 
 603:	10 83 02 6d 0e 08    	adc    BYTE PTR [rbx+0x80e6d02],al
 609:	00 00                	add    BYTE PTR [rax],al
 60b:	00 18                	add    BYTE PTR [rax],bl
 60d:	00 00                	add    BYTE PTR [rax],al
 60f:	00 10                	add    BYTE PTR [rax],dl
 611:	06                   	(bad)  
 612:	00 00                	add    BYTE PTR [rax],al
 614:	00 00                	add    BYTE PTR [rax],al
 616:	00 00                	add    BYTE PTR [rax],al
 618:	37                   	(bad)  
 619:	00 00                	add    BYTE PTR [rax],al
 61b:	00 00                	add    BYTE PTR [rax],al
 61d:	41 0e                	rex.B (bad) 
 61f:	10 83 02 75 0e 08    	adc    BYTE PTR [rbx+0x80e7502],al
 625:	00 00                	add    BYTE PTR [rax],al
 627:	00 2c 00             	add    BYTE PTR [rax+rax*1],ch
 62a:	00 00                	add    BYTE PTR [rax],al
 62c:	2c 06                	sub    al,0x6
 62e:	00 00                	add    BYTE PTR [rax],al
 630:	00 00                	add    BYTE PTR [rax],al
 632:	00 00                	add    BYTE PTR [rax],al
 634:	af                   	scas   eax,DWORD PTR es:[rdi]
 635:	00 00                	add    BYTE PTR [rax],al
 637:	00 00                	add    BYTE PTR [rax],al
 639:	42 0e                	rex.X (bad) 
 63b:	10 8c 02 41 0e 18 86 	adc    BYTE PTR [rdx+rax*1-0x79e7f1bf],cl
 642:	03 41 0e             	add    eax,DWORD PTR [rcx+0xe]
 645:	20 83 04 44 0e 30    	and    BYTE PTR [rbx+0x300e4404],al
 64b:	02 a2 0e 20 41 0e    	add    ah,BYTE PTR [rdx+0xe41200e]
 651:	18 41 0e             	sbb    BYTE PTR [rcx+0xe],al
 654:	10 42 0e             	adc    BYTE PTR [rdx+0xe],al
 657:	08 2c 00             	or     BYTE PTR [rax+rax*1],ch
 65a:	00 00                	add    BYTE PTR [rax],al
 65c:	5c                   	pop    rsp
 65d:	06                   	(bad)  
 65e:	00 00                	add    BYTE PTR [rax],al
 660:	00 00                	add    BYTE PTR [rax],al
 662:	00 00                	add    BYTE PTR [rax],al
 664:	af                   	scas   eax,DWORD PTR es:[rdi]
 665:	00 00                	add    BYTE PTR [rax],al
 667:	00 00                	add    BYTE PTR [rax],al
 669:	42 0e                	rex.X (bad) 
 66b:	10 8c 02 41 0e 18 86 	adc    BYTE PTR [rdx+rax*1-0x79e7f1bf],cl
 672:	03 41 0e             	add    eax,DWORD PTR [rcx+0xe]
 675:	20 83 04 44 0e 30    	and    BYTE PTR [rbx+0x300e4404],al
 67b:	02 a2 0e 20 41 0e    	add    ah,BYTE PTR [rdx+0xe41200e]
 681:	18 41 0e             	sbb    BYTE PTR [rcx+0xe],al
 684:	10 42 0e             	adc    BYTE PTR [rdx+0xe],al
 687:	08 30                	or     BYTE PTR [rax],dh
 689:	00 00                	add    BYTE PTR [rax],al
 68b:	00 ac 04 00 00 00 00 	add    BYTE PTR [rsp+rax*1+0x0],ch
 692:	00 00                	add    BYTE PTR [rax],al
 694:	9c                   	pushf  
 695:	03 00                	add    eax,DWORD PTR [rax]
 697:	00 04 00             	add    BYTE PTR [rax+rax*1],al
 69a:	00 00                	add    BYTE PTR [rax],al
 69c:	00 41 0e             	add    BYTE PTR [rcx+0xe],al
 69f:	10 86 02 43 0d 06    	adc    BYTE PTR [rsi+0x60d4302],al
 6a5:	4c 8e 03             	rex.WR mov es,WORD PTR [rbx]
 6a8:	8c 04 83             	mov    WORD PTR [rbx+rax*4],es
 6ab:	05 02 68 2e 10       	add    eax,0x102e6802
 6b0:	5e                   	pop    rsi
 6b1:	2e 00 03             	add    BYTE PTR cs:[rbx],al
 6b4:	05 03 0c 07 08       	add    eax,0x8070c03
 6b9:	00 00                	add    BYTE PTR [rax],al
 6bb:	00 34 00             	add    BYTE PTR [rax+rax*1],dh
 6be:	00 00                	add    BYTE PTR [rax],al
 6c0:	e0 04                	loopne 6c6 <.eh_frame+0x6c6>
 6c2:	00 00                	add    BYTE PTR [rax],al
 6c4:	00 00                	add    BYTE PTR [rax],al
 6c6:	00 00                	add    BYTE PTR [rax],al
 6c8:	79 04                	jns    6ce <.eh_frame+0x6ce>
 6ca:	00 00                	add    BYTE PTR [rax],al
 6cc:	04 00                	add    al,0x0
 6ce:	00 00                	add    BYTE PTR [rax],al
 6d0:	00 41 0e             	add    BYTE PTR [rcx+0xe],al
 6d3:	10 86 02 43 0d 06    	adc    BYTE PTR [rsi+0x60d4302],al
 6d9:	4d 8f 03             	rex.WRB pop QWORD PTR [r11]
 6dc:	8e 04 8d 05 8c 06 83 	mov    es,WORD PTR [rcx*4-0x7cf973fb]
 6e3:	07                   	(bad)  
 6e4:	03 a9 01 2e 10 50    	add    ebp,DWORD PTR [rcx+0x50102e01]
 6ea:	2e 00 03             	add    BYTE PTR cs:[rbx],al
 6ed:	ae                   	scas   al,BYTE PTR es:[rdi]
 6ee:	02 0c 07             	add    cl,BYTE PTR [rdi+rax*1]
 6f1:	08 00                	or     BYTE PTR [rax],al
 6f3:	00 24 00             	add    BYTE PTR [rax+rax*1],ah
 6f6:	00 00                	add    BYTE PTR [rax],al
 6f8:	18 05 00 00 00 00    	sbb    BYTE PTR [rip+0x0],al        # 6fe <.eh_frame+0x6fe>
 6fe:	00 00                	add    BYTE PTR [rax],al
 700:	6e                   	outs   dx,BYTE PTR ds:[rsi]
 701:	00 00                	add    BYTE PTR [rax],al
 703:	00 04 00             	add    BYTE PTR [rax+rax*1],al
 706:	00 00                	add    BYTE PTR [rax],al
 708:	00 41 0e             	add    BYTE PTR [rcx+0xe],al
 70b:	10 83 02 47 0e f0    	adc    BYTE PTR [rbx-0xff1b8fe],al
 711:	02 02                	add    al,BYTE PTR [rdx]
 713:	64 0e                	fs (bad) 
 715:	10 41 0e             	adc    BYTE PTR [rcx+0xe],al
 718:	08 00                	or     BYTE PTR [rax],al
 71a:	00 00                	add    BYTE PTR [rax],al
 71c:	20 00                	and    BYTE PTR [rax],al
 71e:	00 00                	add    BYTE PTR [rax],al
 720:	20 07                	and    BYTE PTR [rdi],al
 722:	00 00                	add    BYTE PTR [rax],al
 724:	00 00                	add    BYTE PTR [rax],al
 726:	00 00                	add    BYTE PTR [rax],al
 728:	f2 00 00             	repnz add BYTE PTR [rax],al
 72b:	00 00                	add    BYTE PTR [rax],al
 72d:	41 0e                	rex.B (bad) 
 72f:	10 86 02 43 0d 06    	adc    BYTE PTR [rsi+0x60d4302],al
 735:	4a 8c 03             	rex.WX mov WORD PTR [rbx],es
 738:	83 04 02 e3          	add    DWORD PTR [rdx+rax*1],0xffffffe3
 73c:	0c 07                	or     al,0x7
 73e:	08 00                	or     BYTE PTR [rax],al
 740:	6c                   	ins    BYTE PTR es:[rdi],dx
 741:	00 00                	add    BYTE PTR [rax],al
 743:	00 64 05 00          	add    BYTE PTR [rbp+rax*1+0x0],ah
 747:	00 00                	add    BYTE PTR [rax],al
 749:	00 00                	add    BYTE PTR [rax],al
 74b:	00 9a 0f 00 00 04    	add    BYTE PTR [rdx+0x400000f],bl
 751:	00 00                	add    BYTE PTR [rax],al
 753:	00 00                	add    BYTE PTR [rax],al
 755:	41 0e                	rex.B (bad) 
 757:	10 86 02 43 0d 06    	adc    BYTE PTR [rsi+0x60d4302],al
 75d:	50                   	push   rax
 75e:	8f 03                	pop    QWORD PTR [rbx]
 760:	8e 04 8d 05 8c 06 83 	mov    es,WORD PTR [rcx*4-0x7cf973fb]
 767:	07                   	(bad)  
 768:	02 69 2e             	add    ch,BYTE PTR [rcx+0x2e]
 76b:	10 5e 2e             	adc    BYTE PTR [rsi+0x2e],bl
 76e:	00 02                	add    BYTE PTR [rdx],al
 770:	5e                   	pop    rsi
 771:	2e 10 57 2e          	adc    BYTE PTR cs:[rdi+0x2e],dl
 775:	00 02                	add    BYTE PTR [rdx],al
 777:	52                   	push   rdx
 778:	2e 10 57 2e          	adc    BYTE PTR cs:[rdi+0x2e],dl
 77c:	00 02                	add    BYTE PTR [rdx],al
 77e:	52                   	push   rdx
 77f:	2e 10 57 2e          	adc    BYTE PTR cs:[rdi+0x2e],dl
 783:	00 02                	add    BYTE PTR [rdx],al
 785:	52                   	push   rdx
 786:	2e 10 57 2e          	adc    BYTE PTR cs:[rdi+0x2e],dl
 78a:	00 03                	add    BYTE PTR [rbx],al
 78c:	d2 03                	rol    BYTE PTR [rbx],cl
 78e:	2e 10 57 2e          	adc    BYTE PTR cs:[rdi+0x2e],dl
 792:	00 03                	add    BYTE PTR [rbx],al
 794:	cd 04                	int    0x4
 796:	2e 10 57 2e          	adc    BYTE PTR cs:[rdi+0x2e],dl
 79a:	00 02                	add    BYTE PTR [rdx],al
 79c:	52                   	push   rdx
 79d:	2e 10 57 2e          	adc    BYTE PTR cs:[rdi+0x2e],dl
 7a1:	00 02                	add    BYTE PTR [rdx],al
 7a3:	8b 2e                	mov    ebp,DWORD PTR [rsi]
 7a5:	10 57 2e             	adc    BYTE PTR [rdi+0x2e],dl
 7a8:	00 03                	add    BYTE PTR [rbx],al
 7aa:	76 03                	jbe    7af <.eh_frame+0x7af>
 7ac:	0c 07                	or     al,0x7
 7ae:	08 00                	or     BYTE PTR [rax],al
 7b0:	4c 00 00             	rex.WR add BYTE PTR [rax],r8b
 7b3:	00 d4                	add    ah,dl
 7b5:	05 00 00 00 00       	add    eax,0x0
 7ba:	00 00                	add    BYTE PTR [rax],al
 7bc:	8d 11                	lea    edx,[rcx]
 7be:	00 00                	add    BYTE PTR [rax],al
 7c0:	04 00                	add    al,0x0
 7c2:	00 00                	add    BYTE PTR [rax],al
 7c4:	00 41 0e             	add    BYTE PTR [rcx+0xe],al
 7c7:	10 86 02 43 0d 06    	adc    BYTE PTR [rsi+0x60d4302],al
 7cd:	50                   	push   rax
 7ce:	8f 03                	pop    QWORD PTR [rbx]
 7d0:	8e 04 8d 05 8c 06 83 	mov    es,WORD PTR [rcx*4-0x7cf973fb]
 7d7:	07                   	(bad)  
 7d8:	03 1c 09             	add    ebx,DWORD PTR [rcx+rcx*1]
 7db:	2e 10 02             	adc    BYTE PTR cs:[rdx],al
 7de:	af                   	scas   eax,DWORD PTR es:[rdi]
 7df:	2e 00 02             	add    BYTE PTR cs:[rdx],al
 7e2:	b6 2e                	mov    dh,0x2e
 7e4:	10 02                	adc    BYTE PTR [rdx],al
 7e6:	af                   	scas   eax,DWORD PTR es:[rdi]
 7e7:	2e 00 02             	add    BYTE PTR cs:[rdx],al
 7ea:	ba 2e 10 02 af       	mov    edx,0xaf02102e
 7ef:	2e 00 02             	add    BYTE PTR cs:[rdx],al
 7f2:	ba 2e 10 02 af       	mov    edx,0xaf02102e
 7f7:	2e 00 03             	add    BYTE PTR cs:[rbx],al
 7fa:	76 03                	jbe    7ff <.eh_frame+0x7ff>
 7fc:	0c 07                	or     al,0x7
 7fe:	08 00                	or     BYTE PTR [rax],al
 800:	14 00                	adc    al,0x0
 802:	00 00                	add    BYTE PTR [rax],al
 804:	04 08                	add    al,0x8
 806:	00 00                	add    BYTE PTR [rax],al
 808:	00 00                	add    BYTE PTR [rax],al
 80a:	00 00                	add    BYTE PTR [rax],al
 80c:	27                   	(bad)  
 80d:	00 00                	add    BYTE PTR [rax],al
 80f:	00 00                	add    BYTE PTR [rax],al
 811:	44 0e                	rex.R (bad) 
 813:	10 62 0e             	adc    BYTE PTR [rdx+0xe],ah
 816:	08 00                	or     BYTE PTR [rax],al
