
main.o:     formato del fichero elf64-x86-64


Desensamblado de la sección .group:

0000000000000000 <.group>:
   0:	01 00                	add    DWORD PTR [rax],eax
   2:	00 00                	add    BYTE PTR [rax],al
   4:	09 00                	or     DWORD PTR [rax],eax
   6:	00 00                	add    BYTE PTR [rax],al
   8:	0a 00                	or     al,BYTE PTR [rax]
	...

Desensamblado de la sección .group:

0000000000000000 <_ZN9simulatorD5Ev>:
   0:	01 00                	add    DWORD PTR [rax],eax
   2:	00 00                	add    BYTE PTR [rax],al
   4:	0f 00 00             	sldt   WORD PTR [rax]
   7:	00 10                	add    BYTE PTR [rax],dl
   9:	00 00                	add    BYTE PTR [rax],al
	...

Desensamblado de la sección .group:

0000000000000000 <.group>:
   0:	01 00                	add    DWORD PTR [rax],eax
   2:	00 00                	add    BYTE PTR [rax],al
   4:	14 00                	adc    al,0x0
   6:	00 00                	add    BYTE PTR [rax],al
   8:	15                   	.byte 0x15
   9:	00 00                	add    BYTE PTR [rax],al
	...

Desensamblado de la sección .group:

0000000000000000 <_ZNSt7__cxx1115basic_stringbufIcSt11char_traitsIcESaIcEED5Ev>:
   0:	01 00                	add    DWORD PTR [rax],eax
   2:	00 00                	add    BYTE PTR [rax],al
   4:	17                   	(bad)  
   5:	00 00                	add    BYTE PTR [rax],al
   7:	00 18                	add    BYTE PTR [rax],bl
   9:	00 00                	add    BYTE PTR [rax],al
   b:	00 1a                	add    BYTE PTR [rdx],bl
   d:	00 00                	add    BYTE PTR [rax],al
   f:	00 1b                	add    BYTE PTR [rbx],bl
  11:	00 00                	add    BYTE PTR [rax],al
	...

Desensamblado de la sección .text:

0000000000000000 <_ZNSt7__cxx1112basic_stringIcSt11char_traitsIcESaIcEE12_M_constructIPKcEEvT_S8_St20forward_iterator_tag.isra.36>:
       0:	41 54                	push   r12
       2:	55                   	push   rbp
       3:	49 89 f4             	mov    r12,rsi
       6:	53                   	push   rbx
       7:	48 89 fd             	mov    rbp,rdi
       a:	48 83 ec 10          	sub    rsp,0x10
       e:	64 48 8b 04 25 28 00 	mov    rax,QWORD PTR fs:0x28
      15:	00 00 
      17:	48 89 44 24 08       	mov    QWORD PTR [rsp+0x8],rax
      1c:	31 c0                	xor    eax,eax
      1e:	48 85 f6             	test   rsi,rsi
      21:	75 15                	jne    38 <_ZNSt7__cxx1112basic_stringIcSt11char_traitsIcESaIcEE12_M_constructIPKcEEvT_S8_St20forward_iterator_tag.isra.36+0x38>
      23:	48 85 d2             	test   rdx,rdx
      26:	74 10                	je     38 <_ZNSt7__cxx1112basic_stringIcSt11char_traitsIcESaIcEE12_M_constructIPKcEEvT_S8_St20forward_iterator_tag.isra.36+0x38>
      28:	bf 00 00 00 00       	mov    edi,0x0
      2d:	e8 00 00 00 00       	call   32 <_ZNSt7__cxx1112basic_stringIcSt11char_traitsIcESaIcEE12_M_constructIPKcEEvT_S8_St20forward_iterator_tag.isra.36+0x32>
      32:	66 0f 1f 44 00 00    	nop    WORD PTR [rax+rax*1+0x0]
      38:	48 89 d3             	mov    rbx,rdx
      3b:	4c 29 e3             	sub    rbx,r12
      3e:	48 83 fb 0f          	cmp    rbx,0xf
      42:	48 89 1c 24          	mov    QWORD PTR [rsp],rbx
      46:	77 38                	ja     80 <_ZNSt7__cxx1112basic_stringIcSt11char_traitsIcESaIcEE12_M_constructIPKcEEvT_S8_St20forward_iterator_tag.isra.36+0x80>
      48:	48 8b 55 00          	mov    rdx,QWORD PTR [rbp+0x0]
      4c:	48 83 fb 01          	cmp    rbx,0x1
      50:	48 89 d7             	mov    rdi,rdx
      53:	74 5b                	je     b0 <_ZNSt7__cxx1112basic_stringIcSt11char_traitsIcESaIcEE12_M_constructIPKcEEvT_S8_St20forward_iterator_tag.isra.36+0xb0>
      55:	48 85 db             	test   rbx,rbx
      58:	75 42                	jne    9c <_ZNSt7__cxx1112basic_stringIcSt11char_traitsIcESaIcEE12_M_constructIPKcEEvT_S8_St20forward_iterator_tag.isra.36+0x9c>
      5a:	48 8b 04 24          	mov    rax,QWORD PTR [rsp]
      5e:	48 89 45 08          	mov    QWORD PTR [rbp+0x8],rax
      62:	c6 04 02 00          	mov    BYTE PTR [rdx+rax*1],0x0
      66:	48 8b 44 24 08       	mov    rax,QWORD PTR [rsp+0x8]
      6b:	64 48 33 04 25 28 00 	xor    rax,QWORD PTR fs:0x28
      72:	00 00 
      74:	75 47                	jne    bd <_ZNSt7__cxx1112basic_stringIcSt11char_traitsIcESaIcEE12_M_constructIPKcEEvT_S8_St20forward_iterator_tag.isra.36+0xbd>
      76:	48 83 c4 10          	add    rsp,0x10
      7a:	5b                   	pop    rbx
      7b:	5d                   	pop    rbp
      7c:	41 5c                	pop    r12
      7e:	c3                   	ret    
      7f:	90                   	nop
      80:	48 89 ef             	mov    rdi,rbp
      83:	31 d2                	xor    edx,edx
      85:	48 89 e6             	mov    rsi,rsp
      88:	e8 00 00 00 00       	call   8d <_ZNSt7__cxx1112basic_stringIcSt11char_traitsIcESaIcEE12_M_constructIPKcEEvT_S8_St20forward_iterator_tag.isra.36+0x8d>
      8d:	48 89 c7             	mov    rdi,rax
      90:	48 89 45 00          	mov    QWORD PTR [rbp+0x0],rax
      94:	48 8b 04 24          	mov    rax,QWORD PTR [rsp]
      98:	48 89 45 10          	mov    QWORD PTR [rbp+0x10],rax
      9c:	48 89 da             	mov    rdx,rbx
      9f:	4c 89 e6             	mov    rsi,r12
      a2:	e8 00 00 00 00       	call   a7 <_ZNSt7__cxx1112basic_stringIcSt11char_traitsIcESaIcEE12_M_constructIPKcEEvT_S8_St20forward_iterator_tag.isra.36+0xa7>
      a7:	48 8b 55 00          	mov    rdx,QWORD PTR [rbp+0x0]
      ab:	eb ad                	jmp    5a <_ZNSt7__cxx1112basic_stringIcSt11char_traitsIcESaIcEE12_M_constructIPKcEEvT_S8_St20forward_iterator_tag.isra.36+0x5a>
      ad:	0f 1f 00             	nop    DWORD PTR [rax]
      b0:	41 0f b6 04 24       	movzx  eax,BYTE PTR [r12]
      b5:	88 02                	mov    BYTE PTR [rdx],al
      b7:	48 8b 55 00          	mov    rdx,QWORD PTR [rbp+0x0]
      bb:	eb 9d                	jmp    5a <_ZNSt7__cxx1112basic_stringIcSt11char_traitsIcESaIcEE12_M_constructIPKcEEvT_S8_St20forward_iterator_tag.isra.36+0x5a>
      bd:	e8 00 00 00 00       	call   c2 <_ZNSt7__cxx1112basic_stringIcSt11char_traitsIcESaIcEE12_M_constructIPKcEEvT_S8_St20forward_iterator_tag.isra.36+0xc2>
      c2:	0f 1f 40 00          	nop    DWORD PTR [rax+0x0]
      c6:	66 2e 0f 1f 84 00 00 	nop    WORD PTR cs:[rax+rax*1+0x0]
      cd:	00 00 00 

00000000000000d0 <_ZN2io10writeFloatEf.part.18>:
      d0:	53                   	push   rbx
      d1:	ba 26 00 00 00       	mov    edx,0x26
      d6:	be 00 00 00 00       	mov    esi,0x0
      db:	bf 00 00 00 00       	mov    edi,0x0
      e0:	e8 00 00 00 00       	call   e5 <_ZN2io10writeFloatEf.part.18+0x15>
      e5:	48 8b 05 00 00 00 00 	mov    rax,QWORD PTR [rip+0x0]        # ec <_ZN2io10writeFloatEf.part.18+0x1c>
      ec:	48 8b 40 e8          	mov    rax,QWORD PTR [rax-0x18]
      f0:	48 8b 98 00 00 00 00 	mov    rbx,QWORD PTR [rax+0x0]
      f7:	48 85 db             	test   rbx,rbx
      fa:	74 4a                	je     146 <_ZN2io10writeFloatEf.part.18+0x76>
      fc:	80 7b 38 00          	cmp    BYTE PTR [rbx+0x38],0x0
     100:	74 1e                	je     120 <_ZN2io10writeFloatEf.part.18+0x50>
     102:	0f be 73 43          	movsx  esi,BYTE PTR [rbx+0x43]
     106:	bf 00 00 00 00       	mov    edi,0x0
     10b:	e8 00 00 00 00       	call   110 <_ZN2io10writeFloatEf.part.18+0x40>
     110:	5b                   	pop    rbx
     111:	48 89 c7             	mov    rdi,rax
     114:	e9 00 00 00 00       	jmp    119 <_ZN2io10writeFloatEf.part.18+0x49>
     119:	0f 1f 80 00 00 00 00 	nop    DWORD PTR [rax+0x0]
     120:	48 89 df             	mov    rdi,rbx
     123:	e8 00 00 00 00       	call   128 <_ZN2io10writeFloatEf.part.18+0x58>
     128:	48 8b 03             	mov    rax,QWORD PTR [rbx]
     12b:	be 0a 00 00 00       	mov    esi,0xa
     130:	48 8b 40 30          	mov    rax,QWORD PTR [rax+0x30]
     134:	48 3d 00 00 00 00    	cmp    rax,0x0
     13a:	74 ca                	je     106 <_ZN2io10writeFloatEf.part.18+0x36>
     13c:	48 89 df             	mov    rdi,rbx
     13f:	ff d0                	call   rax
     141:	0f be f0             	movsx  esi,al
     144:	eb c0                	jmp    106 <_ZN2io10writeFloatEf.part.18+0x36>
     146:	e8 00 00 00 00       	call   14b <_ZN2io10writeFloatEf.part.18+0x7b>
     14b:	90                   	nop
     14c:	0f 1f 40 00          	nop    DWORD PTR [rax+0x0]

0000000000000150 <_ZN2io7readIntERi.part.22>:
     150:	53                   	push   rbx
     151:	ba 35 00 00 00       	mov    edx,0x35
     156:	be 00 00 00 00       	mov    esi,0x0
     15b:	bf 00 00 00 00       	mov    edi,0x0
     160:	e8 00 00 00 00       	call   165 <_ZN2io7readIntERi.part.22+0x15>
     165:	48 8b 05 00 00 00 00 	mov    rax,QWORD PTR [rip+0x0]        # 16c <_ZN2io7readIntERi.part.22+0x1c>
     16c:	48 8b 40 e8          	mov    rax,QWORD PTR [rax-0x18]
     170:	48 8b 98 00 00 00 00 	mov    rbx,QWORD PTR [rax+0x0]
     177:	48 85 db             	test   rbx,rbx
     17a:	74 4a                	je     1c6 <_ZN2io7readIntERi.part.22+0x76>
     17c:	80 7b 38 00          	cmp    BYTE PTR [rbx+0x38],0x0
     180:	74 1e                	je     1a0 <_ZN2io7readIntERi.part.22+0x50>
     182:	0f be 73 43          	movsx  esi,BYTE PTR [rbx+0x43]
     186:	bf 00 00 00 00       	mov    edi,0x0
     18b:	e8 00 00 00 00       	call   190 <_ZN2io7readIntERi.part.22+0x40>
     190:	48 89 c7             	mov    rdi,rax
     193:	e8 00 00 00 00       	call   198 <_ZN2io7readIntERi.part.22+0x48>
     198:	31 c0                	xor    eax,eax
     19a:	5b                   	pop    rbx
     19b:	c3                   	ret    
     19c:	0f 1f 40 00          	nop    DWORD PTR [rax+0x0]
     1a0:	48 89 df             	mov    rdi,rbx
     1a3:	e8 00 00 00 00       	call   1a8 <_ZN2io7readIntERi.part.22+0x58>
     1a8:	48 8b 03             	mov    rax,QWORD PTR [rbx]
     1ab:	be 0a 00 00 00       	mov    esi,0xa
     1b0:	48 8b 40 30          	mov    rax,QWORD PTR [rax+0x30]
     1b4:	48 3d 00 00 00 00    	cmp    rax,0x0
     1ba:	74 ca                	je     186 <_ZN2io7readIntERi.part.22+0x36>
     1bc:	48 89 df             	mov    rdi,rbx
     1bf:	ff d0                	call   rax
     1c1:	0f be f0             	movsx  esi,al
     1c4:	eb c0                	jmp    186 <_ZN2io7readIntERi.part.22+0x36>
     1c6:	e8 00 00 00 00       	call   1cb <_ZN2io7readIntERi.part.22+0x7b>
     1cb:	90                   	nop
     1cc:	0f 1f 40 00          	nop    DWORD PTR [rax+0x0]

00000000000001d0 <_ZN4mat2C1Ev>:
     1d0:	c7 47 08 00 00 00 00 	mov    DWORD PTR [rdi+0x8],0x0
     1d7:	c7 47 0c 00 00 00 00 	mov    DWORD PTR [rdi+0xc],0x0
     1de:	48 c7 07 00 00 00 00 	mov    QWORD PTR [rdi],0x0
     1e5:	c3                   	ret    
     1e6:	66 2e 0f 1f 84 00 00 	nop    WORD PTR cs:[rax+rax*1+0x0]
     1ed:	00 00 00 

00000000000001f0 <_ZN4mat24inicEf>:
     1f0:	55                   	push   rbp
     1f1:	53                   	push   rbx
     1f2:	48 89 fd             	mov    rbp,rdi
     1f5:	48 b8 00 00 00 00 00 	movabs rax,0x1fc0000000000000
     1fc:	00 c0 1f 
     1ff:	48 83 ec 18          	sub    rsp,0x18
     203:	8b 5f 08             	mov    ebx,DWORD PTR [rdi+0x8]
     206:	0f af 5f 0c          	imul   ebx,DWORD PTR [rdi+0xc]
     20a:	f3 0f 11 44 24 0c    	movss  DWORD PTR [rsp+0xc],xmm0
     210:	48 63 fb             	movsxd rdi,ebx
     213:	48 39 c7             	cmp    rdi,rax
     216:	77 3c                	ja     254 <_ZN4mat24inicEf+0x64>
     218:	48 c1 e7 02          	shl    rdi,0x2
     21c:	e8 00 00 00 00       	call   221 <_ZN4mat24inicEf+0x31>
     221:	8d 53 ff             	lea    edx,[rbx-0x1]
     224:	85 db                	test   ebx,ebx
     226:	48 89 45 00          	mov    QWORD PTR [rbp+0x0],rax
     22a:	f3 0f 10 44 24 0c    	movss  xmm0,DWORD PTR [rsp+0xc]
     230:	48 8d 54 90 04       	lea    rdx,[rax+rdx*4+0x4]
     235:	7e 16                	jle    24d <_ZN4mat24inicEf+0x5d>
     237:	66 0f 1f 84 00 00 00 	nop    WORD PTR [rax+rax*1+0x0]
     23e:	00 00 
     240:	f3 0f 11 00          	movss  DWORD PTR [rax],xmm0
     244:	48 83 c0 04          	add    rax,0x4
     248:	48 39 d0             	cmp    rax,rdx
     24b:	75 f3                	jne    240 <_ZN4mat24inicEf+0x50>
     24d:	48 83 c4 18          	add    rsp,0x18
     251:	5b                   	pop    rbx
     252:	5d                   	pop    rbp
     253:	c3                   	ret    
     254:	e8 00 00 00 00       	call   259 <_ZN4mat24inicEf+0x69>
     259:	90                   	nop
     25a:	66 0f 1f 44 00 00    	nop    WORD PTR [rax+rax*1+0x0]

0000000000000260 <_ZN4mat2C1Eii>:
     260:	66 0f ef c0          	pxor   xmm0,xmm0
     264:	89 77 08             	mov    DWORD PTR [rdi+0x8],esi
     267:	89 57 0c             	mov    DWORD PTR [rdi+0xc],edx
     26a:	eb 84                	jmp    1f0 <_ZN4mat24inicEf>
     26c:	0f 1f 40 00          	nop    DWORD PTR [rax+0x0]

0000000000000270 <_ZN4mat2C1Eiif>:
     270:	89 77 08             	mov    DWORD PTR [rdi+0x8],esi
     273:	89 57 0c             	mov    DWORD PTR [rdi+0xc],edx
     276:	e9 75 ff ff ff       	jmp    1f0 <_ZN4mat24inicEf>
     27b:	90                   	nop
     27c:	0f 1f 40 00          	nop    DWORD PTR [rax+0x0]

0000000000000280 <_ZN4mat26setAllEf>:
     280:	8b 57 08             	mov    edx,DWORD PTR [rdi+0x8]
     283:	0f af 57 0c          	imul   edx,DWORD PTR [rdi+0xc]
     287:	85 d2                	test   edx,edx
     289:	7e 22                	jle    2ad <_ZN4mat26setAllEf+0x2d>
     28b:	48 8b 07             	mov    rax,QWORD PTR [rdi]
     28e:	83 ea 01             	sub    edx,0x1
     291:	48 8d 54 90 04       	lea    rdx,[rax+rdx*4+0x4]
     296:	66 2e 0f 1f 84 00 00 	nop    WORD PTR cs:[rax+rax*1+0x0]
     29d:	00 00 00 
     2a0:	f3 0f 11 00          	movss  DWORD PTR [rax],xmm0
     2a4:	48 83 c0 04          	add    rax,0x4
     2a8:	48 39 d0             	cmp    rax,rdx
     2ab:	75 f3                	jne    2a0 <_ZN4mat26setAllEf+0x20>
     2ad:	f3 c3                	repz ret 
     2af:	90                   	nop

00000000000002b0 <_ZN4mat23setEiif>:
     2b0:	0f af 77 0c          	imul   esi,DWORD PTR [rdi+0xc]
     2b4:	48 8b 07             	mov    rax,QWORD PTR [rdi]
     2b7:	01 f2                	add    edx,esi
     2b9:	48 63 d2             	movsxd rdx,edx
     2bc:	f3 0f 11 04 90       	movss  DWORD PTR [rax+rdx*4],xmm0
     2c1:	c3                   	ret    
     2c2:	0f 1f 40 00          	nop    DWORD PTR [rax+0x0]
     2c6:	66 2e 0f 1f 84 00 00 	nop    WORD PTR cs:[rax+rax*1+0x0]
     2cd:	00 00 00 

00000000000002d0 <_ZN4mat27copyAllERS_>:
     2d0:	66 0f ef d2          	pxor   xmm2,xmm2
     2d4:	66 0f ef db          	pxor   xmm3,xmm3
     2d8:	f3 0f 2a 57 08       	cvtsi2ss xmm2,DWORD PTR [rdi+0x8]
     2dd:	0f 2e d3             	ucomiss xmm2,xmm3
     2e0:	76 74                	jbe    356 <_ZN4mat27copyAllERS_+0x86>
     2e2:	44 8b 5f 0c          	mov    r11d,DWORD PTR [rdi+0xc]
     2e6:	66 0f ef c9          	pxor   xmm1,xmm1
     2ea:	45 31 d2             	xor    r10d,r10d
     2ed:	45 31 c9             	xor    r9d,r9d
     2f0:	f3 41 0f 2a cb       	cvtsi2ss xmm1,r11d
     2f5:	0f 1f 00             	nop    DWORD PTR [rax]
     2f8:	0f 2e cb             	ucomiss xmm1,xmm3
     2fb:	76 42                	jbe    33f <_ZN4mat27copyAllERS_+0x6f>
     2fd:	8b 46 0c             	mov    eax,DWORD PTR [rsi+0xc]
     300:	48 8b 16             	mov    rdx,QWORD PTR [rsi]
     303:	41 0f af c1          	imul   eax,r9d
     307:	48 98                	cdqe   
     309:	4c 8d 04 82          	lea    r8,[rdx+rax*4]
     30d:	48 8b 17             	mov    rdx,QWORD PTR [rdi]
     310:	49 63 c2             	movsxd rax,r10d
     313:	48 8d 0c 82          	lea    rcx,[rdx+rax*4]
     317:	31 c0                	xor    eax,eax
     319:	31 d2                	xor    edx,edx
     31b:	0f 1f 44 00 00       	nop    DWORD PTR [rax+rax*1+0x0]
     320:	f3 41 0f 10 04 00    	movss  xmm0,DWORD PTR [r8+rax*1]
     326:	83 c2 01             	add    edx,0x1
     329:	f3 0f 11 04 01       	movss  DWORD PTR [rcx+rax*1],xmm0
     32e:	66 0f ef c0          	pxor   xmm0,xmm0
     332:	48 83 c0 04          	add    rax,0x4
     336:	f3 0f 2a c2          	cvtsi2ss xmm0,edx
     33a:	0f 2e c8             	ucomiss xmm1,xmm0
     33d:	77 e1                	ja     320 <_ZN4mat27copyAllERS_+0x50>
     33f:	66 0f ef c0          	pxor   xmm0,xmm0
     343:	41 83 c1 01          	add    r9d,0x1
     347:	45 01 da             	add    r10d,r11d
     34a:	f3 41 0f 2a c1       	cvtsi2ss xmm0,r9d
     34f:	0f 2e d0             	ucomiss xmm2,xmm0
     352:	77 a4                	ja     2f8 <_ZN4mat27copyAllERS_+0x28>
     354:	f3 c3                	repz ret 
     356:	f3 c3                	repz ret 
     358:	0f 1f 84 00 00 00 00 	nop    DWORD PTR [rax+rax*1+0x0]
     35f:	00 

0000000000000360 <_ZN4mat23addEiif>:
     360:	0f af 77 0c          	imul   esi,DWORD PTR [rdi+0xc]
     364:	48 8b 07             	mov    rax,QWORD PTR [rdi]
     367:	01 f2                	add    edx,esi
     369:	48 63 d2             	movsxd rdx,edx
     36c:	48 8d 04 90          	lea    rax,[rax+rdx*4]
     370:	f3 0f 58 00          	addss  xmm0,DWORD PTR [rax]
     374:	f3 0f 11 00          	movss  DWORD PTR [rax],xmm0
     378:	c3                   	ret    
     379:	90                   	nop
     37a:	66 0f 1f 44 00 00    	nop    WORD PTR [rax+rax*1+0x0]

0000000000000380 <_ZN4mat22atEii>:
     380:	0f af 77 0c          	imul   esi,DWORD PTR [rdi+0xc]
     384:	48 8b 07             	mov    rax,QWORD PTR [rdi]
     387:	01 f2                	add    edx,esi
     389:	48 63 d2             	movsxd rdx,edx
     38c:	f3 0f 10 04 90       	movss  xmm0,DWORD PTR [rax+rdx*4]
     391:	c3                   	ret    
     392:	0f 1f 40 00          	nop    DWORD PTR [rax+0x0]
     396:	66 2e 0f 1f 84 00 00 	nop    WORD PTR cs:[rax+rax*1+0x0]
     39d:	00 00 00 

00000000000003a0 <_ZN4mat24colsEv>:
     3a0:	66 0f ef c0          	pxor   xmm0,xmm0
     3a4:	f3 0f 2a 47 0c       	cvtsi2ss xmm0,DWORD PTR [rdi+0xc]
     3a9:	c3                   	ret    
     3aa:	66 0f 1f 44 00 00    	nop    WORD PTR [rax+rax*1+0x0]

00000000000003b0 <_ZN4mat24rowsEv>:
     3b0:	66 0f ef c0          	pxor   xmm0,xmm0
     3b4:	f3 0f 2a 47 08       	cvtsi2ss xmm0,DWORD PTR [rdi+0x8]
     3b9:	c3                   	ret    
     3ba:	66 0f 1f 44 00 00    	nop    WORD PTR [rax+rax*1+0x0]

00000000000003c0 <_ZN4mat25printEv>:
     3c0:	41 54                	push   r12
     3c2:	55                   	push   rbp
     3c3:	31 ed                	xor    ebp,ebp
     3c5:	53                   	push   rbx
     3c6:	8b 47 08             	mov    eax,DWORD PTR [rdi+0x8]
     3c9:	49 89 fc             	mov    r12,rdi
     3cc:	85 c0                	test   eax,eax
     3ce:	0f 8e d0 00 00 00    	jle    4a4 <_ZN4mat25printEv+0xe4>
     3d4:	0f 1f 40 00          	nop    DWORD PTR [rax+0x0]
     3d8:	41 8b 44 24 0c       	mov    eax,DWORD PTR [r12+0xc]
     3dd:	31 db                	xor    ebx,ebx
     3df:	85 c0                	test   eax,eax
     3e1:	7e 41                	jle    424 <_ZN4mat25printEv+0x64>
     3e3:	0f 1f 44 00 00       	nop    DWORD PTR [rax+rax*1+0x0]
     3e8:	0f af c5             	imul   eax,ebp
     3eb:	49 8b 14 24          	mov    rdx,QWORD PTR [r12]
     3ef:	bf 00 00 00 00       	mov    edi,0x0
     3f4:	66 0f ef c0          	pxor   xmm0,xmm0
     3f8:	01 d8                	add    eax,ebx
     3fa:	83 c3 01             	add    ebx,0x1
     3fd:	48 98                	cdqe   
     3ff:	f3 0f 5a 04 82       	cvtss2sd xmm0,DWORD PTR [rdx+rax*4]
     404:	e8 00 00 00 00       	call   409 <_ZN4mat25printEv+0x49>
     409:	ba 01 00 00 00       	mov    edx,0x1
     40e:	be 00 00 00 00       	mov    esi,0x0
     413:	48 89 c7             	mov    rdi,rax
     416:	e8 00 00 00 00       	call   41b <_ZN4mat25printEv+0x5b>
     41b:	41 8b 44 24 0c       	mov    eax,DWORD PTR [r12+0xc]
     420:	39 d8                	cmp    eax,ebx
     422:	7f c4                	jg     3e8 <_ZN4mat25printEv+0x28>
     424:	48 8b 05 00 00 00 00 	mov    rax,QWORD PTR [rip+0x0]        # 42b <_ZN4mat25printEv+0x6b>
     42b:	48 8b 40 e8          	mov    rax,QWORD PTR [rax-0x18]
     42f:	48 8b 98 00 00 00 00 	mov    rbx,QWORD PTR [rax+0x0]
     436:	48 85 db             	test   rbx,rbx
     439:	0f 84 2b 01 00 00    	je     56a <_ZN4mat25printEv+0x1aa>
     43f:	80 7b 38 00          	cmp    BYTE PTR [rbx+0x38],0x0
     443:	0f 84 c7 00 00 00    	je     510 <_ZN4mat25printEv+0x150>
     449:	0f be 73 43          	movsx  esi,BYTE PTR [rbx+0x43]
     44d:	bf 00 00 00 00       	mov    edi,0x0
     452:	e8 00 00 00 00       	call   457 <_ZN4mat25printEv+0x97>
     457:	48 89 c7             	mov    rdi,rax
     45a:	e8 00 00 00 00       	call   45f <_ZN4mat25printEv+0x9f>
     45f:	48 8b 05 00 00 00 00 	mov    rax,QWORD PTR [rip+0x0]        # 466 <_ZN4mat25printEv+0xa6>
     466:	48 8b 40 e8          	mov    rax,QWORD PTR [rax-0x18]
     46a:	48 8b 98 00 00 00 00 	mov    rbx,QWORD PTR [rax+0x0]
     471:	48 85 db             	test   rbx,rbx
     474:	0f 84 f0 00 00 00    	je     56a <_ZN4mat25printEv+0x1aa>
     47a:	80 7b 38 00          	cmp    BYTE PTR [rbx+0x38],0x0
     47e:	74 60                	je     4e0 <_ZN4mat25printEv+0x120>
     480:	0f be 73 43          	movsx  esi,BYTE PTR [rbx+0x43]
     484:	bf 00 00 00 00       	mov    edi,0x0
     489:	83 c5 01             	add    ebp,0x1
     48c:	e8 00 00 00 00       	call   491 <_ZN4mat25printEv+0xd1>
     491:	48 89 c7             	mov    rdi,rax
     494:	e8 00 00 00 00       	call   499 <_ZN4mat25printEv+0xd9>
     499:	41 39 6c 24 08       	cmp    DWORD PTR [r12+0x8],ebp
     49e:	0f 8f 34 ff ff ff    	jg     3d8 <_ZN4mat25printEv+0x18>
     4a4:	48 8b 05 00 00 00 00 	mov    rax,QWORD PTR [rip+0x0]        # 4ab <_ZN4mat25printEv+0xeb>
     4ab:	48 8b 40 e8          	mov    rax,QWORD PTR [rax-0x18]
     4af:	48 8b 98 00 00 00 00 	mov    rbx,QWORD PTR [rax+0x0]
     4b6:	48 85 db             	test   rbx,rbx
     4b9:	0f 84 ab 00 00 00    	je     56a <_ZN4mat25printEv+0x1aa>
     4bf:	80 7b 38 00          	cmp    BYTE PTR [rbx+0x38],0x0
     4c3:	74 78                	je     53d <_ZN4mat25printEv+0x17d>
     4c5:	0f be 73 43          	movsx  esi,BYTE PTR [rbx+0x43]
     4c9:	bf 00 00 00 00       	mov    edi,0x0
     4ce:	e8 00 00 00 00       	call   4d3 <_ZN4mat25printEv+0x113>
     4d3:	5b                   	pop    rbx
     4d4:	5d                   	pop    rbp
     4d5:	41 5c                	pop    r12
     4d7:	48 89 c7             	mov    rdi,rax
     4da:	e9 00 00 00 00       	jmp    4df <_ZN4mat25printEv+0x11f>
     4df:	90                   	nop
     4e0:	48 89 df             	mov    rdi,rbx
     4e3:	e8 00 00 00 00       	call   4e8 <_ZN4mat25printEv+0x128>
     4e8:	48 8b 03             	mov    rax,QWORD PTR [rbx]
     4eb:	be 0a 00 00 00       	mov    esi,0xa
     4f0:	48 8b 40 30          	mov    rax,QWORD PTR [rax+0x30]
     4f4:	48 3d 00 00 00 00    	cmp    rax,0x0
     4fa:	74 88                	je     484 <_ZN4mat25printEv+0xc4>
     4fc:	48 89 df             	mov    rdi,rbx
     4ff:	ff d0                	call   rax
     501:	0f be f0             	movsx  esi,al
     504:	e9 7b ff ff ff       	jmp    484 <_ZN4mat25printEv+0xc4>
     509:	0f 1f 80 00 00 00 00 	nop    DWORD PTR [rax+0x0]
     510:	48 89 df             	mov    rdi,rbx
     513:	e8 00 00 00 00       	call   518 <_ZN4mat25printEv+0x158>
     518:	48 8b 03             	mov    rax,QWORD PTR [rbx]
     51b:	be 0a 00 00 00       	mov    esi,0xa
     520:	48 8b 40 30          	mov    rax,QWORD PTR [rax+0x30]
     524:	48 3d 00 00 00 00    	cmp    rax,0x0
     52a:	0f 84 1d ff ff ff    	je     44d <_ZN4mat25printEv+0x8d>
     530:	48 89 df             	mov    rdi,rbx
     533:	ff d0                	call   rax
     535:	0f be f0             	movsx  esi,al
     538:	e9 10 ff ff ff       	jmp    44d <_ZN4mat25printEv+0x8d>
     53d:	48 89 df             	mov    rdi,rbx
     540:	e8 00 00 00 00       	call   545 <_ZN4mat25printEv+0x185>
     545:	48 8b 03             	mov    rax,QWORD PTR [rbx]
     548:	be 0a 00 00 00       	mov    esi,0xa
     54d:	48 8b 40 30          	mov    rax,QWORD PTR [rax+0x30]
     551:	48 3d 00 00 00 00    	cmp    rax,0x0
     557:	0f 84 6c ff ff ff    	je     4c9 <_ZN4mat25printEv+0x109>
     55d:	48 89 df             	mov    rdi,rbx
     560:	ff d0                	call   rax
     562:	0f be f0             	movsx  esi,al
     565:	e9 5f ff ff ff       	jmp    4c9 <_ZN4mat25printEv+0x109>
     56a:	e8 00 00 00 00       	call   56f <_ZN4mat25printEv+0x1af>
     56f:	90                   	nop

0000000000000570 <_ZN4mat2D1Ev>:
     570:	48 8b 3f             	mov    rdi,QWORD PTR [rdi]
     573:	48 85 ff             	test   rdi,rdi
     576:	74 08                	je     580 <_ZN4mat2D1Ev+0x10>
     578:	e9 00 00 00 00       	jmp    57d <_ZN4mat2D1Ev+0xd>
     57d:	0f 1f 00             	nop    DWORD PTR [rax]
     580:	f3 c3                	repz ret 
     582:	0f 1f 40 00          	nop    DWORD PTR [rax+0x0]
     586:	66 2e 0f 1f 84 00 00 	nop    WORD PTR cs:[rax+rax*1+0x0]
     58d:	00 00 00 

0000000000000590 <_Z4diffR4mat2S0_>:
     590:	66 0f ef ed          	pxor   xmm5,xmm5
     594:	66 0f ef e4          	pxor   xmm4,xmm4
     598:	f3 0f 2a 6f 08       	cvtsi2ss xmm5,DWORD PTR [rdi+0x8]
     59d:	0f 2e ec             	ucomiss xmm5,xmm4
     5a0:	0f 86 aa 00 00 00    	jbe    650 <_Z4diffR4mat2S0_+0xc0>
     5a6:	44 8b 5f 0c          	mov    r11d,DWORD PTR [rdi+0xc]
     5aa:	66 0f ef db          	pxor   xmm3,xmm3
     5ae:	0f 28 d4             	movaps xmm2,xmm4
     5b1:	45 31 d2             	xor    r10d,r10d
     5b4:	45 31 c9             	xor    r9d,r9d
     5b7:	f3 41 0f 2a db       	cvtsi2ss xmm3,r11d
     5bc:	0f 1f 40 00          	nop    DWORD PTR [rax+0x0]
     5c0:	0f 2e dc             	ucomiss xmm3,xmm4
     5c3:	76 61                	jbe    626 <_Z4diffR4mat2S0_+0x96>
     5c5:	8b 46 0c             	mov    eax,DWORD PTR [rsi+0xc]
     5c8:	48 8b 16             	mov    rdx,QWORD PTR [rsi]
     5cb:	41 0f af c1          	imul   eax,r9d
     5cf:	48 98                	cdqe   
     5d1:	4c 8d 04 82          	lea    r8,[rdx+rax*4]
     5d5:	48 8b 17             	mov    rdx,QWORD PTR [rdi]
     5d8:	49 63 c2             	movsxd rax,r10d
     5db:	48 8d 0c 82          	lea    rcx,[rdx+rax*4]
     5df:	31 c0                	xor    eax,eax
     5e1:	31 d2                	xor    edx,edx
     5e3:	0f 1f 44 00 00       	nop    DWORD PTR [rax+rax*1+0x0]
     5e8:	f3 41 0f 10 04 00    	movss  xmm0,DWORD PTR [r8+rax*1]
     5ee:	83 c2 01             	add    edx,0x1
     5f1:	0f 28 c8             	movaps xmm1,xmm0
     5f4:	f3 0f 5a d2          	cvtss2sd xmm2,xmm2
     5f8:	66 0f ef c0          	pxor   xmm0,xmm0
     5fc:	f3 0f 5c 0c 01       	subss  xmm1,DWORD PTR [rcx+rax*1]
     601:	48 83 c0 04          	add    rax,0x4
     605:	f3 0f 5a c1          	cvtss2sd xmm0,xmm1
     609:	f2 0f 59 c0          	mulsd  xmm0,xmm0
     60d:	f2 0f 58 c2          	addsd  xmm0,xmm2
     611:	66 0f ef d2          	pxor   xmm2,xmm2
     615:	f2 0f 5a d0          	cvtsd2ss xmm2,xmm0
     619:	66 0f ef c0          	pxor   xmm0,xmm0
     61d:	f3 0f 2a c2          	cvtsi2ss xmm0,edx
     621:	0f 2e d8             	ucomiss xmm3,xmm0
     624:	77 c2                	ja     5e8 <_Z4diffR4mat2S0_+0x58>
     626:	66 0f ef c0          	pxor   xmm0,xmm0
     62a:	41 83 c1 01          	add    r9d,0x1
     62e:	45 01 da             	add    r10d,r11d
     631:	f3 41 0f 2a c1       	cvtsi2ss xmm0,r9d
     636:	0f 2e e8             	ucomiss xmm5,xmm0
     639:	77 85                	ja     5c0 <_Z4diffR4mat2S0_+0x30>
     63b:	f3 0f 51 c2          	sqrtss xmm0,xmm2
     63f:	0f 2e c0             	ucomiss xmm0,xmm0
     642:	7a 18                	jp     65c <_Z4diffR4mat2S0_+0xcc>
     644:	f3 c3                	repz ret 
     646:	66 2e 0f 1f 84 00 00 	nop    WORD PTR cs:[rax+rax*1+0x0]
     64d:	00 00 00 
     650:	0f 28 d4             	movaps xmm2,xmm4
     653:	f3 0f 51 c2          	sqrtss xmm0,xmm2
     657:	0f 2e c0             	ucomiss xmm0,xmm0
     65a:	7b e8                	jnp    644 <_Z4diffR4mat2S0_+0xb4>
     65c:	0f 28 c2             	movaps xmm0,xmm2
     65f:	48 83 ec 08          	sub    rsp,0x8
     663:	e8 00 00 00 00       	call   668 <_Z4diffR4mat2S0_+0xd8>
     668:	48 83 c4 08          	add    rsp,0x8
     66c:	c3                   	ret    
     66d:	90                   	nop
     66e:	66 90                	xchg   ax,ax

0000000000000670 <_ZN4mat211confAndInitEiif>:
     670:	89 77 08             	mov    DWORD PTR [rdi+0x8],esi
     673:	89 57 0c             	mov    DWORD PTR [rdi+0xc],edx
     676:	e9 75 fb ff ff       	jmp    1f0 <_ZN4mat24inicEf>
     67b:	90                   	nop
     67c:	0f 1f 40 00          	nop    DWORD PTR [rax+0x0]

0000000000000680 <_ZN2io5forceEv>:
     680:	48 83 c7 40          	add    rdi,0x40
     684:	e9 00 00 00 00       	jmp    689 <_ZN2io5forceEv+0x9>
     689:	90                   	nop
     68a:	66 0f 1f 44 00 00    	nop    WORD PTR [rax+rax*1+0x0]

0000000000000690 <_ZN2ioC1ENSt7__cxx1112basic_stringIcSt11char_traitsIcESaIcEEES5_>:
     690:	41 57                	push   r15
     692:	41 56                	push   r14
     694:	48 8d 47 10          	lea    rax,[rdi+0x10]
     698:	41 55                	push   r13
     69a:	41 54                	push   r12
     69c:	55                   	push   rbp
     69d:	53                   	push   rbx
     69e:	48 8d af 38 01 00 00 	lea    rbp,[rdi+0x138]
     6a5:	48 89 fb             	mov    rbx,rdi
     6a8:	48 83 ec 38          	sub    rsp,0x38
     6ac:	48 89 07             	mov    QWORD PTR [rdi],rax
     6af:	48 c7 47 08 00 00 00 	mov    QWORD PTR [rdi+0x8],0x0
     6b6:	00 
     6b7:	48 89 44 24 20       	mov    QWORD PTR [rsp+0x20],rax
     6bc:	48 8d 47 30          	lea    rax,[rdi+0x30]
     6c0:	c6 47 10 00          	mov    BYTE PTR [rdi+0x10],0x0
     6c4:	48 c7 47 28 00 00 00 	mov    QWORD PTR [rdi+0x28],0x0
     6cb:	00 
     6cc:	c6 47 30 00          	mov    BYTE PTR [rdi+0x30],0x0
     6d0:	48 89 47 20          	mov    QWORD PTR [rdi+0x20],rax
     6d4:	48 89 44 24 28       	mov    QWORD PTR [rsp+0x28],rax
     6d9:	48 8d 47 40          	lea    rax,[rdi+0x40]
     6dd:	48 89 ef             	mov    rdi,rbp
     6e0:	48 89 74 24 10       	mov    QWORD PTR [rsp+0x10],rsi
     6e5:	48 89 54 24 08       	mov    QWORD PTR [rsp+0x8],rdx
     6ea:	49 89 c7             	mov    r15,rax
     6ed:	48 89 44 24 18       	mov    QWORD PTR [rsp+0x18],rax
     6f2:	e8 00 00 00 00       	call   6f7 <_ZN2ioC1ENSt7__cxx1112basic_stringIcSt11char_traitsIcESaIcEEES5_+0x67>
     6f7:	4c 8b 25 00 00 00 00 	mov    r12,QWORD PTR [rip+0x0]        # 6fe <_ZN2ioC1ENSt7__cxx1112basic_stringIcSt11char_traitsIcESaIcEEES5_+0x6e>
     6fe:	c6 83 18 02 00 00 00 	mov    BYTE PTR [rbx+0x218],0x0
     705:	4c 89 ff             	mov    rdi,r15
     708:	4c 8b 35 00 00 00 00 	mov    r14,QWORD PTR [rip+0x0]        # 70f <_ZN2ioC1ENSt7__cxx1112basic_stringIcSt11char_traitsIcESaIcEEES5_+0x7f>
     70f:	48 c7 83 38 01 00 00 	mov    QWORD PTR [rbx+0x138],0x0
     716:	00 00 00 00 
     71a:	31 f6                	xor    esi,esi
     71c:	48 c7 83 10 02 00 00 	mov    QWORD PTR [rbx+0x210],0x0
     723:	00 00 00 00 
     727:	c6 83 19 02 00 00 00 	mov    BYTE PTR [rbx+0x219],0x0
     72e:	49 03 7c 24 e8       	add    rdi,QWORD PTR [r12-0x18]
     733:	48 c7 83 20 02 00 00 	mov    QWORD PTR [rbx+0x220],0x0
     73a:	00 00 00 00 
     73e:	48 c7 83 28 02 00 00 	mov    QWORD PTR [rbx+0x228],0x0
     745:	00 00 00 00 
     749:	48 c7 83 30 02 00 00 	mov    QWORD PTR [rbx+0x230],0x0
     750:	00 00 00 00 
     754:	48 c7 83 38 02 00 00 	mov    QWORD PTR [rbx+0x238],0x0
     75b:	00 00 00 00 
     75f:	4c 89 63 40          	mov    QWORD PTR [rbx+0x40],r12
     763:	4c 89 37             	mov    QWORD PTR [rdi],r14
     766:	e8 00 00 00 00       	call   76b <_ZN2ioC1ENSt7__cxx1112basic_stringIcSt11char_traitsIcESaIcEEES5_+0xdb>
     76b:	4c 8d 6b 48          	lea    r13,[rbx+0x48]
     76f:	48 c7 43 40 00 00 00 	mov    QWORD PTR [rbx+0x40],0x0
     776:	00 
     777:	48 c7 83 38 01 00 00 	mov    QWORD PTR [rbx+0x138],0x0
     77e:	00 00 00 00 
     782:	4c 89 ef             	mov    rdi,r13
     785:	e8 00 00 00 00       	call   78a <_ZN2ioC1ENSt7__cxx1112basic_stringIcSt11char_traitsIcESaIcEEES5_+0xfa>
     78a:	4c 89 ee             	mov    rsi,r13
     78d:	48 89 ef             	mov    rdi,rbp
     790:	e8 00 00 00 00       	call   795 <_ZN2ioC1ENSt7__cxx1112basic_stringIcSt11char_traitsIcESaIcEEES5_+0x105>
     795:	4c 8d b3 40 03 00 00 	lea    r14,[rbx+0x340]
     79c:	4c 8d bb 40 02 00 00 	lea    r15,[rbx+0x240]
     7a3:	4c 89 f7             	mov    rdi,r14
     7a6:	e8 00 00 00 00       	call   7ab <_ZN2ioC1ENSt7__cxx1112basic_stringIcSt11char_traitsIcESaIcEEES5_+0x11b>
     7ab:	48 8b 2d 00 00 00 00 	mov    rbp,QWORD PTR [rip+0x0]        # 7b2 <_ZN2ioC1ENSt7__cxx1112basic_stringIcSt11char_traitsIcESaIcEEES5_+0x122>
     7b2:	c6 83 20 04 00 00 00 	mov    BYTE PTR [rbx+0x420],0x0
     7b9:	4c 89 ff             	mov    rdi,r15
     7bc:	48 8b 0d 00 00 00 00 	mov    rcx,QWORD PTR [rip+0x0]        # 7c3 <_ZN2ioC1ENSt7__cxx1112basic_stringIcSt11char_traitsIcESaIcEEES5_+0x133>
     7c3:	48 c7 83 40 03 00 00 	mov    QWORD PTR [rbx+0x340],0x0
     7ca:	00 00 00 00 
     7ce:	31 f6                	xor    esi,esi
     7d0:	48 c7 83 18 04 00 00 	mov    QWORD PTR [rbx+0x418],0x0
     7d7:	00 00 00 00 
     7db:	c6 83 21 04 00 00 00 	mov    BYTE PTR [rbx+0x421],0x0
     7e2:	48 8b 45 e8          	mov    rax,QWORD PTR [rbp-0x18]
     7e6:	48 c7 83 28 04 00 00 	mov    QWORD PTR [rbx+0x428],0x0
     7ed:	00 00 00 00 
     7f1:	48 c7 83 30 04 00 00 	mov    QWORD PTR [rbx+0x430],0x0
     7f8:	00 00 00 00 
     7fc:	48 c7 83 38 04 00 00 	mov    QWORD PTR [rbx+0x438],0x0
     803:	00 00 00 00 
     807:	48 c7 83 40 04 00 00 	mov    QWORD PTR [rbx+0x440],0x0
     80e:	00 00 00 00 
     812:	48 89 ab 40 02 00 00 	mov    QWORD PTR [rbx+0x240],rbp
     819:	48 89 8c 03 40 02 00 	mov    QWORD PTR [rbx+rax*1+0x240],rcx
     820:	00 
     821:	48 c7 83 48 02 00 00 	mov    QWORD PTR [rbx+0x248],0x0
     828:	00 00 00 00 
     82c:	48 03 7d e8          	add    rdi,QWORD PTR [rbp-0x18]
     830:	e8 00 00 00 00       	call   835 <_ZN2ioC1ENSt7__cxx1112basic_stringIcSt11char_traitsIcESaIcEEES5_+0x1a5>
     835:	4c 8d a3 50 02 00 00 	lea    r12,[rbx+0x250]
     83c:	48 c7 83 40 02 00 00 	mov    QWORD PTR [rbx+0x240],0x0
     843:	00 00 00 00 
     847:	48 c7 83 40 03 00 00 	mov    QWORD PTR [rbx+0x340],0x0
     84e:	00 00 00 00 
     852:	4c 89 e7             	mov    rdi,r12
     855:	e8 00 00 00 00       	call   85a <_ZN2ioC1ENSt7__cxx1112basic_stringIcSt11char_traitsIcESaIcEEES5_+0x1ca>
     85a:	4c 89 e6             	mov    rsi,r12
     85d:	4c 89 f7             	mov    rdi,r14
     860:	e8 00 00 00 00       	call   865 <_ZN2ioC1ENSt7__cxx1112basic_stringIcSt11char_traitsIcESaIcEEES5_+0x1d5>
     865:	48 8b 74 24 08       	mov    rsi,QWORD PTR [rsp+0x8]
     86a:	48 89 df             	mov    rdi,rbx
     86d:	e8 00 00 00 00       	call   872 <_ZN2ioC1ENSt7__cxx1112basic_stringIcSt11char_traitsIcESaIcEEES5_+0x1e2>
     872:	48 8b 74 24 10       	mov    rsi,QWORD PTR [rsp+0x10]
     877:	48 8d 7b 20          	lea    rdi,[rbx+0x20]
     87b:	e8 00 00 00 00       	call   880 <_ZN2ioC1ENSt7__cxx1112basic_stringIcSt11char_traitsIcESaIcEEES5_+0x1f0>
     880:	be 00 00 00 00       	mov    esi,0x0
     885:	48 89 df             	mov    rdi,rbx
     888:	e8 00 00 00 00       	call   88d <_ZN2ioC1ENSt7__cxx1112basic_stringIcSt11char_traitsIcESaIcEEES5_+0x1fd>
     88d:	85 c0                	test   eax,eax
     88f:	75 3f                	jne    8d0 <_ZN2ioC1ENSt7__cxx1112basic_stringIcSt11char_traitsIcESaIcEEES5_+0x240>
     891:	48 8b 73 20          	mov    rsi,QWORD PTR [rbx+0x20]
     895:	ba 08 00 00 00       	mov    edx,0x8
     89a:	4c 89 e7             	mov    rdi,r12
     89d:	e8 00 00 00 00       	call   8a2 <_ZN2ioC1ENSt7__cxx1112basic_stringIcSt11char_traitsIcESaIcEEES5_+0x212>
     8a2:	48 85 c0             	test   rax,rax
     8a5:	4c 89 ff             	mov    rdi,r15
     8a8:	48 8b 83 40 02 00 00 	mov    rax,QWORD PTR [rbx+0x240]
     8af:	74 4f                	je     900 <_ZN2ioC1ENSt7__cxx1112basic_stringIcSt11char_traitsIcESaIcEEES5_+0x270>
     8b1:	48 03 78 e8          	add    rdi,QWORD PTR [rax-0x18]
     8b5:	31 f6                	xor    esi,esi
     8b7:	e8 00 00 00 00       	call   8bc <_ZN2ioC1ENSt7__cxx1112basic_stringIcSt11char_traitsIcESaIcEEES5_+0x22c>
     8bc:	48 83 c4 38          	add    rsp,0x38
     8c0:	5b                   	pop    rbx
     8c1:	5d                   	pop    rbp
     8c2:	41 5c                	pop    r12
     8c4:	41 5d                	pop    r13
     8c6:	41 5e                	pop    r14
     8c8:	41 5f                	pop    r15
     8ca:	c3                   	ret    
     8cb:	0f 1f 44 00 00       	nop    DWORD PTR [rax+rax*1+0x0]
     8d0:	be 00 00 00 00       	mov    esi,0x0
     8d5:	48 89 df             	mov    rdi,rbx
     8d8:	e8 00 00 00 00       	call   8dd <_ZN2ioC1ENSt7__cxx1112basic_stringIcSt11char_traitsIcESaIcEEES5_+0x24d>
     8dd:	85 c0                	test   eax,eax
     8df:	75 37                	jne    918 <_ZN2ioC1ENSt7__cxx1112basic_stringIcSt11char_traitsIcESaIcEEES5_+0x288>
     8e1:	48 8b 73 20          	mov    rsi,QWORD PTR [rbx+0x20]
     8e5:	ba 30 00 00 00       	mov    edx,0x30
     8ea:	4c 89 ef             	mov    rdi,r13
     8ed:	e8 00 00 00 00       	call   8f2 <_ZN2ioC1ENSt7__cxx1112basic_stringIcSt11char_traitsIcESaIcEEES5_+0x262>
     8f2:	48 85 c0             	test   rax,rax
     8f5:	48 8b 7c 24 18       	mov    rdi,QWORD PTR [rsp+0x18]
     8fa:	48 8b 43 40          	mov    rax,QWORD PTR [rbx+0x40]
     8fe:	75 b1                	jne    8b1 <_ZN2ioC1ENSt7__cxx1112basic_stringIcSt11char_traitsIcESaIcEEES5_+0x221>
     900:	48 03 78 e8          	add    rdi,QWORD PTR [rax-0x18]
     904:	8b 77 20             	mov    esi,DWORD PTR [rdi+0x20]
     907:	83 ce 04             	or     esi,0x4
     90a:	e8 00 00 00 00       	call   90f <_ZN2ioC1ENSt7__cxx1112basic_stringIcSt11char_traitsIcESaIcEEES5_+0x27f>
     90f:	eb ab                	jmp    8bc <_ZN2ioC1ENSt7__cxx1112basic_stringIcSt11char_traitsIcESaIcEEES5_+0x22c>
     911:	0f 1f 80 00 00 00 00 	nop    DWORD PTR [rax+0x0]
     918:	48 8b 7c 24 08       	mov    rdi,QWORD PTR [rsp+0x8]
     91d:	be 00 00 00 00       	mov    esi,0x0
     922:	e8 00 00 00 00       	call   927 <_ZN2ioC1ENSt7__cxx1112basic_stringIcSt11char_traitsIcESaIcEEES5_+0x297>
     927:	85 c0                	test   eax,eax
     929:	74 5d                	je     988 <_ZN2ioC1ENSt7__cxx1112basic_stringIcSt11char_traitsIcESaIcEEES5_+0x2f8>
     92b:	ba 3e 00 00 00       	mov    edx,0x3e
     930:	be 00 00 00 00       	mov    esi,0x0
     935:	bf 00 00 00 00       	mov    edi,0x0
     93a:	e8 00 00 00 00       	call   93f <_ZN2ioC1ENSt7__cxx1112basic_stringIcSt11char_traitsIcESaIcEEES5_+0x2af>
     93f:	48 8b 05 00 00 00 00 	mov    rax,QWORD PTR [rip+0x0]        # 946 <_ZN2ioC1ENSt7__cxx1112basic_stringIcSt11char_traitsIcESaIcEEES5_+0x2b6>
     946:	48 8b 40 e8          	mov    rax,QWORD PTR [rax-0x18]
     94a:	48 8b a8 00 00 00 00 	mov    rbp,QWORD PTR [rax+0x0]
     951:	48 85 ed             	test   rbp,rbp
     954:	74 71                	je     9c7 <_ZN2ioC1ENSt7__cxx1112basic_stringIcSt11char_traitsIcESaIcEEES5_+0x337>
     956:	80 7d 38 00          	cmp    BYTE PTR [rbp+0x38],0x0
     95a:	74 44                	je     9a0 <_ZN2ioC1ENSt7__cxx1112basic_stringIcSt11char_traitsIcESaIcEEES5_+0x310>
     95c:	0f be 75 43          	movsx  esi,BYTE PTR [rbp+0x43]
     960:	bf 00 00 00 00       	mov    edi,0x0
     965:	e8 00 00 00 00       	call   96a <_ZN2ioC1ENSt7__cxx1112basic_stringIcSt11char_traitsIcESaIcEEES5_+0x2da>
     96a:	48 89 c7             	mov    rdi,rax
     96d:	e8 00 00 00 00       	call   972 <_ZN2ioC1ENSt7__cxx1112basic_stringIcSt11char_traitsIcESaIcEEES5_+0x2e2>
     972:	48 83 c4 38          	add    rsp,0x38
     976:	5b                   	pop    rbx
     977:	5d                   	pop    rbp
     978:	41 5c                	pop    r12
     97a:	41 5d                	pop    r13
     97c:	41 5e                	pop    r14
     97e:	41 5f                	pop    r15
     980:	c3                   	ret    
     981:	0f 1f 80 00 00 00 00 	nop    DWORD PTR [rax+0x0]
     988:	48 8b 73 20          	mov    rsi,QWORD PTR [rbx+0x20]
     98c:	ba 19 00 00 00       	mov    edx,0x19
     991:	4c 89 ef             	mov    rdi,r13
     994:	e8 00 00 00 00       	call   999 <_ZN2ioC1ENSt7__cxx1112basic_stringIcSt11char_traitsIcESaIcEEES5_+0x309>
     999:	e9 54 ff ff ff       	jmp    8f2 <_ZN2ioC1ENSt7__cxx1112basic_stringIcSt11char_traitsIcESaIcEEES5_+0x262>
     99e:	66 90                	xchg   ax,ax
     9a0:	48 89 ef             	mov    rdi,rbp
     9a3:	e8 00 00 00 00       	call   9a8 <_ZN2ioC1ENSt7__cxx1112basic_stringIcSt11char_traitsIcESaIcEEES5_+0x318>
     9a8:	48 8b 45 00          	mov    rax,QWORD PTR [rbp+0x0]
     9ac:	be 0a 00 00 00       	mov    esi,0xa
     9b1:	48 8b 40 30          	mov    rax,QWORD PTR [rax+0x30]
     9b5:	48 3d 00 00 00 00    	cmp    rax,0x0
     9bb:	74 a3                	je     960 <_ZN2ioC1ENSt7__cxx1112basic_stringIcSt11char_traitsIcESaIcEEES5_+0x2d0>
     9bd:	48 89 ef             	mov    rdi,rbp
     9c0:	ff d0                	call   rax
     9c2:	0f be f0             	movsx  esi,al
     9c5:	eb 99                	jmp    960 <_ZN2ioC1ENSt7__cxx1112basic_stringIcSt11char_traitsIcESaIcEEES5_+0x2d0>
     9c7:	e8 00 00 00 00       	call   9cc <_ZN2ioC1ENSt7__cxx1112basic_stringIcSt11char_traitsIcESaIcEEES5_+0x33c>
     9cc:	4c 89 ff             	mov    rdi,r15
     9cf:	48 89 c5             	mov    rbp,rax
     9d2:	e8 00 00 00 00       	call   9d7 <_ZN2ioC1ENSt7__cxx1112basic_stringIcSt11char_traitsIcESaIcEEES5_+0x347>
     9d7:	48 8b 7c 24 18       	mov    rdi,QWORD PTR [rsp+0x18]
     9dc:	e8 00 00 00 00       	call   9e1 <_ZN2ioC1ENSt7__cxx1112basic_stringIcSt11char_traitsIcESaIcEEES5_+0x351>
     9e1:	48 8b 7b 20          	mov    rdi,QWORD PTR [rbx+0x20]
     9e5:	48 39 7c 24 28       	cmp    QWORD PTR [rsp+0x28],rdi
     9ea:	74 05                	je     9f1 <_ZN2ioC1ENSt7__cxx1112basic_stringIcSt11char_traitsIcESaIcEEES5_+0x361>
     9ec:	e8 00 00 00 00       	call   9f1 <_ZN2ioC1ENSt7__cxx1112basic_stringIcSt11char_traitsIcESaIcEEES5_+0x361>
     9f1:	48 8b 3b             	mov    rdi,QWORD PTR [rbx]
     9f4:	48 39 7c 24 20       	cmp    QWORD PTR [rsp+0x20],rdi
     9f9:	74 05                	je     a00 <_ZN2ioC1ENSt7__cxx1112basic_stringIcSt11char_traitsIcESaIcEEES5_+0x370>
     9fb:	e8 00 00 00 00       	call   a00 <_ZN2ioC1ENSt7__cxx1112basic_stringIcSt11char_traitsIcESaIcEEES5_+0x370>
     a00:	48 89 ef             	mov    rdi,rbp
     a03:	e8 00 00 00 00       	call   a08 <_ZN2ioC1ENSt7__cxx1112basic_stringIcSt11char_traitsIcESaIcEEES5_+0x378>
     a08:	48 89 c5             	mov    rbp,rax
     a0b:	48 c7 83 40 03 00 00 	mov    QWORD PTR [rbx+0x340],0x0
     a12:	00 00 00 00 
     a16:	4c 89 f7             	mov    rdi,r14
     a19:	e8 00 00 00 00       	call   a1e <_ZN2ioC1ENSt7__cxx1112basic_stringIcSt11char_traitsIcESaIcEEES5_+0x38e>
     a1e:	eb b7                	jmp    9d7 <_ZN2ioC1ENSt7__cxx1112basic_stringIcSt11char_traitsIcESaIcEEES5_+0x347>
     a20:	49 89 c7             	mov    r15,rax
     a23:	4c 89 ef             	mov    rdi,r13
     a26:	e8 00 00 00 00       	call   a2b <_ZN2ioC1ENSt7__cxx1112basic_stringIcSt11char_traitsIcESaIcEEES5_+0x39b>
     a2b:	4c 89 f8             	mov    rax,r15
     a2e:	49 8b 54 24 e8       	mov    rdx,QWORD PTR [r12-0x18]
     a33:	49 89 c4             	mov    r12,rax
     a36:	4c 89 74 13 40       	mov    QWORD PTR [rbx+rdx*1+0x40],r14
     a3b:	48 89 ef             	mov    rdi,rbp
     a3e:	48 c7 83 38 01 00 00 	mov    QWORD PTR [rbx+0x138],0x0
     a45:	00 00 00 00 
     a49:	4c 89 e5             	mov    rbp,r12
     a4c:	e8 00 00 00 00       	call   a51 <_ZN2ioC1ENSt7__cxx1112basic_stringIcSt11char_traitsIcESaIcEEES5_+0x3c1>
     a51:	eb 8e                	jmp    9e1 <_ZN2ioC1ENSt7__cxx1112basic_stringIcSt11char_traitsIcESaIcEEES5_+0x351>
     a53:	eb d9                	jmp    a2e <_ZN2ioC1ENSt7__cxx1112basic_stringIcSt11char_traitsIcESaIcEEES5_+0x39e>
     a55:	49 89 c4             	mov    r12,rax
     a58:	eb e1                	jmp    a3b <_ZN2ioC1ENSt7__cxx1112basic_stringIcSt11char_traitsIcESaIcEEES5_+0x3ab>
     a5a:	48 8b 55 e8          	mov    rdx,QWORD PTR [rbp-0x18]
     a5e:	48 8b 0d 00 00 00 00 	mov    rcx,QWORD PTR [rip+0x0]        # a65 <_ZN2ioC1ENSt7__cxx1112basic_stringIcSt11char_traitsIcESaIcEEES5_+0x3d5>
     a65:	48 89 c5             	mov    rbp,rax
     a68:	48 89 8c 13 40 02 00 	mov    QWORD PTR [rbx+rdx*1+0x240],rcx
     a6f:	00 
     a70:	eb 99                	jmp    a0b <_ZN2ioC1ENSt7__cxx1112basic_stringIcSt11char_traitsIcESaIcEEES5_+0x37b>
     a72:	49 89 c5             	mov    r13,rax
     a75:	4c 89 e7             	mov    rdi,r12
     a78:	e8 00 00 00 00       	call   a7d <_ZN2ioC1ENSt7__cxx1112basic_stringIcSt11char_traitsIcESaIcEEES5_+0x3ed>
     a7d:	4c 89 e8             	mov    rax,r13
     a80:	eb d8                	jmp    a5a <_ZN2ioC1ENSt7__cxx1112basic_stringIcSt11char_traitsIcESaIcEEES5_+0x3ca>
     a82:	0f 1f 40 00          	nop    DWORD PTR [rax+0x0]
     a86:	66 2e 0f 1f 84 00 00 	nop    WORD PTR cs:[rax+rax*1+0x0]
     a8d:	00 00 00 

0000000000000a90 <_ZN2ioD1Ev>:
     a90:	41 54                	push   r12
     a92:	55                   	push   rbp
     a93:	48 8d 6f 48          	lea    rbp,[rdi+0x48]
     a97:	53                   	push   rbx
     a98:	4c 8d 67 40          	lea    r12,[rdi+0x40]
     a9c:	48 89 fb             	mov    rbx,rdi
     a9f:	48 89 ef             	mov    rdi,rbp
     aa2:	e8 00 00 00 00       	call   aa7 <_ZN2ioD1Ev+0x17>
     aa7:	48 85 c0             	test   rax,rax
     aaa:	0f 84 28 01 00 00    	je     bd8 <_ZN2ioD1Ev+0x148>
     ab0:	48 8d bb 50 02 00 00 	lea    rdi,[rbx+0x250]
     ab7:	48 c7 83 40 02 00 00 	mov    QWORD PTR [rbx+0x240],0x0
     abe:	00 00 00 00 
     ac2:	48 c7 83 40 03 00 00 	mov    QWORD PTR [rbx+0x340],0x0
     ac9:	00 00 00 00 
     acd:	48 c7 83 50 02 00 00 	mov    QWORD PTR [rbx+0x250],0x0
     ad4:	00 00 00 00 
     ad8:	e8 00 00 00 00       	call   add <_ZN2ioD1Ev+0x4d>
     add:	48 8d bb b8 02 00 00 	lea    rdi,[rbx+0x2b8]
     ae4:	e8 00 00 00 00       	call   ae9 <_ZN2ioD1Ev+0x59>
     ae9:	48 8d bb 88 02 00 00 	lea    rdi,[rbx+0x288]
     af0:	48 c7 83 50 02 00 00 	mov    QWORD PTR [rbx+0x250],0x0
     af7:	00 00 00 00 
     afb:	e8 00 00 00 00       	call   b00 <_ZN2ioD1Ev+0x70>
     b00:	48 8b 05 00 00 00 00 	mov    rax,QWORD PTR [rip+0x0]        # b07 <_ZN2ioD1Ev+0x77>
     b07:	48 8b 15 00 00 00 00 	mov    rdx,QWORD PTR [rip+0x0]        # b0e <_ZN2ioD1Ev+0x7e>
     b0e:	48 8d bb 40 03 00 00 	lea    rdi,[rbx+0x340]
     b15:	48 8b 40 e8          	mov    rax,QWORD PTR [rax-0x18]
     b19:	48 89 94 03 40 02 00 	mov    QWORD PTR [rbx+rax*1+0x240],rdx
     b20:	00 
     b21:	48 c7 83 40 03 00 00 	mov    QWORD PTR [rbx+0x340],0x0
     b28:	00 00 00 00 
     b2c:	e8 00 00 00 00       	call   b31 <_ZN2ioD1Ev+0xa1>
     b31:	48 89 ef             	mov    rdi,rbp
     b34:	48 c7 43 40 00 00 00 	mov    QWORD PTR [rbx+0x40],0x0
     b3b:	00 
     b3c:	48 c7 83 38 01 00 00 	mov    QWORD PTR [rbx+0x138],0x0
     b43:	00 00 00 00 
     b47:	48 c7 43 48 00 00 00 	mov    QWORD PTR [rbx+0x48],0x0
     b4e:	00 
     b4f:	e8 00 00 00 00       	call   b54 <_ZN2ioD1Ev+0xc4>
     b54:	48 8d bb b0 00 00 00 	lea    rdi,[rbx+0xb0]
     b5b:	e8 00 00 00 00       	call   b60 <_ZN2ioD1Ev+0xd0>
     b60:	48 8d bb 80 00 00 00 	lea    rdi,[rbx+0x80]
     b67:	48 c7 43 48 00 00 00 	mov    QWORD PTR [rbx+0x48],0x0
     b6e:	00 
     b6f:	e8 00 00 00 00       	call   b74 <_ZN2ioD1Ev+0xe4>
     b74:	48 8b 05 00 00 00 00 	mov    rax,QWORD PTR [rip+0x0]        # b7b <_ZN2ioD1Ev+0xeb>
     b7b:	48 8b 15 00 00 00 00 	mov    rdx,QWORD PTR [rip+0x0]        # b82 <_ZN2ioD1Ev+0xf2>
     b82:	48 8d bb 38 01 00 00 	lea    rdi,[rbx+0x138]
     b89:	48 8b 40 e8          	mov    rax,QWORD PTR [rax-0x18]
     b8d:	48 89 54 03 40       	mov    QWORD PTR [rbx+rax*1+0x40],rdx
     b92:	48 c7 83 38 01 00 00 	mov    QWORD PTR [rbx+0x138],0x0
     b99:	00 00 00 00 
     b9d:	e8 00 00 00 00       	call   ba2 <_ZN2ioD1Ev+0x112>
     ba2:	48 8b 7b 20          	mov    rdi,QWORD PTR [rbx+0x20]
     ba6:	48 8d 43 30          	lea    rax,[rbx+0x30]
     baa:	48 39 c7             	cmp    rdi,rax
     bad:	74 05                	je     bb4 <_ZN2ioD1Ev+0x124>
     baf:	e8 00 00 00 00       	call   bb4 <_ZN2ioD1Ev+0x124>
     bb4:	48 8b 3b             	mov    rdi,QWORD PTR [rbx]
     bb7:	48 83 c3 10          	add    rbx,0x10
     bbb:	48 39 df             	cmp    rdi,rbx
     bbe:	74 10                	je     bd0 <_ZN2ioD1Ev+0x140>
     bc0:	5b                   	pop    rbx
     bc1:	5d                   	pop    rbp
     bc2:	41 5c                	pop    r12
     bc4:	e9 00 00 00 00       	jmp    bc9 <_ZN2ioD1Ev+0x139>
     bc9:	0f 1f 80 00 00 00 00 	nop    DWORD PTR [rax+0x0]
     bd0:	5b                   	pop    rbx
     bd1:	5d                   	pop    rbp
     bd2:	41 5c                	pop    r12
     bd4:	c3                   	ret    
     bd5:	0f 1f 00             	nop    DWORD PTR [rax]
     bd8:	48 8b 43 40          	mov    rax,QWORD PTR [rbx+0x40]
     bdc:	4c 89 e7             	mov    rdi,r12
     bdf:	48 03 78 e8          	add    rdi,QWORD PTR [rax-0x18]
     be3:	8b 77 20             	mov    esi,DWORD PTR [rdi+0x20]
     be6:	83 ce 04             	or     esi,0x4
     be9:	e8 00 00 00 00       	call   bee <_ZN2ioD1Ev+0x15e>
     bee:	e9 bd fe ff ff       	jmp    ab0 <_ZN2ioD1Ev+0x20>
     bf3:	90                   	nop
     bf4:	66 90                	xchg   ax,ax
     bf6:	66 2e 0f 1f 84 00 00 	nop    WORD PTR cs:[rax+rax*1+0x0]
     bfd:	00 00 00 

0000000000000c00 <_ZN2io5writeENSt7__cxx1112basic_stringIcSt11char_traitsIcESaIcEEE>:
     c00:	55                   	push   rbp
     c01:	53                   	push   rbx
     c02:	48 89 f5             	mov    rbp,rsi
     c05:	be 00 00 00 00       	mov    esi,0x0
     c0a:	48 89 fb             	mov    rbx,rdi
     c0d:	48 83 ec 08          	sub    rsp,0x8
     c11:	e8 00 00 00 00       	call   c16 <_ZN2io5writeENSt7__cxx1112basic_stringIcSt11char_traitsIcESaIcEEE+0x16>
     c16:	85 c0                	test   eax,eax
     c18:	74 1e                	je     c38 <_ZN2io5writeENSt7__cxx1112basic_stringIcSt11char_traitsIcESaIcEEE+0x38>
     c1a:	48 8b 55 08          	mov    rdx,QWORD PTR [rbp+0x8]
     c1e:	48 8b 75 00          	mov    rsi,QWORD PTR [rbp+0x0]
     c22:	48 83 c4 08          	add    rsp,0x8
     c26:	48 8d 7b 40          	lea    rdi,[rbx+0x40]
     c2a:	5b                   	pop    rbx
     c2b:	5d                   	pop    rbp
     c2c:	e9 00 00 00 00       	jmp    c31 <_ZN2io5writeENSt7__cxx1112basic_stringIcSt11char_traitsIcESaIcEEE+0x31>
     c31:	0f 1f 80 00 00 00 00 	nop    DWORD PTR [rax+0x0]
     c38:	48 83 c4 08          	add    rsp,0x8
     c3c:	5b                   	pop    rbx
     c3d:	5d                   	pop    rbp
     c3e:	e9 8d f4 ff ff       	jmp    d0 <_ZN2io10writeFloatEf.part.18>
     c43:	90                   	nop
     c44:	66 90                	xchg   ax,ax
     c46:	66 2e 0f 1f 84 00 00 	nop    WORD PTR cs:[rax+rax*1+0x0]
     c4d:	00 00 00 

0000000000000c50 <_ZN2io10writeFloatEf>:
     c50:	53                   	push   rbx
     c51:	be 00 00 00 00       	mov    esi,0x0
     c56:	48 89 fb             	mov    rbx,rdi
     c59:	48 83 ec 10          	sub    rsp,0x10
     c5d:	f3 0f 11 44 24 0c    	movss  DWORD PTR [rsp+0xc],xmm0
     c63:	e8 00 00 00 00       	call   c68 <_ZN2io10writeFloatEf+0x18>
     c68:	85 c0                	test   eax,eax
     c6a:	74 1c                	je     c88 <_ZN2io10writeFloatEf+0x38>
     c6c:	66 0f ef c0          	pxor   xmm0,xmm0
     c70:	48 8d 7b 40          	lea    rdi,[rbx+0x40]
     c74:	f3 0f 5a 44 24 0c    	cvtss2sd xmm0,DWORD PTR [rsp+0xc]
     c7a:	48 83 c4 10          	add    rsp,0x10
     c7e:	5b                   	pop    rbx
     c7f:	e9 00 00 00 00       	jmp    c84 <_ZN2io10writeFloatEf+0x34>
     c84:	0f 1f 40 00          	nop    DWORD PTR [rax+0x0]
     c88:	48 83 c4 10          	add    rsp,0x10
     c8c:	5b                   	pop    rbx
     c8d:	e9 3e f4 ff ff       	jmp    d0 <_ZN2io10writeFloatEf.part.18>
     c92:	0f 1f 40 00          	nop    DWORD PTR [rax+0x0]
     c96:	66 2e 0f 1f 84 00 00 	nop    WORD PTR cs:[rax+rax*1+0x0]
     c9d:	00 00 00 

0000000000000ca0 <_ZN2io8writeIntEi>:
     ca0:	55                   	push   rbp
     ca1:	53                   	push   rbx
     ca2:	89 f5                	mov    ebp,esi
     ca4:	be 00 00 00 00       	mov    esi,0x0
     ca9:	48 89 fb             	mov    rbx,rdi
     cac:	48 83 ec 08          	sub    rsp,0x8
     cb0:	e8 00 00 00 00       	call   cb5 <_ZN2io8writeIntEi+0x15>
     cb5:	85 c0                	test   eax,eax
     cb7:	74 17                	je     cd0 <_ZN2io8writeIntEi+0x30>
     cb9:	48 83 c4 08          	add    rsp,0x8
     cbd:	48 8d 7b 40          	lea    rdi,[rbx+0x40]
     cc1:	89 ee                	mov    esi,ebp
     cc3:	5b                   	pop    rbx
     cc4:	5d                   	pop    rbp
     cc5:	e9 00 00 00 00       	jmp    cca <_ZN2io8writeIntEi+0x2a>
     cca:	66 0f 1f 44 00 00    	nop    WORD PTR [rax+rax*1+0x0]
     cd0:	ba 26 00 00 00       	mov    edx,0x26
     cd5:	be 00 00 00 00       	mov    esi,0x0
     cda:	bf 00 00 00 00       	mov    edi,0x0
     cdf:	e8 00 00 00 00       	call   ce4 <_ZN2io8writeIntEi+0x44>
     ce4:	48 8b 05 00 00 00 00 	mov    rax,QWORD PTR [rip+0x0]        # ceb <_ZN2io8writeIntEi+0x4b>
     ceb:	48 8b 40 e8          	mov    rax,QWORD PTR [rax-0x18]
     cef:	48 8b 98 00 00 00 00 	mov    rbx,QWORD PTR [rax+0x0]
     cf6:	48 85 db             	test   rbx,rbx
     cf9:	74 4b                	je     d46 <_ZN2io8writeIntEi+0xa6>
     cfb:	80 7b 38 00          	cmp    BYTE PTR [rbx+0x38],0x0
     cff:	74 1f                	je     d20 <_ZN2io8writeIntEi+0x80>
     d01:	0f be 73 43          	movsx  esi,BYTE PTR [rbx+0x43]
     d05:	bf 00 00 00 00       	mov    edi,0x0
     d0a:	e8 00 00 00 00       	call   d0f <_ZN2io8writeIntEi+0x6f>
     d0f:	48 83 c4 08          	add    rsp,0x8
     d13:	48 89 c7             	mov    rdi,rax
     d16:	5b                   	pop    rbx
     d17:	5d                   	pop    rbp
     d18:	e9 00 00 00 00       	jmp    d1d <_ZN2io8writeIntEi+0x7d>
     d1d:	0f 1f 00             	nop    DWORD PTR [rax]
     d20:	48 89 df             	mov    rdi,rbx
     d23:	e8 00 00 00 00       	call   d28 <_ZN2io8writeIntEi+0x88>
     d28:	48 8b 03             	mov    rax,QWORD PTR [rbx]
     d2b:	be 0a 00 00 00       	mov    esi,0xa
     d30:	48 8b 40 30          	mov    rax,QWORD PTR [rax+0x30]
     d34:	48 3d 00 00 00 00    	cmp    rax,0x0
     d3a:	74 c9                	je     d05 <_ZN2io8writeIntEi+0x65>
     d3c:	48 89 df             	mov    rdi,rbx
     d3f:	ff d0                	call   rax
     d41:	0f be f0             	movsx  esi,al
     d44:	eb bf                	jmp    d05 <_ZN2io8writeIntEi+0x65>
     d46:	e8 00 00 00 00       	call   d4b <_ZN2io8writeIntEi+0xab>
     d4b:	90                   	nop
     d4c:	0f 1f 40 00          	nop    DWORD PTR [rax+0x0]

0000000000000d50 <_ZN2io7newLineEv>:
     d50:	53                   	push   rbx
     d51:	be 00 00 00 00       	mov    esi,0x0
     d56:	48 89 fb             	mov    rbx,rdi
     d59:	e8 00 00 00 00       	call   d5e <_ZN2io7newLineEv+0xe>
     d5e:	85 c0                	test   eax,eax
     d60:	74 1e                	je     d80 <_ZN2io7newLineEv+0x30>
     d62:	48 8d 7b 40          	lea    rdi,[rbx+0x40]
     d66:	ba 01 00 00 00       	mov    edx,0x1
     d6b:	be 00 00 00 00       	mov    esi,0x0
     d70:	5b                   	pop    rbx
     d71:	e9 00 00 00 00       	jmp    d76 <_ZN2io7newLineEv+0x26>
     d76:	66 2e 0f 1f 84 00 00 	nop    WORD PTR cs:[rax+rax*1+0x0]
     d7d:	00 00 00 
     d80:	5b                   	pop    rbx
     d81:	e9 4a f3 ff ff       	jmp    d0 <_ZN2io10writeFloatEf.part.18>
     d86:	66 2e 0f 1f 84 00 00 	nop    WORD PTR cs:[rax+rax*1+0x0]
     d8d:	00 00 00 

0000000000000d90 <_ZN2io8readLineERNSt7__cxx1112basic_stringIcSt11char_traitsIcESaIcEEE>:
     d90:	41 54                	push   r12
     d92:	55                   	push   rbp
     d93:	49 89 f4             	mov    r12,rsi
     d96:	53                   	push   rbx
     d97:	be 00 00 00 00       	mov    esi,0x0
     d9c:	48 89 fb             	mov    rbx,rdi
     d9f:	e8 00 00 00 00       	call   da4 <_ZN2io8readLineERNSt7__cxx1112basic_stringIcSt11char_traitsIcESaIcEEE+0x14>
     da4:	85 c0                	test   eax,eax
     da6:	0f 84 84 00 00 00    	je     e30 <_ZN2io8readLineERNSt7__cxx1112basic_stringIcSt11char_traitsIcESaIcEEE+0xa0>
     dac:	48 8b 83 40 02 00 00 	mov    rax,QWORD PTR [rbx+0x240]
     db3:	48 8d ab 40 02 00 00 	lea    rbp,[rbx+0x240]
     dba:	48 8b 40 e8          	mov    rax,QWORD PTR [rax-0x18]
     dbe:	48 8b 9c 05 f0 00 00 	mov    rbx,QWORD PTR [rbp+rax*1+0xf0]
     dc5:	00 
     dc6:	48 85 db             	test   rbx,rbx
     dc9:	0f 84 d7 00 00 00    	je     ea6 <_ZN2io8readLineERNSt7__cxx1112basic_stringIcSt11char_traitsIcESaIcEEE+0x116>
     dcf:	80 7b 38 00          	cmp    BYTE PTR [rbx+0x38],0x0
     dd3:	74 2b                	je     e00 <_ZN2io8readLineERNSt7__cxx1112basic_stringIcSt11char_traitsIcESaIcEEE+0x70>
     dd5:	0f be 53 43          	movsx  edx,BYTE PTR [rbx+0x43]
     dd9:	4c 89 e6             	mov    rsi,r12
     ddc:	48 89 ef             	mov    rdi,rbp
     ddf:	e8 00 00 00 00       	call   de4 <_ZN2io8readLineERNSt7__cxx1112basic_stringIcSt11char_traitsIcESaIcEEE+0x54>
     de4:	48 8b 10             	mov    rdx,QWORD PTR [rax]
     de7:	5b                   	pop    rbx
     de8:	5d                   	pop    rbp
     de9:	48 8b 52 e8          	mov    rdx,QWORD PTR [rdx-0x18]
     ded:	41 5c                	pop    r12
     def:	f6 44 10 20 05       	test   BYTE PTR [rax+rdx*1+0x20],0x5
     df4:	0f 94 c0             	sete   al
     df7:	c3                   	ret    
     df8:	0f 1f 84 00 00 00 00 	nop    DWORD PTR [rax+rax*1+0x0]
     dff:	00 
     e00:	48 89 df             	mov    rdi,rbx
     e03:	e8 00 00 00 00       	call   e08 <_ZN2io8readLineERNSt7__cxx1112basic_stringIcSt11char_traitsIcESaIcEEE+0x78>
     e08:	48 8b 03             	mov    rax,QWORD PTR [rbx]
     e0b:	ba 0a 00 00 00       	mov    edx,0xa
     e10:	48 8b 40 30          	mov    rax,QWORD PTR [rax+0x30]
     e14:	48 3d 00 00 00 00    	cmp    rax,0x0
     e1a:	74 bd                	je     dd9 <_ZN2io8readLineERNSt7__cxx1112basic_stringIcSt11char_traitsIcESaIcEEE+0x49>
     e1c:	be 0a 00 00 00       	mov    esi,0xa
     e21:	48 89 df             	mov    rdi,rbx
     e24:	ff d0                	call   rax
     e26:	0f be d0             	movsx  edx,al
     e29:	eb ae                	jmp    dd9 <_ZN2io8readLineERNSt7__cxx1112basic_stringIcSt11char_traitsIcESaIcEEE+0x49>
     e2b:	0f 1f 44 00 00       	nop    DWORD PTR [rax+rax*1+0x0]
     e30:	ba 35 00 00 00       	mov    edx,0x35
     e35:	be 00 00 00 00       	mov    esi,0x0
     e3a:	bf 00 00 00 00       	mov    edi,0x0
     e3f:	e8 00 00 00 00       	call   e44 <_ZN2io8readLineERNSt7__cxx1112basic_stringIcSt11char_traitsIcESaIcEEE+0xb4>
     e44:	48 8b 05 00 00 00 00 	mov    rax,QWORD PTR [rip+0x0]        # e4b <_ZN2io8readLineERNSt7__cxx1112basic_stringIcSt11char_traitsIcESaIcEEE+0xbb>
     e4b:	48 8b 40 e8          	mov    rax,QWORD PTR [rax-0x18]
     e4f:	48 8b 98 00 00 00 00 	mov    rbx,QWORD PTR [rax+0x0]
     e56:	48 85 db             	test   rbx,rbx
     e59:	74 4b                	je     ea6 <_ZN2io8readLineERNSt7__cxx1112basic_stringIcSt11char_traitsIcESaIcEEE+0x116>
     e5b:	80 7b 38 00          	cmp    BYTE PTR [rbx+0x38],0x0
     e5f:	74 1f                	je     e80 <_ZN2io8readLineERNSt7__cxx1112basic_stringIcSt11char_traitsIcESaIcEEE+0xf0>
     e61:	0f be 73 43          	movsx  esi,BYTE PTR [rbx+0x43]
     e65:	bf 00 00 00 00       	mov    edi,0x0
     e6a:	e8 00 00 00 00       	call   e6f <_ZN2io8readLineERNSt7__cxx1112basic_stringIcSt11char_traitsIcESaIcEEE+0xdf>
     e6f:	48 89 c7             	mov    rdi,rax
     e72:	e8 00 00 00 00       	call   e77 <_ZN2io8readLineERNSt7__cxx1112basic_stringIcSt11char_traitsIcESaIcEEE+0xe7>
     e77:	5b                   	pop    rbx
     e78:	31 c0                	xor    eax,eax
     e7a:	5d                   	pop    rbp
     e7b:	41 5c                	pop    r12
     e7d:	c3                   	ret    
     e7e:	66 90                	xchg   ax,ax
     e80:	48 89 df             	mov    rdi,rbx
     e83:	e8 00 00 00 00       	call   e88 <_ZN2io8readLineERNSt7__cxx1112basic_stringIcSt11char_traitsIcESaIcEEE+0xf8>
     e88:	48 8b 03             	mov    rax,QWORD PTR [rbx]
     e8b:	be 0a 00 00 00       	mov    esi,0xa
     e90:	48 8b 40 30          	mov    rax,QWORD PTR [rax+0x30]
     e94:	48 3d 00 00 00 00    	cmp    rax,0x0
     e9a:	74 c9                	je     e65 <_ZN2io8readLineERNSt7__cxx1112basic_stringIcSt11char_traitsIcESaIcEEE+0xd5>
     e9c:	48 89 df             	mov    rdi,rbx
     e9f:	ff d0                	call   rax
     ea1:	0f be f0             	movsx  esi,al
     ea4:	eb bf                	jmp    e65 <_ZN2io8readLineERNSt7__cxx1112basic_stringIcSt11char_traitsIcESaIcEEE+0xd5>
     ea6:	e8 00 00 00 00       	call   eab <_ZN2io8readLineERNSt7__cxx1112basic_stringIcSt11char_traitsIcESaIcEEE+0x11b>
     eab:	90                   	nop
     eac:	0f 1f 40 00          	nop    DWORD PTR [rax+0x0]

0000000000000eb0 <_ZN2io8readWordERNSt7__cxx1112basic_stringIcSt11char_traitsIcESaIcEEE>:
     eb0:	55                   	push   rbp
     eb1:	53                   	push   rbx
     eb2:	48 89 f5             	mov    rbp,rsi
     eb5:	be 00 00 00 00       	mov    esi,0x0
     eba:	48 89 fb             	mov    rbx,rdi
     ebd:	48 83 ec 08          	sub    rsp,0x8
     ec1:	e8 00 00 00 00       	call   ec6 <_ZN2io8readWordERNSt7__cxx1112basic_stringIcSt11char_traitsIcESaIcEEE+0x16>
     ec6:	85 c0                	test   eax,eax
     ec8:	74 26                	je     ef0 <_ZN2io8readWordERNSt7__cxx1112basic_stringIcSt11char_traitsIcESaIcEEE+0x40>
     eca:	48 8d bb 40 02 00 00 	lea    rdi,[rbx+0x240]
     ed1:	48 89 ee             	mov    rsi,rbp
     ed4:	e8 00 00 00 00       	call   ed9 <_ZN2io8readWordERNSt7__cxx1112basic_stringIcSt11char_traitsIcESaIcEEE+0x29>
     ed9:	48 8b 10             	mov    rdx,QWORD PTR [rax]
     edc:	48 8b 52 e8          	mov    rdx,QWORD PTR [rdx-0x18]
     ee0:	f6 44 10 20 05       	test   BYTE PTR [rax+rdx*1+0x20],0x5
     ee5:	0f 94 c0             	sete   al
     ee8:	48 83 c4 08          	add    rsp,0x8
     eec:	5b                   	pop    rbx
     eed:	5d                   	pop    rbp
     eee:	c3                   	ret    
     eef:	90                   	nop
     ef0:	48 83 c4 08          	add    rsp,0x8
     ef4:	5b                   	pop    rbx
     ef5:	5d                   	pop    rbp
     ef6:	e9 55 f2 ff ff       	jmp    150 <_ZN2io7readIntERi.part.22>
     efb:	90                   	nop
     efc:	0f 1f 40 00          	nop    DWORD PTR [rax+0x0]

0000000000000f00 <_ZN2io9readFloatERf>:
     f00:	55                   	push   rbp
     f01:	53                   	push   rbx
     f02:	48 89 f5             	mov    rbp,rsi
     f05:	be 00 00 00 00       	mov    esi,0x0
     f0a:	48 89 fb             	mov    rbx,rdi
     f0d:	48 83 ec 08          	sub    rsp,0x8
     f11:	e8 00 00 00 00       	call   f16 <_ZN2io9readFloatERf+0x16>
     f16:	85 c0                	test   eax,eax
     f18:	74 26                	je     f40 <_ZN2io9readFloatERf+0x40>
     f1a:	48 8d bb 40 02 00 00 	lea    rdi,[rbx+0x240]
     f21:	48 89 ee             	mov    rsi,rbp
     f24:	e8 00 00 00 00       	call   f29 <_ZN2io9readFloatERf+0x29>
     f29:	48 8b 10             	mov    rdx,QWORD PTR [rax]
     f2c:	48 8b 52 e8          	mov    rdx,QWORD PTR [rdx-0x18]
     f30:	f6 44 10 20 05       	test   BYTE PTR [rax+rdx*1+0x20],0x5
     f35:	0f 94 c0             	sete   al
     f38:	48 83 c4 08          	add    rsp,0x8
     f3c:	5b                   	pop    rbx
     f3d:	5d                   	pop    rbp
     f3e:	c3                   	ret    
     f3f:	90                   	nop
     f40:	48 83 c4 08          	add    rsp,0x8
     f44:	5b                   	pop    rbx
     f45:	5d                   	pop    rbp
     f46:	e9 05 f2 ff ff       	jmp    150 <_ZN2io7readIntERi.part.22>
     f4b:	90                   	nop
     f4c:	0f 1f 40 00          	nop    DWORD PTR [rax+0x0]

0000000000000f50 <_ZN2io7readIntERi>:
     f50:	55                   	push   rbp
     f51:	53                   	push   rbx
     f52:	48 89 f5             	mov    rbp,rsi
     f55:	be 00 00 00 00       	mov    esi,0x0
     f5a:	48 89 fb             	mov    rbx,rdi
     f5d:	48 83 ec 08          	sub    rsp,0x8
     f61:	e8 00 00 00 00       	call   f66 <_ZN2io7readIntERi+0x16>
     f66:	85 c0                	test   eax,eax
     f68:	74 26                	je     f90 <_ZN2io7readIntERi+0x40>
     f6a:	48 8d bb 40 02 00 00 	lea    rdi,[rbx+0x240]
     f71:	48 89 ee             	mov    rsi,rbp
     f74:	e8 00 00 00 00       	call   f79 <_ZN2io7readIntERi+0x29>
     f79:	48 8b 10             	mov    rdx,QWORD PTR [rax]
     f7c:	48 8b 52 e8          	mov    rdx,QWORD PTR [rdx-0x18]
     f80:	f6 44 10 20 05       	test   BYTE PTR [rax+rdx*1+0x20],0x5
     f85:	0f 94 c0             	sete   al
     f88:	48 83 c4 08          	add    rsp,0x8
     f8c:	5b                   	pop    rbx
     f8d:	5d                   	pop    rbp
     f8e:	c3                   	ret    
     f8f:	90                   	nop
     f90:	48 83 c4 08          	add    rsp,0x8
     f94:	5b                   	pop    rbx
     f95:	5d                   	pop    rbp
     f96:	e9 b5 f1 ff ff       	jmp    150 <_ZN2io7readIntERi.part.22>
     f9b:	90                   	nop
     f9c:	0f 1f 40 00          	nop    DWORD PTR [rax+0x0]

0000000000000fa0 <_ZN2io8readBoolERb>:
     fa0:	55                   	push   rbp
     fa1:	53                   	push   rbx
     fa2:	48 89 f5             	mov    rbp,rsi
     fa5:	be 00 00 00 00       	mov    esi,0x0
     faa:	48 89 fb             	mov    rbx,rdi
     fad:	48 83 ec 08          	sub    rsp,0x8
     fb1:	e8 00 00 00 00       	call   fb6 <_ZN2io8readBoolERb+0x16>
     fb6:	85 c0                	test   eax,eax
     fb8:	74 26                	je     fe0 <_ZN2io8readBoolERb+0x40>
     fba:	48 8d bb 40 02 00 00 	lea    rdi,[rbx+0x240]
     fc1:	48 89 ee             	mov    rsi,rbp
     fc4:	e8 00 00 00 00       	call   fc9 <_ZN2io8readBoolERb+0x29>
     fc9:	48 8b 10             	mov    rdx,QWORD PTR [rax]
     fcc:	48 8b 52 e8          	mov    rdx,QWORD PTR [rdx-0x18]
     fd0:	f6 44 10 20 05       	test   BYTE PTR [rax+rdx*1+0x20],0x5
     fd5:	0f 94 c0             	sete   al
     fd8:	48 83 c4 08          	add    rsp,0x8
     fdc:	5b                   	pop    rbx
     fdd:	5d                   	pop    rbp
     fde:	c3                   	ret    
     fdf:	90                   	nop
     fe0:	48 83 c4 08          	add    rsp,0x8
     fe4:	5b                   	pop    rbx
     fe5:	5d                   	pop    rbp
     fe6:	e9 65 f1 ff ff       	jmp    150 <_ZN2io7readIntERi.part.22>
     feb:	90                   	nop
     fec:	0f 1f 40 00          	nop    DWORD PTR [rax+0x0]

0000000000000ff0 <_ZN2io5closeEv>:
     ff0:	55                   	push   rbp
     ff1:	53                   	push   rbx
     ff2:	48 8d af 40 02 00 00 	lea    rbp,[rdi+0x240]
     ff9:	48 89 fb             	mov    rbx,rdi
     ffc:	48 81 c7 50 02 00 00 	add    rdi,0x250
    1003:	48 83 ec 08          	sub    rsp,0x8
    1007:	e8 00 00 00 00       	call   100c <_ZN2io5closeEv+0x1c>
    100c:	48 85 c0             	test   rax,rax
    100f:	74 1f                	je     1030 <_ZN2io5closeEv+0x40>
    1011:	48 8d 7b 48          	lea    rdi,[rbx+0x48]
    1015:	48 8d 6b 40          	lea    rbp,[rbx+0x40]
    1019:	e8 00 00 00 00       	call   101e <_ZN2io5closeEv+0x2e>
    101e:	48 85 c0             	test   rax,rax
    1021:	74 2d                	je     1050 <_ZN2io5closeEv+0x60>
    1023:	48 83 c4 08          	add    rsp,0x8
    1027:	5b                   	pop    rbx
    1028:	5d                   	pop    rbp
    1029:	c3                   	ret    
    102a:	66 0f 1f 44 00 00    	nop    WORD PTR [rax+rax*1+0x0]
    1030:	48 8b 83 40 02 00 00 	mov    rax,QWORD PTR [rbx+0x240]
    1037:	48 89 ef             	mov    rdi,rbp
    103a:	48 03 78 e8          	add    rdi,QWORD PTR [rax-0x18]
    103e:	8b 77 20             	mov    esi,DWORD PTR [rdi+0x20]
    1041:	83 ce 04             	or     esi,0x4
    1044:	e8 00 00 00 00       	call   1049 <_ZN2io5closeEv+0x59>
    1049:	eb c6                	jmp    1011 <_ZN2io5closeEv+0x21>
    104b:	0f 1f 44 00 00       	nop    DWORD PTR [rax+rax*1+0x0]
    1050:	48 8b 43 40          	mov    rax,QWORD PTR [rbx+0x40]
    1054:	48 89 ef             	mov    rdi,rbp
    1057:	48 03 78 e8          	add    rdi,QWORD PTR [rax-0x18]
    105b:	8b 77 20             	mov    esi,DWORD PTR [rdi+0x20]
    105e:	48 83 c4 08          	add    rsp,0x8
    1062:	5b                   	pop    rbx
    1063:	5d                   	pop    rbp
    1064:	83 ce 04             	or     esi,0x4
    1067:	e9 00 00 00 00       	jmp    106c <_ZN2io5closeEv+0x7c>
    106c:	0f 1f 40 00          	nop    DWORD PTR [rax+0x0]

0000000000001070 <_ZN9simulator14readParametersENSt7__cxx1112basic_stringIcSt11char_traitsIcESaIcEEE>:
    1070:	41 56                	push   r14
    1072:	41 55                	push   r13
    1074:	ba 00 00 00 00       	mov    edx,0x0
    1079:	41 54                	push   r12
    107b:	55                   	push   rbp
    107c:	48 89 f5             	mov    rbp,rsi
    107f:	53                   	push   rbx
    1080:	48 89 fb             	mov    rbx,rdi
    1083:	be 00 00 00 00       	mov    esi,0x0
    1088:	48 81 ec 90 04 00 00 	sub    rsp,0x490
    108f:	64 48 8b 04 25 28 00 	mov    rax,QWORD PTR fs:0x28
    1096:	00 00 
    1098:	48 89 84 24 88 04 00 	mov    QWORD PTR [rsp+0x488],rax
    109f:	00 
    10a0:	31 c0                	xor    eax,eax
    10a2:	48 8d 7c 24 20       	lea    rdi,[rsp+0x20]
    10a7:	48 8d 44 24 30       	lea    rax,[rsp+0x30]
    10ac:	48 89 44 24 20       	mov    QWORD PTR [rsp+0x20],rax
    10b1:	e8 4a ef ff ff       	call   0 <_ZNSt7__cxx1112basic_stringIcSt11char_traitsIcESaIcEE12_M_constructIPKcEEvT_S8_St20forward_iterator_tag.isra.36>
    10b6:	48 8b 75 00          	mov    rsi,QWORD PTR [rbp+0x0]
    10ba:	48 8d 44 24 10       	lea    rax,[rsp+0x10]
    10bf:	48 89 e7             	mov    rdi,rsp
    10c2:	48 89 04 24          	mov    QWORD PTR [rsp],rax
    10c6:	48 89 f2             	mov    rdx,rsi
    10c9:	48 03 55 08          	add    rdx,QWORD PTR [rbp+0x8]
    10cd:	e8 2e ef ff ff       	call   0 <_ZNSt7__cxx1112basic_stringIcSt11char_traitsIcESaIcEE12_M_constructIPKcEEvT_S8_St20forward_iterator_tag.isra.36>
    10d2:	48 8d 54 24 20       	lea    rdx,[rsp+0x20]
    10d7:	48 8d 7c 24 40       	lea    rdi,[rsp+0x40]
    10dc:	48 89 e6             	mov    rsi,rsp
    10df:	e8 00 00 00 00       	call   10e4 <_ZN9simulator14readParametersENSt7__cxx1112basic_stringIcSt11char_traitsIcESaIcEEE+0x74>
    10e4:	48 8b 3c 24          	mov    rdi,QWORD PTR [rsp]
    10e8:	48 8d 44 24 10       	lea    rax,[rsp+0x10]
    10ed:	48 39 c7             	cmp    rdi,rax
    10f0:	74 05                	je     10f7 <_ZN9simulator14readParametersENSt7__cxx1112basic_stringIcSt11char_traitsIcESaIcEEE+0x87>
    10f2:	e8 00 00 00 00       	call   10f7 <_ZN9simulator14readParametersENSt7__cxx1112basic_stringIcSt11char_traitsIcESaIcEEE+0x87>
    10f7:	48 8b 7c 24 20       	mov    rdi,QWORD PTR [rsp+0x20]
    10fc:	48 8d 44 24 30       	lea    rax,[rsp+0x30]
    1101:	48 39 c7             	cmp    rdi,rax
    1104:	74 05                	je     110b <_ZN9simulator14readParametersENSt7__cxx1112basic_stringIcSt11char_traitsIcESaIcEEE+0x9b>
    1106:	e8 00 00 00 00       	call   110b <_ZN9simulator14readParametersENSt7__cxx1112basic_stringIcSt11char_traitsIcESaIcEEE+0x9b>
    110b:	48 8d 44 24 30       	lea    rax,[rsp+0x30]
    1110:	48 c7 44 24 28 00 00 	mov    QWORD PTR [rsp+0x28],0x0
    1117:	00 00 
    1119:	c6 44 24 30 00       	mov    BYTE PTR [rsp+0x30],0x0
    111e:	48 8d 6b 04          	lea    rbp,[rbx+0x4]
    1122:	4c 8d 63 08          	lea    r12,[rbx+0x8]
    1126:	4c 8d 6b 0c          	lea    r13,[rbx+0xc]
    112a:	48 89 44 24 20       	mov    QWORD PTR [rsp+0x20],rax
    112f:	4c 8d 73 10          	lea    r14,[rbx+0x10]
    1133:	e9 8b 01 00 00       	jmp    12c3 <_ZN9simulator14readParametersENSt7__cxx1112basic_stringIcSt11char_traitsIcESaIcEEE+0x253>
    1138:	0f 1f 84 00 00 00 00 	nop    DWORD PTR [rax+rax*1+0x0]
    113f:	00 
    1140:	48 8d 7c 24 20       	lea    rdi,[rsp+0x20]
    1145:	be 00 00 00 00       	mov    esi,0x0
    114a:	e8 00 00 00 00       	call   114f <_ZN9simulator14readParametersENSt7__cxx1112basic_stringIcSt11char_traitsIcESaIcEEE+0xdf>
    114f:	85 c0                	test   eax,eax
    1151:	75 0d                	jne    1160 <_ZN9simulator14readParametersENSt7__cxx1112basic_stringIcSt11char_traitsIcESaIcEEE+0xf0>
    1153:	48 8d 7c 24 40       	lea    rdi,[rsp+0x40]
    1158:	48 89 de             	mov    rsi,rbx
    115b:	e8 00 00 00 00       	call   1160 <_ZN9simulator14readParametersENSt7__cxx1112basic_stringIcSt11char_traitsIcESaIcEEE+0xf0>
    1160:	48 8d 7c 24 20       	lea    rdi,[rsp+0x20]
    1165:	be 00 00 00 00       	mov    esi,0x0
    116a:	e8 00 00 00 00       	call   116f <_ZN9simulator14readParametersENSt7__cxx1112basic_stringIcSt11char_traitsIcESaIcEEE+0xff>
    116f:	85 c0                	test   eax,eax
    1171:	75 0d                	jne    1180 <_ZN9simulator14readParametersENSt7__cxx1112basic_stringIcSt11char_traitsIcESaIcEEE+0x110>
    1173:	48 8d 7c 24 40       	lea    rdi,[rsp+0x40]
    1178:	48 89 ee             	mov    rsi,rbp
    117b:	e8 00 00 00 00       	call   1180 <_ZN9simulator14readParametersENSt7__cxx1112basic_stringIcSt11char_traitsIcESaIcEEE+0x110>
    1180:	48 8d 7c 24 20       	lea    rdi,[rsp+0x20]
    1185:	be 00 00 00 00       	mov    esi,0x0
    118a:	e8 00 00 00 00       	call   118f <_ZN9simulator14readParametersENSt7__cxx1112basic_stringIcSt11char_traitsIcESaIcEEE+0x11f>
    118f:	85 c0                	test   eax,eax
    1191:	75 0d                	jne    11a0 <_ZN9simulator14readParametersENSt7__cxx1112basic_stringIcSt11char_traitsIcESaIcEEE+0x130>
    1193:	48 8d 7c 24 40       	lea    rdi,[rsp+0x40]
    1198:	4c 89 e6             	mov    rsi,r12
    119b:	e8 00 00 00 00       	call   11a0 <_ZN9simulator14readParametersENSt7__cxx1112basic_stringIcSt11char_traitsIcESaIcEEE+0x130>
    11a0:	48 8d 7c 24 20       	lea    rdi,[rsp+0x20]
    11a5:	be 00 00 00 00       	mov    esi,0x0
    11aa:	e8 00 00 00 00       	call   11af <_ZN9simulator14readParametersENSt7__cxx1112basic_stringIcSt11char_traitsIcESaIcEEE+0x13f>
    11af:	85 c0                	test   eax,eax
    11b1:	75 0d                	jne    11c0 <_ZN9simulator14readParametersENSt7__cxx1112basic_stringIcSt11char_traitsIcESaIcEEE+0x150>
    11b3:	48 8d 7c 24 40       	lea    rdi,[rsp+0x40]
    11b8:	4c 89 ee             	mov    rsi,r13
    11bb:	e8 00 00 00 00       	call   11c0 <_ZN9simulator14readParametersENSt7__cxx1112basic_stringIcSt11char_traitsIcESaIcEEE+0x150>
    11c0:	48 8d 7c 24 20       	lea    rdi,[rsp+0x20]
    11c5:	be 00 00 00 00       	mov    esi,0x0
    11ca:	e8 00 00 00 00       	call   11cf <_ZN9simulator14readParametersENSt7__cxx1112basic_stringIcSt11char_traitsIcESaIcEEE+0x15f>
    11cf:	85 c0                	test   eax,eax
    11d1:	75 0d                	jne    11e0 <_ZN9simulator14readParametersENSt7__cxx1112basic_stringIcSt11char_traitsIcESaIcEEE+0x170>
    11d3:	48 8d 7c 24 40       	lea    rdi,[rsp+0x40]
    11d8:	4c 89 f6             	mov    rsi,r14
    11db:	e8 00 00 00 00       	call   11e0 <_ZN9simulator14readParametersENSt7__cxx1112basic_stringIcSt11char_traitsIcESaIcEEE+0x170>
    11e0:	48 8d 7c 24 20       	lea    rdi,[rsp+0x20]
    11e5:	be 00 00 00 00       	mov    esi,0x0
    11ea:	e8 00 00 00 00       	call   11ef <_ZN9simulator14readParametersENSt7__cxx1112basic_stringIcSt11char_traitsIcESaIcEEE+0x17f>
    11ef:	85 c0                	test   eax,eax
    11f1:	75 0e                	jne    1201 <_ZN9simulator14readParametersENSt7__cxx1112basic_stringIcSt11char_traitsIcESaIcEEE+0x191>
    11f3:	48 8d 73 14          	lea    rsi,[rbx+0x14]
    11f7:	48 8d 7c 24 40       	lea    rdi,[rsp+0x40]
    11fc:	e8 00 00 00 00       	call   1201 <_ZN9simulator14readParametersENSt7__cxx1112basic_stringIcSt11char_traitsIcESaIcEEE+0x191>
    1201:	48 8d 7c 24 20       	lea    rdi,[rsp+0x20]
    1206:	be 00 00 00 00       	mov    esi,0x0
    120b:	e8 00 00 00 00       	call   1210 <_ZN9simulator14readParametersENSt7__cxx1112basic_stringIcSt11char_traitsIcESaIcEEE+0x1a0>
    1210:	85 c0                	test   eax,eax
    1212:	75 0e                	jne    1222 <_ZN9simulator14readParametersENSt7__cxx1112basic_stringIcSt11char_traitsIcESaIcEEE+0x1b2>
    1214:	48 8d 73 18          	lea    rsi,[rbx+0x18]
    1218:	48 8d 7c 24 40       	lea    rdi,[rsp+0x40]
    121d:	e8 00 00 00 00       	call   1222 <_ZN9simulator14readParametersENSt7__cxx1112basic_stringIcSt11char_traitsIcESaIcEEE+0x1b2>
    1222:	48 8d 7c 24 20       	lea    rdi,[rsp+0x20]
    1227:	be 00 00 00 00       	mov    esi,0x0
    122c:	e8 00 00 00 00       	call   1231 <_ZN9simulator14readParametersENSt7__cxx1112basic_stringIcSt11char_traitsIcESaIcEEE+0x1c1>
    1231:	85 c0                	test   eax,eax
    1233:	75 0e                	jne    1243 <_ZN9simulator14readParametersENSt7__cxx1112basic_stringIcSt11char_traitsIcESaIcEEE+0x1d3>
    1235:	48 8d 73 1c          	lea    rsi,[rbx+0x1c]
    1239:	48 8d 7c 24 40       	lea    rdi,[rsp+0x40]
    123e:	e8 00 00 00 00       	call   1243 <_ZN9simulator14readParametersENSt7__cxx1112basic_stringIcSt11char_traitsIcESaIcEEE+0x1d3>
    1243:	48 8d 7c 24 20       	lea    rdi,[rsp+0x20]
    1248:	be 00 00 00 00       	mov    esi,0x0
    124d:	e8 00 00 00 00       	call   1252 <_ZN9simulator14readParametersENSt7__cxx1112basic_stringIcSt11char_traitsIcESaIcEEE+0x1e2>
    1252:	85 c0                	test   eax,eax
    1254:	75 0e                	jne    1264 <_ZN9simulator14readParametersENSt7__cxx1112basic_stringIcSt11char_traitsIcESaIcEEE+0x1f4>
    1256:	48 8d 73 3c          	lea    rsi,[rbx+0x3c]
    125a:	48 8d 7c 24 40       	lea    rdi,[rsp+0x40]
    125f:	e8 00 00 00 00       	call   1264 <_ZN9simulator14readParametersENSt7__cxx1112basic_stringIcSt11char_traitsIcESaIcEEE+0x1f4>
    1264:	48 8d 7c 24 20       	lea    rdi,[rsp+0x20]
    1269:	be 00 00 00 00       	mov    esi,0x0
    126e:	e8 00 00 00 00       	call   1273 <_ZN9simulator14readParametersENSt7__cxx1112basic_stringIcSt11char_traitsIcESaIcEEE+0x203>
    1273:	85 c0                	test   eax,eax
    1275:	75 11                	jne    1288 <_ZN9simulator14readParametersENSt7__cxx1112basic_stringIcSt11char_traitsIcESaIcEEE+0x218>
    1277:	48 8d b3 a0 00 00 00 	lea    rsi,[rbx+0xa0]
    127e:	48 8d 7c 24 40       	lea    rdi,[rsp+0x40]
    1283:	e8 00 00 00 00       	call   1288 <_ZN9simulator14readParametersENSt7__cxx1112basic_stringIcSt11char_traitsIcESaIcEEE+0x218>
    1288:	48 8d 7c 24 20       	lea    rdi,[rsp+0x20]
    128d:	be 00 00 00 00       	mov    esi,0x0
    1292:	e8 00 00 00 00       	call   1297 <_ZN9simulator14readParametersENSt7__cxx1112basic_stringIcSt11char_traitsIcESaIcEEE+0x227>
    1297:	85 c0                	test   eax,eax
    1299:	75 11                	jne    12ac <_ZN9simulator14readParametersENSt7__cxx1112basic_stringIcSt11char_traitsIcESaIcEEE+0x23c>
    129b:	48 8d b3 a4 00 00 00 	lea    rsi,[rbx+0xa4]
    12a2:	48 8d 7c 24 40       	lea    rdi,[rsp+0x40]
    12a7:	e8 00 00 00 00       	call   12ac <_ZN9simulator14readParametersENSt7__cxx1112basic_stringIcSt11char_traitsIcESaIcEEE+0x23c>
    12ac:	48 8d 7c 24 20       	lea    rdi,[rsp+0x20]
    12b1:	be 00 00 00 00       	mov    esi,0x0
    12b6:	e8 00 00 00 00       	call   12bb <_ZN9simulator14readParametersENSt7__cxx1112basic_stringIcSt11char_traitsIcESaIcEEE+0x24b>
    12bb:	85 c0                	test   eax,eax
    12bd:	0f 84 8d 00 00 00    	je     1350 <_ZN9simulator14readParametersENSt7__cxx1112basic_stringIcSt11char_traitsIcESaIcEEE+0x2e0>
    12c3:	48 8d 74 24 20       	lea    rsi,[rsp+0x20]
    12c8:	48 8d 7c 24 40       	lea    rdi,[rsp+0x40]
    12cd:	e8 00 00 00 00       	call   12d2 <_ZN9simulator14readParametersENSt7__cxx1112basic_stringIcSt11char_traitsIcESaIcEEE+0x262>
    12d2:	84 c0                	test   al,al
    12d4:	0f 85 66 fe ff ff    	jne    1140 <_ZN9simulator14readParametersENSt7__cxx1112basic_stringIcSt11char_traitsIcESaIcEEE+0xd0>
    12da:	48 8d bc 24 90 02 00 	lea    rdi,[rsp+0x290]
    12e1:	00 
    12e2:	e8 00 00 00 00       	call   12e7 <_ZN9simulator14readParametersENSt7__cxx1112basic_stringIcSt11char_traitsIcESaIcEEE+0x277>
    12e7:	48 85 c0             	test   rax,rax
    12ea:	74 7a                	je     1366 <_ZN9simulator14readParametersENSt7__cxx1112basic_stringIcSt11char_traitsIcESaIcEEE+0x2f6>
    12ec:	48 8d bc 24 88 00 00 	lea    rdi,[rsp+0x88]
    12f3:	00 
    12f4:	e8 00 00 00 00       	call   12f9 <_ZN9simulator14readParametersENSt7__cxx1112basic_stringIcSt11char_traitsIcESaIcEEE+0x289>
    12f9:	48 85 c0             	test   rax,rax
    12fc:	0f 84 88 00 00 00    	je     138a <_ZN9simulator14readParametersENSt7__cxx1112basic_stringIcSt11char_traitsIcESaIcEEE+0x31a>
    1302:	48 8b 7c 24 20       	mov    rdi,QWORD PTR [rsp+0x20]
    1307:	48 8d 44 24 30       	lea    rax,[rsp+0x30]
    130c:	48 39 c7             	cmp    rdi,rax
    130f:	74 05                	je     1316 <_ZN9simulator14readParametersENSt7__cxx1112basic_stringIcSt11char_traitsIcESaIcEEE+0x2a6>
    1311:	e8 00 00 00 00       	call   1316 <_ZN9simulator14readParametersENSt7__cxx1112basic_stringIcSt11char_traitsIcESaIcEEE+0x2a6>
    1316:	48 8d 7c 24 40       	lea    rdi,[rsp+0x40]
    131b:	e8 00 00 00 00       	call   1320 <_ZN9simulator14readParametersENSt7__cxx1112basic_stringIcSt11char_traitsIcESaIcEEE+0x2b0>
    1320:	48 8b 84 24 88 04 00 	mov    rax,QWORD PTR [rsp+0x488]
    1327:	00 
    1328:	64 48 33 04 25 28 00 	xor    rax,QWORD PTR fs:0x28
    132f:	00 00 
    1331:	0f 85 96 00 00 00    	jne    13cd <_ZN9simulator14readParametersENSt7__cxx1112basic_stringIcSt11char_traitsIcESaIcEEE+0x35d>
    1337:	48 81 c4 90 04 00 00 	add    rsp,0x490
    133e:	5b                   	pop    rbx
    133f:	5d                   	pop    rbp
    1340:	41 5c                	pop    r12
    1342:	41 5d                	pop    r13
    1344:	41 5e                	pop    r14
    1346:	c3                   	ret    
    1347:	66 0f 1f 84 00 00 00 	nop    WORD PTR [rax+rax*1+0x0]
    134e:	00 00 
    1350:	48 8d b3 ac 00 00 00 	lea    rsi,[rbx+0xac]
    1357:	48 8d 7c 24 40       	lea    rdi,[rsp+0x40]
    135c:	e8 00 00 00 00       	call   1361 <_ZN9simulator14readParametersENSt7__cxx1112basic_stringIcSt11char_traitsIcESaIcEEE+0x2f1>
    1361:	e9 5d ff ff ff       	jmp    12c3 <_ZN9simulator14readParametersENSt7__cxx1112basic_stringIcSt11char_traitsIcESaIcEEE+0x253>
    1366:	48 8b 84 24 80 02 00 	mov    rax,QWORD PTR [rsp+0x280]
    136d:	00 
    136e:	48 8b 40 e8          	mov    rax,QWORD PTR [rax-0x18]
    1372:	48 8d bc 04 80 02 00 	lea    rdi,[rsp+rax*1+0x280]
    1379:	00 
    137a:	8b 77 20             	mov    esi,DWORD PTR [rdi+0x20]
    137d:	83 ce 04             	or     esi,0x4
    1380:	e8 00 00 00 00       	call   1385 <_ZN9simulator14readParametersENSt7__cxx1112basic_stringIcSt11char_traitsIcESaIcEEE+0x315>
    1385:	e9 62 ff ff ff       	jmp    12ec <_ZN9simulator14readParametersENSt7__cxx1112basic_stringIcSt11char_traitsIcESaIcEEE+0x27c>
    138a:	48 8b 84 24 80 00 00 	mov    rax,QWORD PTR [rsp+0x80]
    1391:	00 
    1392:	48 8b 40 e8          	mov    rax,QWORD PTR [rax-0x18]
    1396:	48 8d bc 04 80 00 00 	lea    rdi,[rsp+rax*1+0x80]
    139d:	00 
    139e:	8b 77 20             	mov    esi,DWORD PTR [rdi+0x20]
    13a1:	83 ce 04             	or     esi,0x4
    13a4:	e8 00 00 00 00       	call   13a9 <_ZN9simulator14readParametersENSt7__cxx1112basic_stringIcSt11char_traitsIcESaIcEEE+0x339>
    13a9:	e9 54 ff ff ff       	jmp    1302 <_ZN9simulator14readParametersENSt7__cxx1112basic_stringIcSt11char_traitsIcESaIcEEE+0x292>
    13ae:	48 89 c3             	mov    rbx,rax
    13b1:	48 8b 7c 24 20       	mov    rdi,QWORD PTR [rsp+0x20]
    13b6:	48 8d 44 24 30       	lea    rax,[rsp+0x30]
    13bb:	48 39 c7             	cmp    rdi,rax
    13be:	74 05                	je     13c5 <_ZN9simulator14readParametersENSt7__cxx1112basic_stringIcSt11char_traitsIcESaIcEEE+0x355>
    13c0:	e8 00 00 00 00       	call   13c5 <_ZN9simulator14readParametersENSt7__cxx1112basic_stringIcSt11char_traitsIcESaIcEEE+0x355>
    13c5:	48 89 df             	mov    rdi,rbx
    13c8:	e8 00 00 00 00       	call   13cd <_ZN9simulator14readParametersENSt7__cxx1112basic_stringIcSt11char_traitsIcESaIcEEE+0x35d>
    13cd:	e8 00 00 00 00       	call   13d2 <_ZN9simulator14readParametersENSt7__cxx1112basic_stringIcSt11char_traitsIcESaIcEEE+0x362>
    13d2:	48 8b 3c 24          	mov    rdi,QWORD PTR [rsp]
    13d6:	48 8d 54 24 10       	lea    rdx,[rsp+0x10]
    13db:	48 89 c3             	mov    rbx,rax
    13de:	48 39 d7             	cmp    rdi,rdx
    13e1:	74 ce                	je     13b1 <_ZN9simulator14readParametersENSt7__cxx1112basic_stringIcSt11char_traitsIcESaIcEEE+0x341>
    13e3:	e8 00 00 00 00       	call   13e8 <_ZN9simulator14readParametersENSt7__cxx1112basic_stringIcSt11char_traitsIcESaIcEEE+0x378>
    13e8:	eb c7                	jmp    13b1 <_ZN9simulator14readParametersENSt7__cxx1112basic_stringIcSt11char_traitsIcESaIcEEE+0x341>
    13ea:	48 8b 7c 24 20       	mov    rdi,QWORD PTR [rsp+0x20]
    13ef:	48 89 c3             	mov    rbx,rax
    13f2:	48 8d 44 24 30       	lea    rax,[rsp+0x30]
    13f7:	48 39 c7             	cmp    rdi,rax
    13fa:	74 05                	je     1401 <_ZN9simulator14readParametersENSt7__cxx1112basic_stringIcSt11char_traitsIcESaIcEEE+0x391>
    13fc:	e8 00 00 00 00       	call   1401 <_ZN9simulator14readParametersENSt7__cxx1112basic_stringIcSt11char_traitsIcESaIcEEE+0x391>
    1401:	48 8d 7c 24 40       	lea    rdi,[rsp+0x40]
    1406:	e8 00 00 00 00       	call   140b <_ZN9simulator14readParametersENSt7__cxx1112basic_stringIcSt11char_traitsIcESaIcEEE+0x39b>
    140b:	eb b8                	jmp    13c5 <_ZN9simulator14readParametersENSt7__cxx1112basic_stringIcSt11char_traitsIcESaIcEEE+0x355>
    140d:	90                   	nop
    140e:	66 90                	xchg   ax,ax

0000000000001410 <_ZN9simulatorC1Ev>:
    1410:	41 54                	push   r12
    1412:	55                   	push   rbp
    1413:	ba 00 00 00 00       	mov    edx,0x0
    1418:	53                   	push   rbx
    1419:	48 89 fb             	mov    rbx,rdi
    141c:	be 00 00 00 00       	mov    esi,0x0
    1421:	48 83 ec 40          	sub    rsp,0x40
    1425:	c7 47 40 db 0f 49 40 	mov    DWORD PTR [rdi+0x40],0x40490fdb
    142c:	c7 87 b8 00 00 00 00 	mov    DWORD PTR [rdi+0xb8],0x0
    1433:	00 00 00 
    1436:	64 48 8b 04 25 28 00 	mov    rax,QWORD PTR fs:0x28
    143d:	00 00 
    143f:	48 89 44 24 38       	mov    QWORD PTR [rsp+0x38],rax
    1444:	31 c0                	xor    eax,eax
    1446:	c7 87 bc 00 00 00 00 	mov    DWORD PTR [rdi+0xbc],0x0
    144d:	00 00 00 
    1450:	48 c7 87 b0 00 00 00 	mov    QWORD PTR [rdi+0xb0],0x0
    1457:	00 00 00 00 
    145b:	48 8d 44 24 20       	lea    rax,[rsp+0x20]
    1460:	c7 87 c8 00 00 00 00 	mov    DWORD PTR [rdi+0xc8],0x0
    1467:	00 00 00 
    146a:	c7 87 cc 00 00 00 00 	mov    DWORD PTR [rdi+0xcc],0x0
    1471:	00 00 00 
    1474:	48 c7 87 c0 00 00 00 	mov    QWORD PTR [rdi+0xc0],0x0
    147b:	00 00 00 00 
    147f:	c7 87 d8 00 00 00 00 	mov    DWORD PTR [rdi+0xd8],0x0
    1486:	00 00 00 
    1489:	c7 87 dc 00 00 00 00 	mov    DWORD PTR [rdi+0xdc],0x0
    1490:	00 00 00 
    1493:	48 c7 87 d0 00 00 00 	mov    QWORD PTR [rdi+0xd0],0x0
    149a:	00 00 00 00 
    149e:	c7 87 e8 00 00 00 00 	mov    DWORD PTR [rdi+0xe8],0x0
    14a5:	00 00 00 
    14a8:	c7 87 ec 00 00 00 00 	mov    DWORD PTR [rdi+0xec],0x0
    14af:	00 00 00 
    14b2:	48 c7 87 e0 00 00 00 	mov    QWORD PTR [rdi+0xe0],0x0
    14b9:	00 00 00 00 
    14bd:	c7 87 f8 00 00 00 00 	mov    DWORD PTR [rdi+0xf8],0x0
    14c4:	00 00 00 
    14c7:	c7 87 fc 00 00 00 00 	mov    DWORD PTR [rdi+0xfc],0x0
    14ce:	00 00 00 
    14d1:	48 c7 87 f0 00 00 00 	mov    QWORD PTR [rdi+0xf0],0x0
    14d8:	00 00 00 00 
    14dc:	c7 87 08 01 00 00 00 	mov    DWORD PTR [rdi+0x108],0x0
    14e3:	00 00 00 
    14e6:	c7 87 0c 01 00 00 00 	mov    DWORD PTR [rdi+0x10c],0x0
    14ed:	00 00 00 
    14f0:	48 c7 87 00 01 00 00 	mov    QWORD PTR [rdi+0x100],0x0
    14f7:	00 00 00 00 
    14fb:	c7 87 18 01 00 00 00 	mov    DWORD PTR [rdi+0x118],0x0
    1502:	00 00 00 
    1505:	c7 87 1c 01 00 00 00 	mov    DWORD PTR [rdi+0x11c],0x0
    150c:	00 00 00 
    150f:	48 c7 87 10 01 00 00 	mov    QWORD PTR [rdi+0x110],0x0
    1516:	00 00 00 00 
    151a:	c7 87 28 01 00 00 00 	mov    DWORD PTR [rdi+0x128],0x0
    1521:	00 00 00 
    1524:	c7 87 2c 01 00 00 00 	mov    DWORD PTR [rdi+0x12c],0x0
    152b:	00 00 00 
    152e:	48 c7 87 20 01 00 00 	mov    QWORD PTR [rdi+0x120],0x0
    1535:	00 00 00 00 
    1539:	c7 87 38 01 00 00 00 	mov    DWORD PTR [rdi+0x138],0x0
    1540:	00 00 00 
    1543:	c7 87 3c 01 00 00 00 	mov    DWORD PTR [rdi+0x13c],0x0
    154a:	00 00 00 
    154d:	48 c7 87 30 01 00 00 	mov    QWORD PTR [rdi+0x130],0x0
    1554:	00 00 00 00 
    1558:	48 8d 7c 24 10       	lea    rdi,[rsp+0x10]
    155d:	48 89 44 24 10       	mov    QWORD PTR [rsp+0x10],rax
    1562:	e8 99 ea ff ff       	call   0 <_ZNSt7__cxx1112basic_stringIcSt11char_traitsIcESaIcEE12_M_constructIPKcEEvT_S8_St20forward_iterator_tag.isra.36>
    1567:	48 8d 74 24 10       	lea    rsi,[rsp+0x10]
    156c:	48 89 df             	mov    rdi,rbx
    156f:	e8 00 00 00 00       	call   1574 <_ZN9simulatorC1Ev+0x164>
    1574:	48 8b 7c 24 10       	mov    rdi,QWORD PTR [rsp+0x10]
    1579:	48 8d 44 24 20       	lea    rax,[rsp+0x20]
    157e:	48 39 c7             	cmp    rdi,rax
    1581:	74 05                	je     1588 <_ZN9simulatorC1Ev+0x178>
    1583:	e8 00 00 00 00       	call   1588 <_ZN9simulatorC1Ev+0x178>
    1588:	f3 0f 10 0b          	movss  xmm1,DWORD PTR [rbx]
    158c:	0f 28 d1             	movaps xmm2,xmm1
    158f:	f3 0f 10 43 14       	movss  xmm0,DWORD PTR [rbx+0x14]
    1594:	f3 0f 11 43 20       	movss  DWORD PTR [rbx+0x20],xmm0
    1599:	f3 0f 5e d0          	divss  xmm2,xmm0
    159d:	f3 0f 11 4c 24 0c    	movss  DWORD PTR [rsp+0xc],xmm1
    15a3:	0f 28 c2             	movaps xmm0,xmm2
    15a6:	e8 00 00 00 00       	call   15ab <_ZN9simulatorC1Ev+0x19b>
    15ab:	f3 0f 58 05 00 00 00 	addss  xmm0,DWORD PTR [rip+0x0]        # 15b3 <_ZN9simulatorC1Ev+0x1a3>
    15b2:	00 
    15b3:	f3 44 0f 2c e0       	cvttss2si r12d,xmm0
    15b8:	f3 0f 10 43 04       	movss  xmm0,DWORD PTR [rbx+0x4]
    15bd:	f3 0f 5e 43 18       	divss  xmm0,DWORD PTR [rbx+0x18]
    15c2:	44 89 63 24          	mov    DWORD PTR [rbx+0x24],r12d
    15c6:	e8 00 00 00 00       	call   15cb <_ZN9simulatorC1Ev+0x1bb>
    15cb:	f3 0f 58 05 00 00 00 	addss  xmm0,DWORD PTR [rip+0x0]        # 15d3 <_ZN9simulatorC1Ev+0x1c3>
    15d2:	00 
    15d3:	f3 0f 2c e8          	cvttss2si ebp,xmm0
    15d7:	f3 0f 10 43 08       	movss  xmm0,DWORD PTR [rbx+0x8]
    15dc:	f3 0f 5e 43 1c       	divss  xmm0,DWORD PTR [rbx+0x1c]
    15e1:	89 6b 28             	mov    DWORD PTR [rbx+0x28],ebp
    15e4:	e8 00 00 00 00       	call   15e9 <_ZN9simulatorC1Ev+0x1d9>
    15e9:	f3 0f 58 05 00 00 00 	addss  xmm0,DWORD PTR [rip+0x0]        # 15f1 <_ZN9simulatorC1Ev+0x1e1>
    15f0:	00 
    15f1:	f3 0f 10 4c 24 0c    	movss  xmm1,DWORD PTR [rsp+0xc]
    15f7:	f3 0f 5a c9          	cvtss2sd xmm1,xmm1
    15fb:	66 0f ef db          	pxor   xmm3,xmm3
    15ff:	48 8d bb b0 00 00 00 	lea    rdi,[rbx+0xb0]
    1606:	44 89 a3 b8 00 00 00 	mov    DWORD PTR [rbx+0xb8],r12d
    160d:	89 ab bc 00 00 00    	mov    DWORD PTR [rbx+0xbc],ebp
    1613:	f2 0f 59 0d 00 00 00 	mulsd  xmm1,QWORD PTR [rip+0x0]        # 161b <_ZN9simulatorC1Ev+0x20b>
    161a:	00 
    161b:	f3 0f 2c c0          	cvttss2si eax,xmm0
    161f:	66 0f ef c0          	pxor   xmm0,xmm0
    1623:	f3 0f 5a 43 0c       	cvtss2sd xmm0,DWORD PTR [rbx+0xc]
    1628:	f2 0f 5e c8          	divsd  xmm1,xmm0
    162c:	89 43 2c             	mov    DWORD PTR [rbx+0x2c],eax
    162f:	66 0f ef c0          	pxor   xmm0,xmm0
    1633:	f2 0f 5a d9          	cvtsd2ss xmm3,xmm1
    1637:	f3 0f 11 9b 40 01 00 	movss  DWORD PTR [rbx+0x140],xmm3
    163e:	00 
    163f:	e8 00 00 00 00       	call   1644 <_ZN9simulatorC1Ev+0x234>
    1644:	8b 43 28             	mov    eax,DWORD PTR [rbx+0x28]
    1647:	8b 53 24             	mov    edx,DWORD PTR [rbx+0x24]
    164a:	48 8d bb c0 00 00 00 	lea    rdi,[rbx+0xc0]
    1651:	66 0f ef c0          	pxor   xmm0,xmm0
    1655:	89 93 c8 00 00 00    	mov    DWORD PTR [rbx+0xc8],edx
    165b:	89 83 cc 00 00 00    	mov    DWORD PTR [rbx+0xcc],eax
    1661:	e8 00 00 00 00       	call   1666 <_ZN9simulatorC1Ev+0x256>
    1666:	8b 43 28             	mov    eax,DWORD PTR [rbx+0x28]
    1669:	8b 53 24             	mov    edx,DWORD PTR [rbx+0x24]
    166c:	48 8d bb d0 00 00 00 	lea    rdi,[rbx+0xd0]
    1673:	f3 0f 10 05 00 00 00 	movss  xmm0,DWORD PTR [rip+0x0]        # 167b <_ZN9simulatorC1Ev+0x26b>
    167a:	00 
    167b:	89 93 d8 00 00 00    	mov    DWORD PTR [rbx+0xd8],edx
    1681:	89 83 dc 00 00 00    	mov    DWORD PTR [rbx+0xdc],eax
    1687:	e8 00 00 00 00       	call   168c <_ZN9simulatorC1Ev+0x27c>
    168c:	8b 43 28             	mov    eax,DWORD PTR [rbx+0x28]
    168f:	8b 53 24             	mov    edx,DWORD PTR [rbx+0x24]
    1692:	48 8d bb e0 00 00 00 	lea    rdi,[rbx+0xe0]
    1699:	66 0f ef c0          	pxor   xmm0,xmm0
    169d:	89 93 e8 00 00 00    	mov    DWORD PTR [rbx+0xe8],edx
    16a3:	89 83 ec 00 00 00    	mov    DWORD PTR [rbx+0xec],eax
    16a9:	e8 00 00 00 00       	call   16ae <_ZN9simulatorC1Ev+0x29e>
    16ae:	8b 43 28             	mov    eax,DWORD PTR [rbx+0x28]
    16b1:	8b 53 24             	mov    edx,DWORD PTR [rbx+0x24]
    16b4:	48 8d bb f0 00 00 00 	lea    rdi,[rbx+0xf0]
    16bb:	66 0f ef c0          	pxor   xmm0,xmm0
    16bf:	89 93 f8 00 00 00    	mov    DWORD PTR [rbx+0xf8],edx
    16c5:	89 83 fc 00 00 00    	mov    DWORD PTR [rbx+0xfc],eax
    16cb:	e8 00 00 00 00       	call   16d0 <_ZN9simulatorC1Ev+0x2c0>
    16d0:	8b 43 28             	mov    eax,DWORD PTR [rbx+0x28]
    16d3:	8b 53 24             	mov    edx,DWORD PTR [rbx+0x24]
    16d6:	48 8d bb 00 01 00 00 	lea    rdi,[rbx+0x100]
    16dd:	f3 0f 10 05 00 00 00 	movss  xmm0,DWORD PTR [rip+0x0]        # 16e5 <_ZN9simulatorC1Ev+0x2d5>
    16e4:	00 
    16e5:	89 93 08 01 00 00    	mov    DWORD PTR [rbx+0x108],edx
    16eb:	89 83 0c 01 00 00    	mov    DWORD PTR [rbx+0x10c],eax
    16f1:	e8 00 00 00 00       	call   16f6 <_ZN9simulatorC1Ev+0x2e6>
    16f6:	8b 43 28             	mov    eax,DWORD PTR [rbx+0x28]
    16f9:	8b 53 24             	mov    edx,DWORD PTR [rbx+0x24]
    16fc:	48 8d bb 10 01 00 00 	lea    rdi,[rbx+0x110]
    1703:	66 0f ef c0          	pxor   xmm0,xmm0
    1707:	89 93 18 01 00 00    	mov    DWORD PTR [rbx+0x118],edx
    170d:	89 83 1c 01 00 00    	mov    DWORD PTR [rbx+0x11c],eax
    1713:	e8 00 00 00 00       	call   1718 <_ZN9simulatorC1Ev+0x308>
    1718:	8b 43 28             	mov    eax,DWORD PTR [rbx+0x28]
    171b:	8b 53 24             	mov    edx,DWORD PTR [rbx+0x24]
    171e:	48 8d bb 20 01 00 00 	lea    rdi,[rbx+0x120]
    1725:	66 0f ef c0          	pxor   xmm0,xmm0
    1729:	89 93 28 01 00 00    	mov    DWORD PTR [rbx+0x128],edx
    172f:	89 83 2c 01 00 00    	mov    DWORD PTR [rbx+0x12c],eax
    1735:	e8 00 00 00 00       	call   173a <_ZN9simulatorC1Ev+0x32a>
    173a:	8b 43 28             	mov    eax,DWORD PTR [rbx+0x28]
    173d:	8b 53 24             	mov    edx,DWORD PTR [rbx+0x24]
    1740:	48 8d bb 30 01 00 00 	lea    rdi,[rbx+0x130]
    1747:	f3 0f 10 05 00 00 00 	movss  xmm0,DWORD PTR [rip+0x0]        # 174f <_ZN9simulatorC1Ev+0x33f>
    174e:	00 
    174f:	89 93 38 01 00 00    	mov    DWORD PTR [rbx+0x138],edx
    1755:	89 83 3c 01 00 00    	mov    DWORD PTR [rbx+0x13c],eax
    175b:	e8 00 00 00 00       	call   1760 <_ZN9simulatorC1Ev+0x350>
    1760:	8b 43 24             	mov    eax,DWORD PTR [rbx+0x24]
    1763:	66 0f ef c0          	pxor   xmm0,xmm0
    1767:	c7 43 30 00 00 00 00 	mov    DWORD PTR [rbx+0x30],0x0
    176e:	89 c2                	mov    edx,eax
    1770:	c1 ea 1f             	shr    edx,0x1f
    1773:	01 d0                	add    eax,edx
    1775:	d1 f8                	sar    eax,1
    1777:	f3 0f 2a c0          	cvtsi2ss xmm0,eax
    177b:	8b 43 28             	mov    eax,DWORD PTR [rbx+0x28]
    177e:	89 c2                	mov    edx,eax
    1780:	c1 ea 1f             	shr    edx,0x1f
    1783:	01 d0                	add    eax,edx
    1785:	d1 f8                	sar    eax,1
    1787:	f3 0f 11 43 34       	movss  DWORD PTR [rbx+0x34],xmm0
    178c:	66 0f ef c0          	pxor   xmm0,xmm0
    1790:	f3 0f 2a c0          	cvtsi2ss xmm0,eax
    1794:	48 8b 44 24 38       	mov    rax,QWORD PTR [rsp+0x38]
    1799:	64 48 33 04 25 28 00 	xor    rax,QWORD PTR fs:0x28
    17a0:	00 00 
    17a2:	f3 0f 11 43 38       	movss  DWORD PTR [rbx+0x38],xmm0
    17a7:	75 09                	jne    17b2 <_ZN9simulatorC1Ev+0x3a2>
    17a9:	48 83 c4 40          	add    rsp,0x40
    17ad:	5b                   	pop    rbx
    17ae:	5d                   	pop    rbp
    17af:	41 5c                	pop    r12
    17b1:	c3                   	ret    
    17b2:	e8 00 00 00 00       	call   17b7 <_ZN9simulatorC1Ev+0x3a7>
    17b7:	48 8b 7c 24 10       	mov    rdi,QWORD PTR [rsp+0x10]
    17bc:	48 8d 54 24 20       	lea    rdx,[rsp+0x20]
    17c1:	48 89 c5             	mov    rbp,rax
    17c4:	48 39 d7             	cmp    rdi,rdx
    17c7:	74 05                	je     17ce <_ZN9simulatorC1Ev+0x3be>
    17c9:	e8 00 00 00 00       	call   17ce <_ZN9simulatorC1Ev+0x3be>
    17ce:	48 8b bb 30 01 00 00 	mov    rdi,QWORD PTR [rbx+0x130]
    17d5:	48 85 ff             	test   rdi,rdi
    17d8:	74 05                	je     17df <_ZN9simulatorC1Ev+0x3cf>
    17da:	e8 00 00 00 00       	call   17df <_ZN9simulatorC1Ev+0x3cf>
    17df:	48 8b bb 20 01 00 00 	mov    rdi,QWORD PTR [rbx+0x120]
    17e6:	48 85 ff             	test   rdi,rdi
    17e9:	74 05                	je     17f0 <_ZN9simulatorC1Ev+0x3e0>
    17eb:	e8 00 00 00 00       	call   17f0 <_ZN9simulatorC1Ev+0x3e0>
    17f0:	48 8b bb 10 01 00 00 	mov    rdi,QWORD PTR [rbx+0x110]
    17f7:	48 85 ff             	test   rdi,rdi
    17fa:	74 05                	je     1801 <_ZN9simulatorC1Ev+0x3f1>
    17fc:	e8 00 00 00 00       	call   1801 <_ZN9simulatorC1Ev+0x3f1>
    1801:	48 8b bb 00 01 00 00 	mov    rdi,QWORD PTR [rbx+0x100]
    1808:	48 85 ff             	test   rdi,rdi
    180b:	74 05                	je     1812 <_ZN9simulatorC1Ev+0x402>
    180d:	e8 00 00 00 00       	call   1812 <_ZN9simulatorC1Ev+0x402>
    1812:	48 8b bb f0 00 00 00 	mov    rdi,QWORD PTR [rbx+0xf0]
    1819:	48 85 ff             	test   rdi,rdi
    181c:	74 05                	je     1823 <_ZN9simulatorC1Ev+0x413>
    181e:	e8 00 00 00 00       	call   1823 <_ZN9simulatorC1Ev+0x413>
    1823:	48 8b bb e0 00 00 00 	mov    rdi,QWORD PTR [rbx+0xe0]
    182a:	48 85 ff             	test   rdi,rdi
    182d:	74 05                	je     1834 <_ZN9simulatorC1Ev+0x424>
    182f:	e8 00 00 00 00       	call   1834 <_ZN9simulatorC1Ev+0x424>
    1834:	48 8b bb d0 00 00 00 	mov    rdi,QWORD PTR [rbx+0xd0]
    183b:	48 85 ff             	test   rdi,rdi
    183e:	74 05                	je     1845 <_ZN9simulatorC1Ev+0x435>
    1840:	e8 00 00 00 00       	call   1845 <_ZN9simulatorC1Ev+0x435>
    1845:	48 8b bb c0 00 00 00 	mov    rdi,QWORD PTR [rbx+0xc0]
    184c:	48 85 ff             	test   rdi,rdi
    184f:	74 05                	je     1856 <_ZN9simulatorC1Ev+0x446>
    1851:	e8 00 00 00 00       	call   1856 <_ZN9simulatorC1Ev+0x446>
    1856:	48 8b bb b0 00 00 00 	mov    rdi,QWORD PTR [rbx+0xb0]
    185d:	48 85 ff             	test   rdi,rdi
    1860:	74 05                	je     1867 <_ZN9simulatorC1Ev+0x457>
    1862:	e8 00 00 00 00       	call   1867 <_ZN9simulatorC1Ev+0x457>
    1867:	48 89 ef             	mov    rdi,rbp
    186a:	e8 00 00 00 00       	call   186f <_ZN9simulatorC1Ev+0x45f>
    186f:	48 89 c5             	mov    rbp,rax
    1872:	e9 57 ff ff ff       	jmp    17ce <_ZN9simulatorC1Ev+0x3be>
    1877:	90                   	nop
    1878:	0f 1f 84 00 00 00 00 	nop    DWORD PTR [rax+rax*1+0x0]
    187f:	00 

0000000000001880 <_ZN9simulator19setCavityFlowSpeedsEv>:
    1880:	44 8b 5f 24          	mov    r11d,DWORD PTR [rdi+0x24]
    1884:	45 85 db             	test   r11d,r11d
    1887:	7e 72                	jle    18fb <_ZN9simulator19setCavityFlowSpeedsEv+0x7b>
    1889:	8b 47 28             	mov    eax,DWORD PTR [rdi+0x28]
    188c:	4c 63 97 bc 00 00 00 	movsxd r10,DWORD PTR [rdi+0xbc]
    1893:	31 d2                	xor    edx,edx
    1895:	4c 63 8f ec 00 00 00 	movsxd r9,DWORD PTR [rdi+0xec]
    189c:	4c 63 87 1c 01 00 00 	movsxd r8,DWORD PTR [rdi+0x11c]
    18a3:	83 e8 01             	sub    eax,0x1
    18a6:	48 98                	cdqe   
    18a8:	49 c1 e2 02          	shl    r10,0x2
    18ac:	48 c1 e0 02          	shl    rax,0x2
    18b0:	49 c1 e1 02          	shl    r9,0x2
    18b4:	49 c1 e0 02          	shl    r8,0x2
    18b8:	48 89 c6             	mov    rsi,rax
    18bb:	48 89 c1             	mov    rcx,rax
    18be:	48 03 b7 b0 00 00 00 	add    rsi,QWORD PTR [rdi+0xb0]
    18c5:	48 03 8f e0 00 00 00 	add    rcx,QWORD PTR [rdi+0xe0]
    18cc:	48 03 87 10 01 00 00 	add    rax,QWORD PTR [rdi+0x110]
    18d3:	0f 1f 44 00 00       	nop    DWORD PTR [rax+rax*1+0x0]
    18d8:	83 c2 01             	add    edx,0x1
    18db:	c7 06 0a d7 23 3c    	mov    DWORD PTR [rsi],0x3c23d70a
    18e1:	c7 01 0a d7 23 3c    	mov    DWORD PTR [rcx],0x3c23d70a
    18e7:	4c 01 d6             	add    rsi,r10
    18ea:	c7 00 0a d7 23 3c    	mov    DWORD PTR [rax],0x3c23d70a
    18f0:	4c 01 c9             	add    rcx,r9
    18f3:	4c 01 c0             	add    rax,r8
    18f6:	44 39 da             	cmp    edx,r11d
    18f9:	75 dd                	jne    18d8 <_ZN9simulator19setCavityFlowSpeedsEv+0x58>
    18fb:	f3 c3                	repz ret 
    18fd:	90                   	nop
    18fe:	66 90                	xchg   ax,ax

0000000000001900 <_ZN9simulator11setPBordersEv>:
    1900:	41 56                	push   r14
    1902:	41 55                	push   r13
    1904:	41 54                	push   r12
    1906:	55                   	push   rbp
    1907:	53                   	push   rbx
    1908:	44 8b 57 24          	mov    r10d,DWORD PTR [rdi+0x24]
    190c:	44 8b 5f 28          	mov    r11d,DWORD PTR [rdi+0x28]
    1910:	45 85 d2             	test   r10d,r10d
    1913:	0f 8e 95 00 00 00    	jle    19ae <_ZN9simulator11setPBordersEv+0xae>
    1919:	4c 63 a7 dc 00 00 00 	movsxd r12,DWORD PTR [rdi+0xdc]
    1920:	48 63 af 0c 01 00 00 	movsxd rbp,DWORD PTR [rdi+0x10c]
    1927:	45 8d 43 fe          	lea    r8d,[r11-0x2]
    192b:	48 63 9f 3c 01 00 00 	movsxd rbx,DWORD PTR [rdi+0x13c]
    1932:	41 8d 73 ff          	lea    esi,[r11-0x1]
    1936:	48 8b 8f d0 00 00 00 	mov    rcx,QWORD PTR [rdi+0xd0]
    193d:	48 8b 97 00 01 00 00 	mov    rdx,QWORD PTR [rdi+0x100]
    1944:	48 8b 87 30 01 00 00 	mov    rax,QWORD PTR [rdi+0x130]
    194b:	45 31 c9             	xor    r9d,r9d
    194e:	4d 63 c0             	movsxd r8,r8d
    1951:	48 63 f6             	movsxd rsi,esi
    1954:	49 c1 e4 02          	shl    r12,0x2
    1958:	48 c1 e5 02          	shl    rbp,0x2
    195c:	48 c1 e3 02          	shl    rbx,0x2
    1960:	f3 0f 10 41 04       	movss  xmm0,DWORD PTR [rcx+0x4]
    1965:	41 83 c1 01          	add    r9d,0x1
    1969:	f3 0f 11 01          	movss  DWORD PTR [rcx],xmm0
    196d:	f3 0f 10 42 04       	movss  xmm0,DWORD PTR [rdx+0x4]
    1972:	f3 0f 11 02          	movss  DWORD PTR [rdx],xmm0
    1976:	f3 0f 10 40 04       	movss  xmm0,DWORD PTR [rax+0x4]
    197b:	f3 0f 11 00          	movss  DWORD PTR [rax],xmm0
    197f:	f3 42 0f 10 04 81    	movss  xmm0,DWORD PTR [rcx+r8*4]
    1985:	f3 0f 11 04 b1       	movss  DWORD PTR [rcx+rsi*4],xmm0
    198a:	4c 01 e1             	add    rcx,r12
    198d:	f3 42 0f 10 04 82    	movss  xmm0,DWORD PTR [rdx+r8*4]
    1993:	f3 0f 11 04 b2       	movss  DWORD PTR [rdx+rsi*4],xmm0
    1998:	48 01 ea             	add    rdx,rbp
    199b:	f3 42 0f 10 04 80    	movss  xmm0,DWORD PTR [rax+r8*4]
    19a1:	f3 0f 11 04 b0       	movss  DWORD PTR [rax+rsi*4],xmm0
    19a6:	48 01 d8             	add    rax,rbx
    19a9:	45 39 d1             	cmp    r9d,r10d
    19ac:	75 b2                	jne    1960 <_ZN9simulator11setPBordersEv+0x60>
    19ae:	45 85 db             	test   r11d,r11d
    19b1:	0f 8e de 00 00 00    	jle    1a95 <_ZN9simulator11setPBordersEv+0x195>
    19b7:	48 63 87 3c 01 00 00 	movsxd rax,DWORD PTR [rdi+0x13c]
    19be:	48 8b b7 d0 00 00 00 	mov    rsi,QWORD PTR [rdi+0xd0]
    19c5:	41 83 ea 01          	sub    r10d,0x1
    19c9:	48 8b 8f 00 01 00 00 	mov    rcx,QWORD PTR [rdi+0x100]
    19d0:	48 8b 97 30 01 00 00 	mov    rdx,QWORD PTR [rdi+0x130]
    19d7:	45 89 d4             	mov    r12d,r10d
    19da:	48 63 af 0c 01 00 00 	movsxd rbp,DWORD PTR [rdi+0x10c]
    19e1:	48 63 bf dc 00 00 00 	movsxd rdi,DWORD PTR [rdi+0xdc]
    19e8:	45 89 d0             	mov    r8d,r10d
    19eb:	44 0f af e0          	imul   r12d,eax
    19ef:	4c 8d 34 be          	lea    r14,[rsi+rdi*4]
    19f3:	44 0f af d7          	imul   r10d,edi
    19f7:	44 0f af c5          	imul   r8d,ebp
    19fb:	45 89 d1             	mov    r9d,r10d
    19fe:	4d 63 d2             	movsxd r10,r10d
    1a01:	41 29 f9             	sub    r9d,edi
    1a04:	4e 8d 2c 96          	lea    r13,[rsi+r10*4]
    1a08:	48 8d 3c 82          	lea    rdi,[rdx+rax*4]
    1a0c:	4d 63 c9             	movsxd r9,r9d
    1a0f:	4a 8d 1c 8e          	lea    rbx,[rsi+r9*4]
    1a13:	45 89 c1             	mov    r9d,r8d
    1a16:	4d 63 c0             	movsxd r8,r8d
    1a19:	41 29 e9             	sub    r9d,ebp
    1a1c:	48 8d 2c a9          	lea    rbp,[rcx+rbp*4]
    1a20:	4d 63 c9             	movsxd r9,r9d
    1a23:	4e 8d 14 89          	lea    r10,[rcx+r9*4]
    1a27:	4e 8d 0c 81          	lea    r9,[rcx+r8*4]
    1a2b:	45 89 e0             	mov    r8d,r12d
    1a2e:	41 29 c0             	sub    r8d,eax
    1a31:	4d 63 e4             	movsxd r12,r12d
    1a34:	31 c0                	xor    eax,eax
    1a36:	4d 63 c0             	movsxd r8,r8d
    1a39:	4e 8d 24 a2          	lea    r12,[rdx+r12*4]
    1a3d:	4e 8d 04 82          	lea    r8,[rdx+r8*4]
    1a41:	0f 1f 80 00 00 00 00 	nop    DWORD PTR [rax+0x0]
    1a48:	f3 0f 10 04 83       	movss  xmm0,DWORD PTR [rbx+rax*4]
    1a4d:	f3 41 0f 11 44 85 00 	movss  DWORD PTR [r13+rax*4+0x0],xmm0
    1a54:	f3 41 0f 10 04 82    	movss  xmm0,DWORD PTR [r10+rax*4]
    1a5a:	f3 41 0f 11 04 81    	movss  DWORD PTR [r9+rax*4],xmm0
    1a60:	f3 41 0f 10 04 80    	movss  xmm0,DWORD PTR [r8+rax*4]
    1a66:	f3 41 0f 11 04 84    	movss  DWORD PTR [r12+rax*4],xmm0
    1a6c:	f3 41 0f 10 04 86    	movss  xmm0,DWORD PTR [r14+rax*4]
    1a72:	f3 0f 11 04 86       	movss  DWORD PTR [rsi+rax*4],xmm0
    1a77:	f3 0f 10 44 85 00    	movss  xmm0,DWORD PTR [rbp+rax*4+0x0]
    1a7d:	f3 0f 11 04 81       	movss  DWORD PTR [rcx+rax*4],xmm0
    1a82:	f3 0f 10 04 87       	movss  xmm0,DWORD PTR [rdi+rax*4]
    1a87:	f3 0f 11 04 82       	movss  DWORD PTR [rdx+rax*4],xmm0
    1a8c:	48 83 c0 01          	add    rax,0x1
    1a90:	41 39 c3             	cmp    r11d,eax
    1a93:	7f b3                	jg     1a48 <_ZN9simulator11setPBordersEv+0x148>
    1a95:	5b                   	pop    rbx
    1a96:	5d                   	pop    rbp
    1a97:	41 5c                	pop    r12
    1a99:	41 5d                	pop    r13
    1a9b:	41 5e                	pop    r14
    1a9d:	c3                   	ret    
    1a9e:	66 90                	xchg   ax,ax

0000000000001aa0 <_ZN9simulator14calcVelocitiesEii>:
    1aa0:	8b 8f ec 00 00 00    	mov    ecx,DWORD PTR [rdi+0xec]
    1aa6:	41 57                	push   r15
    1aa8:	41 56                	push   r14
    1aaa:	41 55                	push   r13
    1aac:	41 54                	push   r12
    1aae:	55                   	push   rbp
    1aaf:	0f af ce             	imul   ecx,esi
    1ab2:	4c 8b 8f e0 00 00 00 	mov    r9,QWORD PTR [rdi+0xe0]
    1ab9:	53                   	push   rbx
    1aba:	44 8b bf fc 00 00 00 	mov    r15d,DWORD PTR [rdi+0xfc]
    1ac1:	4c 8b 87 f0 00 00 00 	mov    r8,QWORD PTR [rdi+0xf0]
    1ac8:	44 8b 9f 0c 01 00 00 	mov    r11d,DWORD PTR [rdi+0x10c]
    1acf:	f3 0f 10 77 14       	movss  xmm6,DWORD PTR [rdi+0x14]
    1ad4:	89 cd                	mov    ebp,ecx
    1ad6:	2b af ec 00 00 00    	sub    ebp,DWORD PTR [rdi+0xec]
    1adc:	8d 04 0a             	lea    eax,[rdx+rcx*1]
    1adf:	0f 28 ce             	movaps xmm1,xmm6
    1ae2:	48 98                	cdqe   
    1ae4:	45 89 dd             	mov    r13d,r11d
    1ae7:	44 8d 5e 01          	lea    r11d,[rsi+0x1]
    1aeb:	4d 8d 34 81          	lea    r14,[r9+rax*4]
    1aef:	44 89 6c 24 f4       	mov    DWORD PTR [rsp-0xc],r13d
    1af4:	f3 0f 59 ce          	mulss  xmm1,xmm6
    1af8:	8d 04 2a             	lea    eax,[rdx+rbp*1]
    1afb:	f3 0f 10 6f 1c       	movss  xmm5,DWORD PTR [rdi+0x1c]
    1b00:	45 0f af dd          	imul   r11d,r13d
    1b04:	f3 41 0f 10 06       	movss  xmm0,DWORD PTR [r14]
    1b09:	48 98                	cdqe   
    1b0b:	0f 28 e0             	movaps xmm4,xmm0
    1b0e:	f3 45 0f 10 04 81    	movss  xmm8,DWORD PTR [r9+rax*4]
    1b14:	89 f0                	mov    eax,esi
    1b16:	41 0f af c7          	imul   eax,r15d
    1b1a:	46 8d 24 1a          	lea    r12d,[rdx+r11*1]
    1b1e:	f3 0f 58 e0          	addss  xmm4,xmm0
    1b22:	44 0f 28 cd          	movaps xmm9,xmm5
    1b26:	4d 63 e4             	movsxd r12,r12d
    1b29:	f3 0f 10 5f 18       	movss  xmm3,DWORD PTR [rdi+0x18]
    1b2e:	44 8d 14 02          	lea    r10d,[rdx+rax*1]
    1b32:	f3 44 0f 5e c9       	divss  xmm9,xmm1
    1b37:	44 0f 28 d5          	movaps xmm10,xmm5
    1b3b:	4d 63 d2             	movsxd r10,r10d
    1b3e:	4b 8d 1c 90          	lea    rbx,[r8+r10*4]
    1b42:	48 89 5c 24 f8       	mov    QWORD PTR [rsp-0x8],rbx
    1b47:	8d 5a ff             	lea    ebx,[rdx-0x1]
    1b4a:	44 8d 14 0b          	lea    r10d,[rbx+rcx*1]
    1b4e:	4d 63 d2             	movsxd r10,r10d
    1b51:	f3 43 0f 10 3c 91    	movss  xmm7,DWORD PTR [r9+r10*4]
    1b57:	4c 8b 97 00 01 00 00 	mov    r10,QWORD PTR [rdi+0x100]
    1b5e:	4f 8d 24 a2          	lea    r12,[r10+r12*4]
    1b62:	4c 89 64 24 e0       	mov    QWORD PTR [rsp-0x20],r12
    1b67:	45 89 ec             	mov    r12d,r13d
    1b6a:	44 8b af ec 00 00 00 	mov    r13d,DWORD PTR [rdi+0xec]
    1b71:	45 01 e4             	add    r12d,r12d
    1b74:	45 29 e3             	sub    r11d,r12d
    1b77:	44 89 5c 24 f0       	mov    DWORD PTR [rsp-0x10],r11d
    1b7c:	41 01 d3             	add    r11d,edx
    1b7f:	42 8d 6c 6d 00       	lea    ebp,[rbp+r13*2+0x0]
    1b84:	4d 63 db             	movsxd r11,r11d
    1b87:	4f 8d 24 9a          	lea    r12,[r10+r11*4]
    1b8b:	44 8d 5a 01          	lea    r11d,[rdx+0x1]
    1b8f:	01 d5                	add    ebp,edx
    1b91:	48 63 ed             	movsxd rbp,ebp
    1b94:	44 01 d9             	add    ecx,r11d
    1b97:	f3 41 0f 10 14 a9    	movss  xmm2,DWORD PTR [r9+rbp*4]
    1b9d:	48 63 c9             	movsxd rcx,ecx
    1ba0:	f3 0f 5c d4          	subss  xmm2,xmm4
    1ba4:	4c 89 64 24 e8       	mov    QWORD PTR [rsp-0x18],r12
    1ba9:	f3 41 0f 10 0c 89    	movss  xmm1,DWORD PTR [r9+rcx*4]
    1baf:	48 8b 4c 24 f8       	mov    rcx,QWORD PTR [rsp-0x8]
    1bb4:	f3 0f 5c cc          	subss  xmm1,xmm4
    1bb8:	0f 28 e3             	movaps xmm4,xmm3
    1bbb:	44 8b a7 1c 01 00 00 	mov    r12d,DWORD PTR [rdi+0x11c]
    1bc2:	f3 0f 59 e3          	mulss  xmm4,xmm3
    1bc6:	f3 41 0f 58 d0       	addss  xmm2,xmm8
    1bcb:	f3 0f 58 cf          	addss  xmm1,xmm7
    1bcf:	44 0f af e6          	imul   r12d,esi
    1bd3:	f3 44 0f 5e d4       	divss  xmm10,xmm4
    1bd8:	0f 28 e0             	movaps xmm4,xmm0
    1bdb:	f3 41 0f 5c e0       	subss  xmm4,xmm8
    1be0:	41 01 d4             	add    r12d,edx
    1be3:	4d 63 e4             	movsxd r12,r12d
    1be6:	f3 41 0f 59 d1       	mulss  xmm2,xmm9
    1beb:	f3 41 0f 59 ca       	mulss  xmm1,xmm10
    1bf0:	f3 0f 58 d1          	addss  xmm2,xmm1
    1bf4:	0f 28 cd             	movaps xmm1,xmm5
    1bf7:	f3 0f 5e ce          	divss  xmm1,xmm6
    1bfb:	f3 0f 59 57 0c       	mulss  xmm2,DWORD PTR [rdi+0xc]
    1c00:	f3 0f 59 c8          	mulss  xmm1,xmm0
    1c04:	f3 0f 59 cc          	mulss  xmm1,xmm4
    1c08:	0f 28 e0             	movaps xmm4,xmm0
    1c0b:	f3 0f 5c c7          	subss  xmm0,xmm7
    1c0f:	f3 0f 5c e1          	subss  xmm4,xmm1
    1c13:	0f 28 cc             	movaps xmm1,xmm4
    1c16:	0f 28 e5             	movaps xmm4,xmm5
    1c19:	f3 0f 5e e3          	divss  xmm4,xmm3
    1c1d:	0f 28 dc             	movaps xmm3,xmm4
    1c20:	f3 0f 59 19          	mulss  xmm3,DWORD PTR [rcx]
    1c24:	f3 0f 59 c3          	mulss  xmm0,xmm3
    1c28:	f3 0f 10 5f 10       	movss  xmm3,DWORD PTR [rdi+0x10]
    1c2d:	f3 0f 58 db          	addss  xmm3,xmm3
    1c31:	4c 8b 4c 24 e0       	mov    r9,QWORD PTR [rsp-0x20]
    1c36:	4c 8b 6c 24 e8       	mov    r13,QWORD PTR [rsp-0x18]
    1c3b:	48 8b af 10 01 00 00 	mov    rbp,QWORD PTR [rdi+0x110]
    1c42:	f3 0f 5c c8          	subss  xmm1,xmm0
    1c46:	f3 0f 59 de          	mulss  xmm3,xmm6
    1c4a:	f3 0f 5e eb          	divss  xmm5,xmm3
    1c4e:	f3 41 0f 10 19       	movss  xmm3,DWORD PTR [r9]
    1c53:	f3 41 0f 5c 5d 00    	subss  xmm3,DWORD PTR [r13+0x0]
    1c59:	0f 28 c5             	movaps xmm0,xmm5
    1c5c:	f3 0f 59 c3          	mulss  xmm0,xmm3
    1c60:	f3 0f 5c c8          	subss  xmm1,xmm0
    1c64:	f3 0f 58 d1          	addss  xmm2,xmm1
    1c68:	f3 42 0f 11 54 a5 00 	movss  DWORD PTR [rbp+r12*4+0x0],xmm2
    1c6f:	8b 6c 24 f0          	mov    ebp,DWORD PTR [rsp-0x10]
    1c73:	03 6c 24 f4          	add    ebp,DWORD PTR [rsp-0xc]
    1c77:	f3 0f 10 01          	movss  xmm0,DWORD PTR [rcx]
    1c7b:	89 c1                	mov    ecx,eax
    1c7d:	f3 44 0f 10 47 14    	movss  xmm8,DWORD PTR [rdi+0x14]
    1c83:	44 29 f9             	sub    ecx,r15d
    1c86:	41 0f 28 c8          	movaps xmm1,xmm8
    1c8a:	41 89 c9             	mov    r9d,ecx
    1c8d:	0f 28 e0             	movaps xmm4,xmm0
    1c90:	8d 0c 0a             	lea    ecx,[rdx+rcx*1]
    1c93:	47 8d 0c 79          	lea    r9d,[r9+r15*2]
    1c97:	f3 41 0f 59 c8       	mulss  xmm1,xmm8
    1c9c:	f3 0f 10 6f 1c       	movss  xmm5,DWORD PTR [rdi+0x1c]
    1ca1:	f3 0f 58 e0          	addss  xmm4,xmm0
    1ca5:	48 63 c9             	movsxd rcx,ecx
    1ca8:	f3 41 0f 10 1c 88    	movss  xmm3,DWORD PTR [r8+rcx*4]
    1cae:	41 01 d1             	add    r9d,edx
    1cb1:	8d 0c 03             	lea    ecx,[rbx+rax*1]
    1cb4:	44 0f 28 dd          	movaps xmm11,xmm5
    1cb8:	44 01 d8             	add    eax,r11d
    1cbb:	4d 63 c9             	movsxd r9,r9d
    1cbe:	01 eb                	add    ebx,ebp
    1cc0:	48 98                	cdqe   
    1cc2:	f3 0f 10 77 18       	movss  xmm6,DWORD PTR [rdi+0x18]
    1cc7:	f3 43 0f 10 14 88    	movss  xmm2,DWORD PTR [r8+r9*4]
    1ccd:	f3 44 0f 5e d9       	divss  xmm11,xmm1
    1cd2:	f3 41 0f 10 0c 80    	movss  xmm1,DWORD PTR [r8+rax*4]
    1cd8:	f3 0f 5c d4          	subss  xmm2,xmm4
    1cdc:	f3 0f 5c cc          	subss  xmm1,xmm4
    1ce0:	48 63 c9             	movsxd rcx,ecx
    1ce3:	48 63 db             	movsxd rbx,ebx
    1ce6:	0f 28 e6             	movaps xmm4,xmm6
    1ce9:	48 8b 87 30 01 00 00 	mov    rax,QWORD PTR [rdi+0x130]
    1cf0:	44 0f 28 e5          	movaps xmm12,xmm5
    1cf4:	f3 41 0f 10 3c 88    	movss  xmm7,DWORD PTR [r8+rcx*4]
    1cfa:	f3 0f 58 d3          	addss  xmm2,xmm3
    1cfe:	41 8d 0c 2b          	lea    ecx,[r11+rbp*1]
    1d02:	f3 0f 58 cf          	addss  xmm1,xmm7
    1d06:	48 8b af 20 01 00 00 	mov    rbp,QWORD PTR [rdi+0x120]
    1d0d:	48 63 c9             	movsxd rcx,ecx
    1d10:	49 8d 0c 8a          	lea    rcx,[r10+rcx*4]
    1d14:	4d 8d 14 9a          	lea    r10,[r10+rbx*4]
    1d18:	8b 9f 2c 01 00 00    	mov    ebx,DWORD PTR [rdi+0x12c]
    1d1e:	0f af de             	imul   ebx,esi
    1d21:	0f af b7 3c 01 00 00 	imul   esi,DWORD PTR [rdi+0x13c]
    1d28:	01 d3                	add    ebx,edx
    1d2a:	48 63 db             	movsxd rbx,ebx
    1d2d:	f3 0f 59 e6          	mulss  xmm4,xmm6
    1d31:	01 f2                	add    edx,esi
    1d33:	48 8b 74 24 e0       	mov    rsi,QWORD PTR [rsp-0x20]
    1d38:	48 63 d2             	movsxd rdx,edx
    1d3b:	f3 41 0f 59 d3       	mulss  xmm2,xmm11
    1d40:	f3 44 0f 5e e4       	divss  xmm12,xmm4
    1d45:	0f 28 e0             	movaps xmm4,xmm0
    1d48:	f3 0f 5c e3          	subss  xmm4,xmm3
    1d4c:	0f 28 dd             	movaps xmm3,xmm5
    1d4f:	f3 0f 5e de          	divss  xmm3,xmm6
    1d53:	f3 41 0f 59 cc       	mulss  xmm1,xmm12
    1d58:	f3 0f 59 d8          	mulss  xmm3,xmm0
    1d5c:	f3 0f 58 d1          	addss  xmm2,xmm1
    1d60:	0f 28 cd             	movaps xmm1,xmm5
    1d63:	f3 41 0f 5e c8       	divss  xmm1,xmm8
    1d68:	f3 0f 59 57 0c       	mulss  xmm2,DWORD PTR [rdi+0xc]
    1d6d:	f3 41 0f 59 0e       	mulss  xmm1,DWORD PTR [r14]
    1d72:	f3 0f 59 cc          	mulss  xmm1,xmm4
    1d76:	0f 28 e0             	movaps xmm4,xmm0
    1d79:	f3 0f 5c c7          	subss  xmm0,xmm7
    1d7d:	f3 0f 5c e1          	subss  xmm4,xmm1
    1d81:	f3 0f 59 c3          	mulss  xmm0,xmm3
    1d85:	f3 0f 10 5f 10       	movss  xmm3,DWORD PTR [rdi+0x10]
    1d8a:	f3 0f 58 db          	addss  xmm3,xmm3
    1d8e:	0f 28 cc             	movaps xmm1,xmm4
    1d91:	f3 0f 59 de          	mulss  xmm3,xmm6
    1d95:	f3 0f 5c c8          	subss  xmm1,xmm0
    1d99:	f3 0f 5e eb          	divss  xmm5,xmm3
    1d9d:	f3 0f 10 19          	movss  xmm3,DWORD PTR [rcx]
    1da1:	f3 41 0f 5c 1a       	subss  xmm3,DWORD PTR [r10]
    1da6:	0f 28 c5             	movaps xmm0,xmm5
    1da9:	f3 0f 59 c3          	mulss  xmm0,xmm3
    1dad:	f3 0f 5c c8          	subss  xmm1,xmm0
    1db1:	f3 0f 58 d1          	addss  xmm2,xmm1
    1db5:	f3 0f 11 54 9d 00    	movss  DWORD PTR [rbp+rbx*4+0x0],xmm2
    1dbb:	f3 41 0f 10 45 00    	movss  xmm0,DWORD PTR [r13+0x0]
    1dc1:	f3 0f 10 57 14       	movss  xmm2,DWORD PTR [rdi+0x14]
    1dc6:	f3 0f 10 4f 18       	movss  xmm1,DWORD PTR [rdi+0x18]
    1dcb:	0f 28 e2             	movaps xmm4,xmm2
    1dce:	f3 0f 10 7f 44       	movss  xmm7,DWORD PTR [rdi+0x44]
    1dd3:	f3 0f 10 77 7c       	movss  xmm6,DWORD PTR [rdi+0x7c]
    1dd8:	f3 0f 58 06          	addss  xmm0,DWORD PTR [rsi]
    1ddc:	f3 0f 59 e2          	mulss  xmm4,xmm2
    1de0:	0f 28 ef             	movaps xmm5,xmm7
    1de3:	f3 0f 59 ff          	mulss  xmm7,xmm7
    1de7:	f3 0f 58 ee          	addss  xmm5,xmm6
    1deb:	f3 0f 59 f6          	mulss  xmm6,xmm6
    1def:	f3 0f 59 c1          	mulss  xmm0,xmm1
    1df3:	0f 28 d8             	movaps xmm3,xmm0
    1df6:	f3 0f 10 01          	movss  xmm0,DWORD PTR [rcx]
    1dfa:	f3 41 0f 58 02       	addss  xmm0,DWORD PTR [r10]
    1dff:	f3 0f 59 d9          	mulss  xmm3,xmm1
    1e03:	f3 0f 59 c2          	mulss  xmm0,xmm2
    1e07:	f3 0f 59 c2          	mulss  xmm0,xmm2
    1e0b:	f3 0f 58 c3          	addss  xmm0,xmm3
    1e0f:	0f 28 d9             	movaps xmm3,xmm1
    1e12:	f3 0f 59 d9          	mulss  xmm3,xmm1
    1e16:	f3 0f 5a c0          	cvtss2sd xmm0,xmm0
    1e1a:	f3 0f 58 dc          	addss  xmm3,xmm4
    1e1e:	f2 0f 10 25 00 00 00 	movsd  xmm4,QWORD PTR [rip+0x0]        # 1e26 <_ZN9simulator14calcVelocitiesEii+0x386>
    1e25:	00 
    1e26:	f3 0f 58 db          	addss  xmm3,xmm3
    1e2a:	f3 0f 5a db          	cvtss2sd xmm3,xmm3
    1e2e:	f2 0f 5e e3          	divsd  xmm4,xmm3
    1e32:	f3 0f 10 1d 00 00 00 	movss  xmm3,DWORD PTR [rip+0x0]        # 1e3a <_ZN9simulator14calcVelocitiesEii+0x39a>
    1e39:	00 
    1e3a:	f3 0f 5e 5f 1c       	divss  xmm3,DWORD PTR [rdi+0x1c]
    1e3f:	f2 0f 59 e0          	mulsd  xmm4,xmm0
    1e43:	f3 0f 10 47 50       	movss  xmm0,DWORD PTR [rdi+0x50]
    1e48:	f3 0f 58 c0          	addss  xmm0,xmm0
    1e4c:	f3 0f 59 dd          	mulss  xmm3,xmm5
    1e50:	0f 28 ea             	movaps xmm5,xmm2
    1e53:	f3 0f 59 47 74       	mulss  xmm0,DWORD PTR [rdi+0x74]
    1e58:	f3 0f 58 ea          	addss  xmm5,xmm2
    1e5c:	f3 0f 5c df          	subss  xmm3,xmm7
    1e60:	66 0f ef ff          	pxor   xmm7,xmm7
    1e64:	f3 0f 5c d8          	subss  xmm3,xmm0
    1e68:	f3 0f 10 47 10       	movss  xmm0,DWORD PTR [rdi+0x10]
    1e6d:	f3 0f 59 c2          	mulss  xmm0,xmm2
    1e71:	f3 0f 5c de          	subss  xmm3,xmm6
    1e75:	f3 0f 59 c2          	mulss  xmm0,xmm2
    1e79:	f3 0f 59 d5          	mulss  xmm2,xmm5
    1e7d:	0f 28 e9             	movaps xmm5,xmm1
    1e80:	f3 0f 58 e9          	addss  xmm5,xmm1
    1e84:	f3 0f 59 c1          	mulss  xmm0,xmm1
    1e88:	f3 0f 59 c1          	mulss  xmm0,xmm1
    1e8c:	f3 0f 59 cd          	mulss  xmm1,xmm5
    1e90:	f3 0f 58 ca          	addss  xmm1,xmm2
    1e94:	f3 0f 5e c1          	divss  xmm0,xmm1
    1e98:	f3 0f 59 c3          	mulss  xmm0,xmm3
    1e9c:	f3 0f 5a c0          	cvtss2sd xmm0,xmm0
    1ea0:	f2 0f 5c e0          	subsd  xmm4,xmm0
    1ea4:	66 0f 28 c4          	movapd xmm0,xmm4
    1ea8:	f2 0f 5a f8          	cvtsd2ss xmm7,xmm0
    1eac:	f3 0f 11 3c 90       	movss  DWORD PTR [rax+rdx*4],xmm7
    1eb1:	5b                   	pop    rbx
    1eb2:	5d                   	pop    rbp
    1eb3:	41 5c                	pop    r12
    1eb5:	41 5d                	pop    r13
    1eb7:	41 5e                	pop    r14
    1eb9:	41 5f                	pop    r15
    1ebb:	c3                   	ret    
    1ebc:	0f 1f 40 00          	nop    DWORD PTR [rax+0x0]

0000000000001ec0 <_ZN9simulator9calcTermsEii>:
    1ec0:	44 8b 9f ec 00 00 00 	mov    r11d,DWORD PTR [rdi+0xec]
    1ec7:	83 c6 01             	add    esi,0x1
    1eca:	4c 8b 8f e0 00 00 00 	mov    r9,QWORD PTR [rdi+0xe0]
    1ed1:	89 f1                	mov    ecx,esi
    1ed3:	41 57                	push   r15
    1ed5:	41 56                	push   r14
    1ed7:	41 55                	push   r13
    1ed9:	41 54                	push   r12
    1edb:	44 8d 7a 01          	lea    r15d,[rdx+0x1]
    1edf:	41 0f af cb          	imul   ecx,r11d
    1ee3:	55                   	push   rbp
    1ee4:	53                   	push   rbx
    1ee5:	66 0f ef db          	pxor   xmm3,xmm3
    1ee9:	44 8b 97 1c 01 00 00 	mov    r10d,DWORD PTR [rdi+0x11c]
    1ef0:	f3 0f 10 4f 14       	movss  xmm1,DWORD PTR [rdi+0x14]
    1ef5:	4c 8b 87 10 01 00 00 	mov    r8,QWORD PTR [rdi+0x110]
    1efc:	8d 04 0a             	lea    eax,[rdx+rcx*1]
    1eff:	66 0f ef f6          	pxor   xmm6,xmm6
    1f03:	f3 0f 5a d9          	cvtss2sd xmm3,xmm1
    1f07:	66 0f ef ff          	pxor   xmm7,xmm7
    1f0b:	48 98                	cdqe   
    1f0d:	66 0f ef d2          	pxor   xmm2,xmm2
    1f11:	4d 8d 24 81          	lea    r12,[r9+rax*4]
    1f15:	43 8d 04 1b          	lea    eax,[r11+r11*1]
    1f19:	f2 0f 58 db          	addsd  xmm3,xmm3
    1f1d:	66 0f ef ed          	pxor   xmm5,xmm5
    1f21:	29 c1                	sub    ecx,eax
    1f23:	f3 41 0f 10 04 24    	movss  xmm0,DWORD PTR [r12]
    1f29:	8d 04 0a             	lea    eax,[rdx+rcx*1]
    1f2c:	44 01 d9             	add    ecx,r11d
    1f2f:	f3 0f 59 c9          	mulss  xmm1,xmm1
    1f33:	45 8d 1c 0f          	lea    r11d,[r15+rcx*1]
    1f37:	48 98                	cdqe   
    1f39:	4d 8d 34 81          	lea    r14,[r9+rax*4]
    1f3d:	89 f0                	mov    eax,esi
    1f3f:	4d 63 db             	movsxd r11,r11d
    1f42:	41 0f af c2          	imul   eax,r10d
    1f46:	4b 8d 2c 99          	lea    rbp,[r9+r11*4]
    1f4a:	f3 0f 5a c9          	cvtss2sd xmm1,xmm1
    1f4e:	f3 41 0f 5c 06       	subss  xmm0,DWORD PTR [r14]
    1f53:	8d 1c 02             	lea    ebx,[rdx+rax*1]
    1f56:	48 63 db             	movsxd rbx,ebx
    1f59:	4d 8d 2c 98          	lea    r13,[r8+rbx*4]
    1f5d:	43 8d 1c 12          	lea    ebx,[r10+r10*1]
    1f61:	f3 0f 5a c0          	cvtss2sd xmm0,xmm0
    1f65:	29 d8                	sub    eax,ebx
    1f67:	f2 0f 5e c3          	divsd  xmm0,xmm3
    1f6b:	8d 1c 02             	lea    ebx,[rdx+rax*1]
    1f6e:	44 01 d0             	add    eax,r10d
    1f71:	45 8d 14 07          	lea    r10d,[r15+rax*1]
    1f75:	48 63 db             	movsxd rbx,ebx
    1f78:	49 8d 1c 98          	lea    rbx,[r8+rbx*4]
    1f7c:	4d 63 d2             	movsxd r10,r10d
    1f7f:	48 89 5c 24 c0       	mov    QWORD PTR [rsp-0x40],rbx
    1f84:	f2 0f 5a f0          	cvtsd2ss xmm6,xmm0
    1f88:	f3 0f 11 77 44       	movss  DWORD PTR [rdi+0x44],xmm6
    1f8d:	66 0f ef f6          	pxor   xmm6,xmm6
    1f91:	f3 41 0f 10 45 00    	movss  xmm0,DWORD PTR [r13+0x0]
    1f97:	f3 0f 5c 03          	subss  xmm0,DWORD PTR [rbx]
    1f9b:	8d 5a ff             	lea    ebx,[rdx-0x1]
    1f9e:	44 8d 1c 0b          	lea    r11d,[rbx+rcx*1]
    1fa2:	89 5c 24 bc          	mov    DWORD PTR [rsp-0x44],ebx
    1fa6:	01 d1                	add    ecx,edx
    1fa8:	48 63 c9             	movsxd rcx,ecx
    1fab:	4d 63 db             	movsxd r11,r11d
    1fae:	49 8d 0c 89          	lea    rcx,[r9+rcx*4]
    1fb2:	4b 8d 1c 99          	lea    rbx,[r9+r11*4]
    1fb6:	4f 8d 1c 90          	lea    r11,[r8+r10*4]
    1fba:	44 8b 54 24 bc       	mov    r10d,DWORD PTR [rsp-0x44]
    1fbf:	f3 0f 5a c0          	cvtss2sd xmm0,xmm0
    1fc3:	41 89 f1             	mov    r9d,esi
    1fc6:	f2 0f 5e c3          	divsd  xmm0,xmm3
    1fca:	41 01 c2             	add    r10d,eax
    1fcd:	01 d0                	add    eax,edx
    1fcf:	4d 63 d2             	movsxd r10,r10d
    1fd2:	48 98                	cdqe   
    1fd4:	4f 8d 14 90          	lea    r10,[r8+r10*4]
    1fd8:	49 8d 04 80          	lea    rax,[r8+rax*4]
    1fdc:	f2 0f 5a f8          	cvtsd2ss xmm7,xmm0
    1fe0:	f3 0f 10 47 18       	movss  xmm0,DWORD PTR [rdi+0x18]
    1fe5:	f3 0f 5a d0          	cvtss2sd xmm2,xmm0
    1fe9:	f3 0f 59 c0          	mulss  xmm0,xmm0
    1fed:	f2 0f 58 d2          	addsd  xmm2,xmm2
    1ff1:	f3 0f 5a c0          	cvtss2sd xmm0,xmm0
    1ff5:	f3 0f 11 7f 48       	movss  DWORD PTR [rdi+0x48],xmm7
    1ffa:	66 0f ef ff          	pxor   xmm7,xmm7
    1ffe:	f3 0f 10 65 00       	movss  xmm4,DWORD PTR [rbp+0x0]
    2003:	f3 0f 5c 23          	subss  xmm4,DWORD PTR [rbx]
    2007:	f3 0f 5a e4          	cvtss2sd xmm4,xmm4
    200b:	f2 0f 5e e2          	divsd  xmm4,xmm2
    200f:	f2 0f 5a f4          	cvtsd2ss xmm6,xmm4
    2013:	f3 0f 11 77 50       	movss  DWORD PTR [rdi+0x50],xmm6
    2018:	66 0f ef f6          	pxor   xmm6,xmm6
    201c:	f3 41 0f 10 23       	movss  xmm4,DWORD PTR [r11]
    2021:	f3 41 0f 5c 22       	subss  xmm4,DWORD PTR [r10]
    2026:	f3 0f 5a e4          	cvtss2sd xmm4,xmm4
    202a:	f2 0f 5e e2          	divsd  xmm4,xmm2
    202e:	f2 0f 5a fc          	cvtsd2ss xmm7,xmm4
    2032:	66 0f ef e4          	pxor   xmm4,xmm4
    2036:	f3 0f 11 7f 4c       	movss  DWORD PTR [rdi+0x4c],xmm7
    203b:	66 0f ef ff          	pxor   xmm7,xmm7
    203f:	f3 0f 5a 29          	cvtss2sd xmm5,DWORD PTR [rcx]
    2043:	f3 41 0f 5a 24 24    	cvtss2sd xmm4,DWORD PTR [r12]
    2049:	41 89 f4             	mov    r12d,esi
    204c:	f2 0f 58 ed          	addsd  xmm5,xmm5
    2050:	f2 0f 5c e5          	subsd  xmm4,xmm5
    2054:	66 0f ef ed          	pxor   xmm5,xmm5
    2058:	f3 41 0f 5a 2e       	cvtss2sd xmm5,DWORD PTR [r14]
    205d:	f2 0f 58 e5          	addsd  xmm4,xmm5
    2061:	66 0f ef ed          	pxor   xmm5,xmm5
    2065:	f2 0f 5e e1          	divsd  xmm4,xmm1
    2069:	f2 0f 5a f4          	cvtsd2ss xmm6,xmm4
    206d:	66 0f ef e4          	pxor   xmm4,xmm4
    2071:	f3 0f 11 77 54       	movss  DWORD PTR [rdi+0x54],xmm6
    2076:	66 0f ef f6          	pxor   xmm6,xmm6
    207a:	f3 41 0f 5a 65 00    	cvtss2sd xmm4,DWORD PTR [r13+0x0]
    2080:	f3 0f 5a 28          	cvtss2sd xmm5,DWORD PTR [rax]
    2084:	4c 8b 74 24 c0       	mov    r14,QWORD PTR [rsp-0x40]
    2089:	f2 0f 58 ed          	addsd  xmm5,xmm5
    208d:	f2 0f 5c e5          	subsd  xmm4,xmm5
    2091:	66 0f ef ed          	pxor   xmm5,xmm5
    2095:	f3 41 0f 5a 2e       	cvtss2sd xmm5,DWORD PTR [r14]
    209a:	4c 8b b7 00 01 00 00 	mov    r14,QWORD PTR [rdi+0x100]
    20a1:	f2 0f 58 e5          	addsd  xmm4,xmm5
    20a5:	66 0f ef ed          	pxor   xmm5,xmm5
    20a9:	f2 0f 5e e1          	divsd  xmm4,xmm1
    20ad:	f2 0f 5a fc          	cvtsd2ss xmm7,xmm4
    20b1:	66 0f ef e4          	pxor   xmm4,xmm4
    20b5:	f3 0f 11 7f 58       	movss  DWORD PTR [rdi+0x58],xmm7
    20ba:	66 0f ef ff          	pxor   xmm7,xmm7
    20be:	f3 0f 5a 29          	cvtss2sd xmm5,DWORD PTR [rcx]
    20c2:	f3 0f 5a 65 00       	cvtss2sd xmm4,DWORD PTR [rbp+0x0]
    20c7:	f2 0f 58 ed          	addsd  xmm5,xmm5
    20cb:	f2 0f 5c e5          	subsd  xmm4,xmm5
    20cf:	66 0f ef ed          	pxor   xmm5,xmm5
    20d3:	f3 0f 5a 2b          	cvtss2sd xmm5,DWORD PTR [rbx]
    20d7:	48 8b 9f 30 01 00 00 	mov    rbx,QWORD PTR [rdi+0x130]
    20de:	f2 0f 58 e5          	addsd  xmm4,xmm5
    20e2:	66 0f ef ed          	pxor   xmm5,xmm5
    20e6:	f2 0f 5e e0          	divsd  xmm4,xmm0
    20ea:	f2 0f 5a f4          	cvtsd2ss xmm6,xmm4
    20ee:	66 0f ef e4          	pxor   xmm4,xmm4
    20f2:	f3 0f 11 77 5c       	movss  DWORD PTR [rdi+0x5c],xmm6
    20f7:	66 0f ef f6          	pxor   xmm6,xmm6
    20fb:	f3 0f 5a 28          	cvtss2sd xmm5,DWORD PTR [rax]
    20ff:	f3 41 0f 5a 23       	cvtss2sd xmm4,DWORD PTR [r11]
    2104:	f2 0f 58 ed          	addsd  xmm5,xmm5
    2108:	f2 0f 5c e5          	subsd  xmm4,xmm5
    210c:	66 0f ef ed          	pxor   xmm5,xmm5
    2110:	f3 41 0f 5a 2a       	cvtss2sd xmm5,DWORD PTR [r10]
    2115:	44 8b 97 0c 01 00 00 	mov    r10d,DWORD PTR [rdi+0x10c]
    211c:	f2 0f 58 e5          	addsd  xmm4,xmm5
    2120:	45 0f af ca          	imul   r9d,r10d
    2124:	f2 0f 5e e0          	divsd  xmm4,xmm0
    2128:	42 8d 04 0a          	lea    eax,[rdx+r9*1]
    212c:	48 98                	cdqe   
    212e:	49 8d 04 86          	lea    rax,[r14+rax*4]
    2132:	48 89 c1             	mov    rcx,rax
    2135:	43 8d 04 12          	lea    eax,[r10+r10*1]
    2139:	48 89 4c 24 f8       	mov    QWORD PTR [rsp-0x8],rcx
    213e:	41 29 c1             	sub    r9d,eax
    2141:	42 8d 04 0a          	lea    eax,[rdx+r9*1]
    2145:	48 98                	cdqe   
    2147:	49 8d 04 86          	lea    rax,[r14+rax*4]
    214b:	49 89 c0             	mov    r8,rax
    214e:	4c 89 44 24 f0       	mov    QWORD PTR [rsp-0x10],r8
    2153:	f2 0f 5a fc          	cvtsd2ss xmm7,xmm4
    2157:	f3 0f 11 7f 60       	movss  DWORD PTR [rdi+0x60],xmm7
    215c:	66 0f ef ff          	pxor   xmm7,xmm7
    2160:	f3 0f 10 21          	movss  xmm4,DWORD PTR [rcx]
    2164:	f3 41 0f 5c 20       	subss  xmm4,DWORD PTR [r8]
    2169:	8b 8f 3c 01 00 00    	mov    ecx,DWORD PTR [rdi+0x13c]
    216f:	41 89 f0             	mov    r8d,esi
    2172:	44 0f af c1          	imul   r8d,ecx
    2176:	f3 0f 5a e4          	cvtss2sd xmm4,xmm4
    217a:	44 89 c0             	mov    eax,r8d
    217d:	44 8d 04 09          	lea    r8d,[rcx+rcx*1]
    2181:	41 89 c3             	mov    r11d,eax
    2184:	01 d0                	add    eax,edx
    2186:	f2 0f 5e e3          	divsd  xmm4,xmm3
    218a:	45 29 c3             	sub    r11d,r8d
    218d:	48 98                	cdqe   
    218f:	45 89 d8             	mov    r8d,r11d
    2192:	46 8d 1c 1a          	lea    r11d,[rdx+r11*1]
    2196:	44 01 c1             	add    ecx,r8d
    2199:	4d 63 db             	movsxd r11,r11d
    219c:	89 4c 24 e0          	mov    DWORD PTR [rsp-0x20],ecx
    21a0:	f2 0f 5a f4          	cvtsd2ss xmm6,xmm4
    21a4:	f3 0f 11 77 64       	movss  DWORD PTR [rdi+0x64],xmm6
    21a9:	66 0f ef f6          	pxor   xmm6,xmm6
    21ad:	f3 0f 10 24 83       	movss  xmm4,DWORD PTR [rbx+rax*4]
    21b2:	43 8d 04 11          	lea    eax,[r9+r10*1]
    21b6:	f3 42 0f 5c 24 9b    	subss  xmm4,DWORD PTR [rbx+r11*4]
    21bc:	44 8b 54 24 bc       	mov    r10d,DWORD PTR [rsp-0x44]
    21c1:	41 89 c3             	mov    r11d,eax
    21c4:	44 01 f8             	add    eax,r15d
    21c7:	48 98                	cdqe   
    21c9:	44 89 5c 24 e4       	mov    DWORD PTR [rsp-0x1c],r11d
    21ce:	4d 8d 0c 86          	lea    r9,[r14+rax*4]
    21d2:	44 89 d0             	mov    eax,r10d
    21d5:	44 01 d8             	add    eax,r11d
    21d8:	48 98                	cdqe   
    21da:	4c 89 4c 24 e8       	mov    QWORD PTR [rsp-0x18],r9
    21df:	f3 0f 5a e4          	cvtss2sd xmm4,xmm4
    21e3:	49 8d 2c 86          	lea    rbp,[r14+rax*4]
    21e7:	41 8d 04 0f          	lea    eax,[r15+rcx*1]
    21eb:	f2 0f 5e e3          	divsd  xmm4,xmm3
    21ef:	48 98                	cdqe   
    21f1:	48 89 6c 24 d8       	mov    QWORD PTR [rsp-0x28],rbp
    21f6:	f2 0f 5a fc          	cvtsd2ss xmm7,xmm4
    21fa:	f3 0f 11 7f 68       	movss  DWORD PTR [rdi+0x68],xmm7
    21ff:	66 0f ef ff          	pxor   xmm7,xmm7
    2203:	f3 41 0f 10 21       	movss  xmm4,DWORD PTR [r9]
    2208:	f3 0f 5c 65 00       	subss  xmm4,DWORD PTR [rbp+0x0]
    220d:	48 8d 2c 83          	lea    rbp,[rbx+rax*4]
    2211:	44 89 d0             	mov    eax,r10d
    2214:	01 c8                	add    eax,ecx
    2216:	48 98                	cdqe   
    2218:	4c 8d 04 83          	lea    r8,[rbx+rax*4]
    221c:	f3 0f 5a e4          	cvtss2sd xmm4,xmm4
    2220:	f2 0f 5e e2          	divsd  xmm4,xmm2
    2224:	f2 0f 5a f4          	cvtsd2ss xmm6,xmm4
    2228:	f3 0f 11 77 6c       	movss  DWORD PTR [rdi+0x6c],xmm6
    222d:	66 0f ef f6          	pxor   xmm6,xmm6
    2231:	f3 0f 10 65 00       	movss  xmm4,DWORD PTR [rbp+0x0]
    2236:	f3 41 0f 5c 20       	subss  xmm4,DWORD PTR [r8]
    223b:	44 8b 9f fc 00 00 00 	mov    r11d,DWORD PTR [rdi+0xfc]
    2242:	4c 89 44 24 d0       	mov    QWORD PTR [rsp-0x30],r8
    2247:	4c 8b 87 f0 00 00 00 	mov    r8,QWORD PTR [rdi+0xf0]
    224e:	44 8b 8f 2c 01 00 00 	mov    r9d,DWORD PTR [rdi+0x12c]
    2255:	45 0f af e3          	imul   r12d,r11d
    2259:	f3 0f 5a e4          	cvtss2sd xmm4,xmm4
    225d:	42 8d 0c 22          	lea    ecx,[rdx+r12*1]
    2261:	44 89 e0             	mov    eax,r12d
    2264:	41 0f af f1          	imul   esi,r9d
    2268:	f2 0f 5e e2          	divsd  xmm4,xmm2
    226c:	48 63 c9             	movsxd rcx,ecx
    226f:	4d 8d 24 88          	lea    r12,[r8+rcx*4]
    2273:	43 8d 0c 1b          	lea    ecx,[r11+r11*1]
    2277:	44 8d 14 32          	lea    r10d,[rdx+rsi*1]
    227b:	29 c8                	sub    eax,ecx
    227d:	8d 0c 02             	lea    ecx,[rdx+rax*1]
    2280:	4d 63 d2             	movsxd r10,r10d
    2283:	44 01 d8             	add    eax,r11d
    2286:	48 63 c9             	movsxd rcx,ecx
    2289:	4d 8d 2c 88          	lea    r13,[r8+rcx*4]
    228d:	48 8b 8f 20 01 00 00 	mov    rcx,QWORD PTR [rdi+0x120]
    2294:	4c 89 6c 24 c8       	mov    QWORD PTR [rsp-0x38],r13
    2299:	f2 0f 5a fc          	cvtsd2ss xmm7,xmm4
    229d:	f3 0f 11 7f 70       	movss  DWORD PTR [rdi+0x70],xmm7
    22a2:	66 0f ef ff          	pxor   xmm7,xmm7
    22a6:	f3 41 0f 10 24 24    	movss  xmm4,DWORD PTR [r12]
    22ac:	f3 41 0f 5c 65 00    	subss  xmm4,DWORD PTR [r13+0x0]
    22b2:	4e 8d 2c 91          	lea    r13,[rcx+r10*4]
    22b6:	47 8d 14 09          	lea    r10d,[r9+r9*1]
    22ba:	44 29 d6             	sub    esi,r10d
    22bd:	44 8d 14 32          	lea    r10d,[rdx+rsi*1]
    22c1:	44 01 ce             	add    esi,r9d
    22c4:	45 8d 0c 37          	lea    r9d,[r15+rsi*1]
    22c8:	4d 63 d2             	movsxd r10,r10d
    22cb:	f3 0f 5a e4          	cvtss2sd xmm4,xmm4
    22cf:	4e 8d 14 91          	lea    r10,[rcx+r10*4]
    22d3:	4d 63 c9             	movsxd r9,r9d
    22d6:	f2 0f 5e e3          	divsd  xmm4,xmm3
    22da:	4c 89 54 24 c0       	mov    QWORD PTR [rsp-0x40],r10
    22df:	f2 0f 5a f4          	cvtsd2ss xmm6,xmm4
    22e3:	f3 0f 11 77 74       	movss  DWORD PTR [rdi+0x74],xmm6
    22e8:	66 0f ef f6          	pxor   xmm6,xmm6
    22ec:	f3 41 0f 10 65 00    	movss  xmm4,DWORD PTR [r13+0x0]
    22f2:	f3 41 0f 5c 22       	subss  xmm4,DWORD PTR [r10]
    22f7:	45 8d 14 07          	lea    r10d,[r15+rax*1]
    22fb:	4e 8d 3c 89          	lea    r15,[rcx+r9*4]
    22ff:	44 8b 4c 24 bc       	mov    r9d,DWORD PTR [rsp-0x44]
    2304:	4d 63 d2             	movsxd r10,r10d
    2307:	4f 8d 1c 90          	lea    r11,[r8+r10*4]
    230b:	44 8b 54 24 bc       	mov    r10d,DWORD PTR [rsp-0x44]
    2310:	41 01 f1             	add    r9d,esi
    2313:	01 d6                	add    esi,edx
    2315:	4d 63 c9             	movsxd r9,r9d
    2318:	48 63 f6             	movsxd rsi,esi
    231b:	f3 0f 5a e4          	cvtss2sd xmm4,xmm4
    231f:	41 01 c2             	add    r10d,eax
    2322:	4e 8d 0c 89          	lea    r9,[rcx+r9*4]
    2326:	4d 63 d2             	movsxd r10,r10d
    2329:	01 d0                	add    eax,edx
    232b:	48 8d 0c b1          	lea    rcx,[rcx+rsi*4]
    232f:	f2 0f 5e e3          	divsd  xmm4,xmm3
    2333:	4f 8d 14 90          	lea    r10,[r8+r10*4]
    2337:	48 98                	cdqe   
    2339:	49 8d 04 80          	lea    rax,[r8+rax*4]
    233d:	66 0f 28 dc          	movapd xmm3,xmm4
    2341:	f2 0f 5a fb          	cvtsd2ss xmm7,xmm3
    2345:	f3 0f 11 7f 78       	movss  DWORD PTR [rdi+0x78],xmm7
    234a:	66 0f ef ff          	pxor   xmm7,xmm7
    234e:	f3 41 0f 10 1b       	movss  xmm3,DWORD PTR [r11]
    2353:	f3 41 0f 5c 1a       	subss  xmm3,DWORD PTR [r10]
    2358:	f3 0f 5a db          	cvtss2sd xmm3,xmm3
    235c:	f2 0f 5e da          	divsd  xmm3,xmm2
    2360:	f2 0f 5a f3          	cvtsd2ss xmm6,xmm3
    2364:	f3 0f 11 77 7c       	movss  DWORD PTR [rdi+0x7c],xmm6
    2369:	66 0f ef f6          	pxor   xmm6,xmm6
    236d:	f3 41 0f 10 1f       	movss  xmm3,DWORD PTR [r15]
    2372:	f3 41 0f 5c 19       	subss  xmm3,DWORD PTR [r9]
    2377:	f3 0f 5a db          	cvtss2sd xmm3,xmm3
    237b:	f2 0f 5e da          	divsd  xmm3,xmm2
    237f:	66 0f 28 d3          	movapd xmm2,xmm3
    2383:	66 0f ef db          	pxor   xmm3,xmm3
    2387:	f2 0f 5a fa          	cvtsd2ss xmm7,xmm2
    238b:	66 0f ef d2          	pxor   xmm2,xmm2
    238f:	f3 0f 11 bf 80 00 00 	movss  DWORD PTR [rdi+0x80],xmm7
    2396:	00 
    2397:	66 0f ef ff          	pxor   xmm7,xmm7
    239b:	f3 0f 5a 18          	cvtss2sd xmm3,DWORD PTR [rax]
    239f:	f3 41 0f 5a 14 24    	cvtss2sd xmm2,DWORD PTR [r12]
    23a5:	4c 8b 64 24 c8       	mov    r12,QWORD PTR [rsp-0x38]
    23aa:	f2 0f 58 db          	addsd  xmm3,xmm3
    23ae:	f2 0f 5c d3          	subsd  xmm2,xmm3
    23b2:	66 0f ef db          	pxor   xmm3,xmm3
    23b6:	f3 41 0f 5a 1c 24    	cvtss2sd xmm3,DWORD PTR [r12]
    23bc:	4c 8b 64 24 c0       	mov    r12,QWORD PTR [rsp-0x40]
    23c1:	f2 0f 58 d3          	addsd  xmm2,xmm3
    23c5:	66 0f ef db          	pxor   xmm3,xmm3
    23c9:	f2 0f 5e d1          	divsd  xmm2,xmm1
    23cd:	f2 0f 5a f2          	cvtsd2ss xmm6,xmm2
    23d1:	66 0f ef d2          	pxor   xmm2,xmm2
    23d5:	f3 0f 11 b7 84 00 00 	movss  DWORD PTR [rdi+0x84],xmm6
    23dc:	00 
    23dd:	66 0f ef f6          	pxor   xmm6,xmm6
    23e1:	f3 0f 5a 19          	cvtss2sd xmm3,DWORD PTR [rcx]
    23e5:	f3 41 0f 5a 55 00    	cvtss2sd xmm2,DWORD PTR [r13+0x0]
    23eb:	f2 0f 58 db          	addsd  xmm3,xmm3
    23ef:	f2 0f 5c d3          	subsd  xmm2,xmm3
    23f3:	66 0f ef db          	pxor   xmm3,xmm3
    23f7:	f3 41 0f 5a 1c 24    	cvtss2sd xmm3,DWORD PTR [r12]
    23fd:	48 8b 74 24 f8       	mov    rsi,QWORD PTR [rsp-0x8]
    2402:	4c 8b 44 24 d0       	mov    r8,QWORD PTR [rsp-0x30]
    2407:	f2 0f 58 d3          	addsd  xmm2,xmm3
    240b:	66 0f ef db          	pxor   xmm3,xmm3
    240f:	f2 0f 5e d1          	divsd  xmm2,xmm1
    2413:	f2 0f 5a fa          	cvtsd2ss xmm7,xmm2
    2417:	66 0f ef d2          	pxor   xmm2,xmm2
    241b:	f3 0f 11 bf 88 00 00 	movss  DWORD PTR [rdi+0x88],xmm7
    2422:	00 
    2423:	66 0f ef ff          	pxor   xmm7,xmm7
    2427:	f3 0f 5a 18          	cvtss2sd xmm3,DWORD PTR [rax]
    242b:	f3 41 0f 5a 13       	cvtss2sd xmm2,DWORD PTR [r11]
    2430:	44 8b 5c 24 e4       	mov    r11d,DWORD PTR [rsp-0x1c]
    2435:	f2 0f 58 db          	addsd  xmm3,xmm3
    2439:	42 8d 04 1a          	lea    eax,[rdx+r11*1]
    243d:	03 54 24 e0          	add    edx,DWORD PTR [rsp-0x20]
    2441:	f2 0f 5c d3          	subsd  xmm2,xmm3
    2445:	66 0f ef db          	pxor   xmm3,xmm3
    2449:	48 98                	cdqe   
    244b:	49 8d 04 86          	lea    rax,[r14+rax*4]
    244f:	48 63 d2             	movsxd rdx,edx
    2452:	f3 41 0f 5a 1a       	cvtss2sd xmm3,DWORD PTR [r10]
    2457:	f2 0f 58 d3          	addsd  xmm2,xmm3
    245b:	66 0f ef db          	pxor   xmm3,xmm3
    245f:	f2 0f 5e d0          	divsd  xmm2,xmm0
    2463:	f2 0f 5a f2          	cvtsd2ss xmm6,xmm2
    2467:	66 0f ef d2          	pxor   xmm2,xmm2
    246b:	f3 0f 11 b7 8c 00 00 	movss  DWORD PTR [rdi+0x8c],xmm6
    2472:	00 
    2473:	66 0f ef f6          	pxor   xmm6,xmm6
    2477:	f3 0f 5a 19          	cvtss2sd xmm3,DWORD PTR [rcx]
    247b:	f3 41 0f 5a 17       	cvtss2sd xmm2,DWORD PTR [r15]
    2480:	f2 0f 58 db          	addsd  xmm3,xmm3
    2484:	f2 0f 5c d3          	subsd  xmm2,xmm3
    2488:	66 0f ef db          	pxor   xmm3,xmm3
    248c:	f3 41 0f 5a 19       	cvtss2sd xmm3,DWORD PTR [r9]
    2491:	4c 8b 4c 24 e8       	mov    r9,QWORD PTR [rsp-0x18]
    2496:	f2 0f 58 d3          	addsd  xmm2,xmm3
    249a:	66 0f ef db          	pxor   xmm3,xmm3
    249e:	f2 0f 5e d0          	divsd  xmm2,xmm0
    24a2:	f2 0f 5a fa          	cvtsd2ss xmm7,xmm2
    24a6:	66 0f ef d2          	pxor   xmm2,xmm2
    24aa:	f3 0f 11 bf 90 00 00 	movss  DWORD PTR [rdi+0x90],xmm7
    24b1:	00 
    24b2:	66 0f ef ff          	pxor   xmm7,xmm7
    24b6:	f3 0f 5a 18          	cvtss2sd xmm3,DWORD PTR [rax]
    24ba:	f3 0f 5a 16          	cvtss2sd xmm2,DWORD PTR [rsi]
    24be:	48 8b 74 24 f0       	mov    rsi,QWORD PTR [rsp-0x10]
    24c3:	f2 0f 58 db          	addsd  xmm3,xmm3
    24c7:	f2 0f 5c d3          	subsd  xmm2,xmm3
    24cb:	66 0f ef db          	pxor   xmm3,xmm3
    24cf:	f3 0f 5a 1e          	cvtss2sd xmm3,DWORD PTR [rsi]
    24d3:	f2 0f 58 d3          	addsd  xmm2,xmm3
    24d7:	f2 0f 5e d1          	divsd  xmm2,xmm1
    24db:	66 0f 28 ca          	movapd xmm1,xmm2
    24df:	66 0f ef d2          	pxor   xmm2,xmm2
    24e3:	f2 0f 5a f1          	cvtsd2ss xmm6,xmm1
    24e7:	66 0f ef c9          	pxor   xmm1,xmm1
    24eb:	f3 0f 11 b7 94 00 00 	movss  DWORD PTR [rdi+0x94],xmm6
    24f2:	00 
    24f3:	66 0f ef f6          	pxor   xmm6,xmm6
    24f7:	f3 0f 5a 10          	cvtss2sd xmm2,DWORD PTR [rax]
    24fb:	48 8b 44 24 d8       	mov    rax,QWORD PTR [rsp-0x28]
    2500:	f3 41 0f 5a 09       	cvtss2sd xmm1,DWORD PTR [r9]
    2505:	f2 0f 58 d2          	addsd  xmm2,xmm2
    2509:	f2 0f 5c ca          	subsd  xmm1,xmm2
    250d:	66 0f ef d2          	pxor   xmm2,xmm2
    2511:	f3 0f 5a 10          	cvtss2sd xmm2,DWORD PTR [rax]
    2515:	f2 0f 58 ca          	addsd  xmm1,xmm2
    2519:	66 0f ef d2          	pxor   xmm2,xmm2
    251d:	f2 0f 5e c8          	divsd  xmm1,xmm0
    2521:	f2 0f 5a f9          	cvtsd2ss xmm7,xmm1
    2525:	66 0f ef c9          	pxor   xmm1,xmm1
    2529:	f3 0f 11 bf 98 00 00 	movss  DWORD PTR [rdi+0x98],xmm7
    2530:	00 
    2531:	f3 0f 5a 14 93       	cvtss2sd xmm2,DWORD PTR [rbx+rdx*4]
    2536:	f3 0f 5a 4d 00       	cvtss2sd xmm1,DWORD PTR [rbp+0x0]
    253b:	f2 0f 58 d2          	addsd  xmm2,xmm2
    253f:	5b                   	pop    rbx
    2540:	5d                   	pop    rbp
    2541:	41 5c                	pop    r12
    2543:	f2 0f 5c ca          	subsd  xmm1,xmm2
    2547:	66 0f ef d2          	pxor   xmm2,xmm2
    254b:	f3 41 0f 5a 10       	cvtss2sd xmm2,DWORD PTR [r8]
    2550:	f2 0f 58 ca          	addsd  xmm1,xmm2
    2554:	f2 0f 5e c8          	divsd  xmm1,xmm0
    2558:	66 0f 28 c1          	movapd xmm0,xmm1
    255c:	f2 0f 5a f0          	cvtsd2ss xmm6,xmm0
    2560:	f3 0f 11 b7 9c 00 00 	movss  DWORD PTR [rdi+0x9c],xmm6
    2567:	00 
    2568:	41 5d                	pop    r13
    256a:	41 5e                	pop    r14
    256c:	41 5f                	pop    r15
    256e:	c3                   	ret    
    256f:	90                   	nop

0000000000002570 <_ZN9simulator7processEv>:
    2570:	41 57                	push   r15
    2572:	41 56                	push   r14
    2574:	41 55                	push   r13
    2576:	41 54                	push   r12
    2578:	55                   	push   rbp
    2579:	53                   	push   rbx
    257a:	66 0f ef c0          	pxor   xmm0,xmm0
    257e:	48 83 ec 38          	sub    rsp,0x38
    2582:	f3 0f 10 4f 08       	movss  xmm1,DWORD PTR [rdi+0x8]
    2587:	0f 2e c8             	ucomiss xmm1,xmm0
    258a:	f3 0f 11 87 a8 00 00 	movss  DWORD PTR [rdi+0xa8],xmm0
    2591:	00 
    2592:	0f 86 76 01 00 00    	jbe    270e <_ZN9simulator7processEv+0x19e>
    2598:	f3 0f 5e c1          	divss  xmm0,xmm1
    259c:	83 47 30 01          	add    DWORD PTR [rdi+0x30],0x1
    25a0:	48 89 fd             	mov    rbp,rdi
    25a3:	0f 2e 87 ac 00 00 00 	ucomiss xmm0,DWORD PTR [rdi+0xac]
    25aa:	0f 87 4f 01 00 00    	ja     26ff <_ZN9simulator7processEv+0x18f>
    25b0:	48 8d 87 b0 00 00 00 	lea    rax,[rdi+0xb0]
    25b7:	4c 8d bf e0 00 00 00 	lea    r15,[rdi+0xe0]
    25be:	4c 8d b7 f0 00 00 00 	lea    r14,[rdi+0xf0]
    25c5:	4c 8d af 00 01 00 00 	lea    r13,[rdi+0x100]
    25cc:	48 89 44 24 08       	mov    QWORD PTR [rsp+0x8],rax
    25d1:	48 8d 87 10 01 00 00 	lea    rax,[rdi+0x110]
    25d8:	48 89 04 24          	mov    QWORD PTR [rsp],rax
    25dc:	48 8d 87 c0 00 00 00 	lea    rax,[rdi+0xc0]
    25e3:	48 89 44 24 18       	mov    QWORD PTR [rsp+0x18],rax
    25e8:	48 8d 87 20 01 00 00 	lea    rax,[rdi+0x120]
    25ef:	48 89 44 24 10       	mov    QWORD PTR [rsp+0x10],rax
    25f4:	48 8d 87 d0 00 00 00 	lea    rax,[rdi+0xd0]
    25fb:	48 89 44 24 20       	mov    QWORD PTR [rsp+0x20],rax
    2600:	48 8d 87 30 01 00 00 	lea    rax,[rdi+0x130]
    2607:	48 89 44 24 28       	mov    QWORD PTR [rsp+0x28],rax
    260c:	48 89 ef             	mov    rdi,rbp
    260f:	41 bc 01 00 00 00    	mov    r12d,0x1
    2615:	e8 00 00 00 00       	call   261a <_ZN9simulator7processEv+0xaa>
    261a:	48 89 ef             	mov    rdi,rbp
    261d:	e8 00 00 00 00       	call   2622 <_ZN9simulator7processEv+0xb2>
    2622:	83 7d 24 02          	cmp    DWORD PTR [rbp+0x24],0x2
    2626:	7e 4e                	jle    2676 <_ZN9simulator7processEv+0x106>
    2628:	0f 1f 84 00 00 00 00 	nop    DWORD PTR [rax+rax*1+0x0]
    262f:	00 
    2630:	83 7d 28 02          	cmp    DWORD PTR [rbp+0x28],0x2
    2634:	bb 01 00 00 00       	mov    ebx,0x1
    2639:	7e 2c                	jle    2667 <_ZN9simulator7processEv+0xf7>
    263b:	0f 1f 44 00 00       	nop    DWORD PTR [rax+rax*1+0x0]
    2640:	89 da                	mov    edx,ebx
    2642:	44 89 e6             	mov    esi,r12d
    2645:	48 89 ef             	mov    rdi,rbp
    2648:	e8 00 00 00 00       	call   264d <_ZN9simulator7processEv+0xdd>
    264d:	89 da                	mov    edx,ebx
    264f:	44 89 e6             	mov    esi,r12d
    2652:	48 89 ef             	mov    rdi,rbp
    2655:	e8 00 00 00 00       	call   265a <_ZN9simulator7processEv+0xea>
    265a:	8b 45 28             	mov    eax,DWORD PTR [rbp+0x28]
    265d:	83 c3 01             	add    ebx,0x1
    2660:	83 e8 01             	sub    eax,0x1
    2663:	39 d8                	cmp    eax,ebx
    2665:	7f d9                	jg     2640 <_ZN9simulator7processEv+0xd0>
    2667:	8b 45 24             	mov    eax,DWORD PTR [rbp+0x24]
    266a:	41 83 c4 01          	add    r12d,0x1
    266e:	83 e8 01             	sub    eax,0x1
    2671:	44 39 e0             	cmp    eax,r12d
    2674:	7f ba                	jg     2630 <_ZN9simulator7processEv+0xc0>
    2676:	48 8b 7c 24 08       	mov    rdi,QWORD PTR [rsp+0x8]
    267b:	4c 89 fe             	mov    rsi,r15
    267e:	e8 00 00 00 00       	call   2683 <_ZN9simulator7processEv+0x113>
    2683:	48 8b 34 24          	mov    rsi,QWORD PTR [rsp]
    2687:	4c 89 ff             	mov    rdi,r15
    268a:	e8 00 00 00 00       	call   268f <_ZN9simulator7processEv+0x11f>
    268f:	48 8b 7c 24 18       	mov    rdi,QWORD PTR [rsp+0x18]
    2694:	4c 89 f6             	mov    rsi,r14
    2697:	e8 00 00 00 00       	call   269c <_ZN9simulator7processEv+0x12c>
    269c:	48 8b 74 24 10       	mov    rsi,QWORD PTR [rsp+0x10]
    26a1:	4c 89 f7             	mov    rdi,r14
    26a4:	e8 00 00 00 00       	call   26a9 <_ZN9simulator7processEv+0x139>
    26a9:	48 8b 7c 24 20       	mov    rdi,QWORD PTR [rsp+0x20]
    26ae:	4c 89 ee             	mov    rsi,r13
    26b1:	e8 00 00 00 00       	call   26b6 <_ZN9simulator7processEv+0x146>
    26b6:	48 8b 74 24 28       	mov    rsi,QWORD PTR [rsp+0x28]
    26bb:	4c 89 ef             	mov    rdi,r13
    26be:	e8 00 00 00 00       	call   26c3 <_ZN9simulator7processEv+0x153>
    26c3:	f3 0f 10 85 a8 00 00 	movss  xmm0,DWORD PTR [rbp+0xa8]
    26ca:	00 
    26cb:	f3 0f 58 45 1c       	addss  xmm0,DWORD PTR [rbp+0x1c]
    26d0:	f3 0f 10 4d 08       	movss  xmm1,DWORD PTR [rbp+0x8]
    26d5:	0f 2e c8             	ucomiss xmm1,xmm0
    26d8:	f3 0f 11 85 a8 00 00 	movss  DWORD PTR [rbp+0xa8],xmm0
    26df:	00 
    26e0:	76 2c                	jbe    270e <_ZN9simulator7processEv+0x19e>
    26e2:	f3 0f 59 05 00 00 00 	mulss  xmm0,DWORD PTR [rip+0x0]        # 26ea <_ZN9simulator7processEv+0x17a>
    26e9:	00 
    26ea:	83 45 30 01          	add    DWORD PTR [rbp+0x30],0x1
    26ee:	f3 0f 5e c1          	divss  xmm0,xmm1
    26f2:	0f 2e 85 ac 00 00 00 	ucomiss xmm0,DWORD PTR [rbp+0xac]
    26f9:	0f 86 0d ff ff ff    	jbe    260c <_ZN9simulator7processEv+0x9c>
    26ff:	48 83 c4 38          	add    rsp,0x38
    2703:	5b                   	pop    rbx
    2704:	5d                   	pop    rbp
    2705:	41 5c                	pop    r12
    2707:	41 5d                	pop    r13
    2709:	41 5e                	pop    r14
    270b:	41 5f                	pop    r15
    270d:	c3                   	ret    
    270e:	be 64 00 00 00       	mov    esi,0x64
    2713:	bf 00 00 00 00       	mov    edi,0x0
    2718:	e8 00 00 00 00       	call   271d <_ZN9simulator7processEv+0x1ad>
    271d:	48 83 c4 38          	add    rsp,0x38
    2721:	ba 03 00 00 00       	mov    edx,0x3
    2726:	be 00 00 00 00       	mov    esi,0x0
    272b:	5b                   	pop    rbx
    272c:	5d                   	pop    rbp
    272d:	41 5c                	pop    r12
    272f:	41 5d                	pop    r13
    2731:	41 5e                	pop    r14
    2733:	41 5f                	pop    r15
    2735:	48 89 c7             	mov    rdi,rax
    2738:	e9 00 00 00 00       	jmp    273d <_ZN9simulator7processEv+0x1cd>
    273d:	90                   	nop
    273e:	66 90                	xchg   ax,ax

0000000000002740 <_ZN9simulator12centralSpeedEv>:
    2740:	8b 57 24             	mov    edx,DWORD PTR [rdi+0x24]
    2743:	f3 0f 10 2d 00 00 00 	movss  xmm5,DWORD PTR [rip+0x0]        # 274b <_ZN9simulator12centralSpeedEv+0xb>
    274a:	00 
    274b:	f3 0f 10 25 00 00 00 	movss  xmm4,DWORD PTR [rip+0x0]        # 2753 <_ZN9simulator12centralSpeedEv+0x13>
    2752:	00 
    2753:	85 d2                	test   edx,edx
    2755:	0f 8e 4b 01 00 00    	jle    28a6 <_ZN9simulator12centralSpeedEv+0x166>
    275b:	41 54                	push   r12
    275d:	55                   	push   rbp
    275e:	45 31 e4             	xor    r12d,r12d
    2761:	53                   	push   rbx
    2762:	48 89 fb             	mov    rbx,rdi
    2765:	48 83 ec 10          	sub    rsp,0x10
    2769:	0f 1f 80 00 00 00 00 	nop    DWORD PTR [rax+0x0]
    2770:	8b 43 28             	mov    eax,DWORD PTR [rbx+0x28]
    2773:	85 c0                	test   eax,eax
    2775:	0f 8e 15 01 00 00    	jle    2890 <_ZN9simulator12centralSpeedEv+0x150>
    277b:	66 0f ef db          	pxor   xmm3,xmm3
    277f:	31 ed                	xor    ebp,ebp
    2781:	f3 0f 10 35 00 00 00 	movss  xmm6,DWORD PTR [rip+0x0]        # 2789 <_ZN9simulator12centralSpeedEv+0x49>
    2788:	00 
    2789:	f3 41 0f 2a dc       	cvtsi2ss xmm3,r12d
    278e:	eb 7b                	jmp    280b <_ZN9simulator12centralSpeedEv+0xcb>
    2790:	0f af 83 1c 01 00 00 	imul   eax,DWORD PTR [rbx+0x11c]
    2797:	48 8b 93 10 01 00 00 	mov    rdx,QWORD PTR [rbx+0x110]
    279e:	01 e8                	add    eax,ebp
    27a0:	0f 2e 3d 00 00 00 00 	ucomiss xmm7,DWORD PTR [rip+0x0]        # 27a7 <_ZN9simulator12centralSpeedEv+0x67>
    27a7:	48 98                	cdqe   
    27a9:	f3 0f 11 3c 82       	movss  DWORD PTR [rdx+rax*4],xmm7
    27ae:	44 89 e0             	mov    eax,r12d
    27b1:	0f 87 b6 00 00 00    	ja     286d <_ZN9simulator12centralSpeedEv+0x12d>
    27b7:	0f 28 d6             	movaps xmm2,xmm6
    27ba:	0f 28 cc             	movaps xmm1,xmm4
    27bd:	0f af 83 ec 00 00 00 	imul   eax,DWORD PTR [rbx+0xec]
    27c4:	f3 0f c2 d7 01       	cmpltss xmm2,xmm7
    27c9:	48 8b 93 e0 00 00 00 	mov    rdx,QWORD PTR [rbx+0xe0]
    27d0:	0f 54 ca             	andps  xmm1,xmm2
    27d3:	0f 55 d7             	andnps xmm2,xmm7
    27d6:	01 e8                	add    eax,ebp
    27d8:	0f 28 c2             	movaps xmm0,xmm2
    27db:	48 98                	cdqe   
    27dd:	f3 0f 11 3c 82       	movss  DWORD PTR [rdx+rax*4],xmm7
    27e2:	0f 56 c1             	orps   xmm0,xmm1
    27e5:	8b 83 bc 00 00 00    	mov    eax,DWORD PTR [rbx+0xbc]
    27eb:	48 8b 93 b0 00 00 00 	mov    rdx,QWORD PTR [rbx+0xb0]
    27f2:	41 0f af c4          	imul   eax,r12d
    27f6:	01 e8                	add    eax,ebp
    27f8:	48 98                	cdqe   
    27fa:	f3 0f 11 04 82       	movss  DWORD PTR [rdx+rax*4],xmm0
    27ff:	83 c5 01             	add    ebp,0x1
    2802:	39 6b 28             	cmp    DWORD PTR [rbx+0x28],ebp
    2805:	0f 8e 85 00 00 00    	jle    2890 <_ZN9simulator12centralSpeedEv+0x150>
    280b:	66 0f ef c9          	pxor   xmm1,xmm1
    280f:	0f 28 c3             	movaps xmm0,xmm3
    2812:	f3 0f 5c 43 34       	subss  xmm0,DWORD PTR [rbx+0x34]
    2817:	f3 0f 2a cd          	cvtsi2ss xmm1,ebp
    281b:	f3 0f 59 c0          	mulss  xmm0,xmm0
    281f:	f3 0f 5c 4b 38       	subss  xmm1,DWORD PTR [rbx+0x38]
    2824:	f3 0f 59 c9          	mulss  xmm1,xmm1
    2828:	f3 0f 58 c8          	addss  xmm1,xmm0
    282c:	f3 0f 51 c1          	sqrtss xmm0,xmm1
    2830:	0f 2e c0             	ucomiss xmm0,xmm0
    2833:	7a 73                	jp     28a8 <_ZN9simulator12centralSpeedEv+0x168>
    2835:	0f 2e e8             	ucomiss xmm5,xmm0
    2838:	76 c5                	jbe    27ff <_ZN9simulator12centralSpeedEv+0xbf>
    283a:	0f 28 fc             	movaps xmm7,xmm4
    283d:	44 89 e0             	mov    eax,r12d
    2840:	f3 0f 5e f8          	divss  xmm7,xmm0
    2844:	0f 2e 3d 00 00 00 00 	ucomiss xmm7,DWORD PTR [rip+0x0]        # 284b <_ZN9simulator12centralSpeedEv+0x10b>
    284b:	0f 86 3f ff ff ff    	jbe    2790 <_ZN9simulator12centralSpeedEv+0x50>
    2851:	0f af 83 1c 01 00 00 	imul   eax,DWORD PTR [rbx+0x11c]
    2858:	48 8b 93 10 01 00 00 	mov    rdx,QWORD PTR [rbx+0x110]
    285f:	01 e8                	add    eax,ebp
    2861:	48 98                	cdqe   
    2863:	c7 04 82 0a d7 23 3c 	mov    DWORD PTR [rdx+rax*4],0x3c23d70a
    286a:	44 89 e0             	mov    eax,r12d
    286d:	0f af 83 ec 00 00 00 	imul   eax,DWORD PTR [rbx+0xec]
    2874:	48 8b 93 e0 00 00 00 	mov    rdx,QWORD PTR [rbx+0xe0]
    287b:	0f 28 c4             	movaps xmm0,xmm4
    287e:	01 e8                	add    eax,ebp
    2880:	48 98                	cdqe   
    2882:	c7 04 82 0a d7 23 3c 	mov    DWORD PTR [rdx+rax*4],0x3c23d70a
    2889:	e9 57 ff ff ff       	jmp    27e5 <_ZN9simulator12centralSpeedEv+0xa5>
    288e:	66 90                	xchg   ax,ax
    2890:	41 83 c4 01          	add    r12d,0x1
    2894:	44 39 63 24          	cmp    DWORD PTR [rbx+0x24],r12d
    2898:	0f 8f d2 fe ff ff    	jg     2770 <_ZN9simulator12centralSpeedEv+0x30>
    289e:	48 83 c4 10          	add    rsp,0x10
    28a2:	5b                   	pop    rbx
    28a3:	5d                   	pop    rbp
    28a4:	41 5c                	pop    r12
    28a6:	f3 c3                	repz ret 
    28a8:	0f 28 c1             	movaps xmm0,xmm1
    28ab:	f3 0f 11 64 24 0c    	movss  DWORD PTR [rsp+0xc],xmm4
    28b1:	f3 0f 11 6c 24 08    	movss  DWORD PTR [rsp+0x8],xmm5
    28b7:	f3 0f 11 74 24 04    	movss  DWORD PTR [rsp+0x4],xmm6
    28bd:	f3 0f 11 1c 24       	movss  DWORD PTR [rsp],xmm3
    28c2:	e8 00 00 00 00       	call   28c7 <_ZN9simulator12centralSpeedEv+0x187>
    28c7:	f3 0f 10 64 24 0c    	movss  xmm4,DWORD PTR [rsp+0xc]
    28cd:	f3 0f 10 6c 24 08    	movss  xmm5,DWORD PTR [rsp+0x8]
    28d3:	f3 0f 10 74 24 04    	movss  xmm6,DWORD PTR [rsp+0x4]
    28d9:	f3 0f 10 1c 24       	movss  xmm3,DWORD PTR [rsp]
    28de:	e9 52 ff ff ff       	jmp    2835 <_ZN9simulator12centralSpeedEv+0xf5>
    28e3:	0f 1f 00             	nop    DWORD PTR [rax]
    28e6:	66 2e 0f 1f 84 00 00 	nop    WORD PTR cs:[rax+rax*1+0x0]
    28ed:	00 00 00 

00000000000028f0 <_Z8distanceR4mat2S0_>:
    28f0:	66 0f ef ed          	pxor   xmm5,xmm5
    28f4:	66 0f ef e4          	pxor   xmm4,xmm4
    28f8:	f3 0f 2a 6f 08       	cvtsi2ss xmm5,DWORD PTR [rdi+0x8]
    28fd:	0f 2e ec             	ucomiss xmm5,xmm4
    2900:	0f 86 aa 00 00 00    	jbe    29b0 <_Z8distanceR4mat2S0_+0xc0>
    2906:	44 8b 5f 0c          	mov    r11d,DWORD PTR [rdi+0xc]
    290a:	66 0f ef db          	pxor   xmm3,xmm3
    290e:	0f 28 d4             	movaps xmm2,xmm4
    2911:	45 31 d2             	xor    r10d,r10d
    2914:	45 31 c9             	xor    r9d,r9d
    2917:	f3 41 0f 2a db       	cvtsi2ss xmm3,r11d
    291c:	0f 1f 40 00          	nop    DWORD PTR [rax+0x0]
    2920:	0f 2e dc             	ucomiss xmm3,xmm4
    2923:	76 61                	jbe    2986 <_Z8distanceR4mat2S0_+0x96>
    2925:	8b 46 0c             	mov    eax,DWORD PTR [rsi+0xc]
    2928:	48 8b 16             	mov    rdx,QWORD PTR [rsi]
    292b:	41 0f af c1          	imul   eax,r9d
    292f:	48 98                	cdqe   
    2931:	4c 8d 04 82          	lea    r8,[rdx+rax*4]
    2935:	48 8b 17             	mov    rdx,QWORD PTR [rdi]
    2938:	49 63 c2             	movsxd rax,r10d
    293b:	48 8d 0c 82          	lea    rcx,[rdx+rax*4]
    293f:	31 c0                	xor    eax,eax
    2941:	31 d2                	xor    edx,edx
    2943:	0f 1f 44 00 00       	nop    DWORD PTR [rax+rax*1+0x0]
    2948:	f3 41 0f 10 04 00    	movss  xmm0,DWORD PTR [r8+rax*1]
    294e:	83 c2 01             	add    edx,0x1
    2951:	0f 28 c8             	movaps xmm1,xmm0
    2954:	f3 0f 5a d2          	cvtss2sd xmm2,xmm2
    2958:	66 0f ef c0          	pxor   xmm0,xmm0
    295c:	f3 0f 5c 0c 01       	subss  xmm1,DWORD PTR [rcx+rax*1]
    2961:	48 83 c0 04          	add    rax,0x4
    2965:	f3 0f 5a c1          	cvtss2sd xmm0,xmm1
    2969:	f2 0f 59 c0          	mulsd  xmm0,xmm0
    296d:	f2 0f 58 c2          	addsd  xmm0,xmm2
    2971:	66 0f ef d2          	pxor   xmm2,xmm2
    2975:	f2 0f 5a d0          	cvtsd2ss xmm2,xmm0
    2979:	66 0f ef c0          	pxor   xmm0,xmm0
    297d:	f3 0f 2a c2          	cvtsi2ss xmm0,edx
    2981:	0f 2e d8             	ucomiss xmm3,xmm0
    2984:	77 c2                	ja     2948 <_Z8distanceR4mat2S0_+0x58>
    2986:	66 0f ef c0          	pxor   xmm0,xmm0
    298a:	41 83 c1 01          	add    r9d,0x1
    298e:	45 01 da             	add    r10d,r11d
    2991:	f3 41 0f 2a c1       	cvtsi2ss xmm0,r9d
    2996:	0f 2e e8             	ucomiss xmm5,xmm0
    2999:	77 85                	ja     2920 <_Z8distanceR4mat2S0_+0x30>
    299b:	f3 0f 51 c2          	sqrtss xmm0,xmm2
    299f:	0f 2e c0             	ucomiss xmm0,xmm0
    29a2:	7a 18                	jp     29bc <_Z8distanceR4mat2S0_+0xcc>
    29a4:	f3 c3                	repz ret 
    29a6:	66 2e 0f 1f 84 00 00 	nop    WORD PTR cs:[rax+rax*1+0x0]
    29ad:	00 00 00 
    29b0:	0f 28 d4             	movaps xmm2,xmm4
    29b3:	f3 0f 51 c2          	sqrtss xmm0,xmm2
    29b7:	0f 2e c0             	ucomiss xmm0,xmm0
    29ba:	7b e8                	jnp    29a4 <_Z8distanceR4mat2S0_+0xb4>
    29bc:	0f 28 c2             	movaps xmm0,xmm2
    29bf:	48 83 ec 08          	sub    rsp,0x8
    29c3:	e8 00 00 00 00       	call   29c8 <_Z8distanceR4mat2S0_+0xd8>
    29c8:	48 83 c4 08          	add    rsp,0x8
    29cc:	c3                   	ret    
    29cd:	90                   	nop
    29ce:	66 90                	xchg   ax,ax

00000000000029d0 <_ZN9simulator7saveVtkER4mat2NSt7__cxx1112basic_stringIcSt11char_traitsIcESaIcEEE>:
    29d0:	41 56                	push   r14
    29d2:	41 55                	push   r13
    29d4:	49 89 fe             	mov    r14,rdi
    29d7:	41 54                	push   r12
    29d9:	55                   	push   rbp
    29da:	48 89 f5             	mov    rbp,rsi
    29dd:	53                   	push   rbx
    29de:	be 00 00 00 00       	mov    esi,0x0
    29e3:	48 89 d3             	mov    rbx,rdx
    29e6:	ba 00 00 00 00       	mov    edx,0x0
    29eb:	48 81 ec f0 05 00 00 	sub    rsp,0x5f0
    29f2:	64 48 8b 04 25 28 00 	mov    rax,QWORD PTR fs:0x28
    29f9:	00 00 
    29fb:	48 89 84 24 e8 05 00 	mov    QWORD PTR [rsp+0x5e8],rax
    2a02:	00 
    2a03:	31 c0                	xor    eax,eax
    2a05:	48 8d bc 24 80 01 00 	lea    rdi,[rsp+0x180]
    2a0c:	00 
    2a0d:	48 8d 84 24 90 01 00 	lea    rax,[rsp+0x190]
    2a14:	00 
    2a15:	48 89 84 24 80 01 00 	mov    QWORD PTR [rsp+0x180],rax
    2a1c:	00 
    2a1d:	e8 de d5 ff ff       	call   0 <_ZNSt7__cxx1112basic_stringIcSt11char_traitsIcESaIcEE12_M_constructIPKcEEvT_S8_St20forward_iterator_tag.isra.36>
    2a22:	48 8b 33             	mov    rsi,QWORD PTR [rbx]
    2a25:	48 8d 84 24 70 01 00 	lea    rax,[rsp+0x170]
    2a2c:	00 
    2a2d:	48 8d bc 24 60 01 00 	lea    rdi,[rsp+0x160]
    2a34:	00 
    2a35:	48 89 84 24 60 01 00 	mov    QWORD PTR [rsp+0x160],rax
    2a3c:	00 
    2a3d:	48 89 f2             	mov    rdx,rsi
    2a40:	48 03 53 08          	add    rdx,QWORD PTR [rbx+0x8]
    2a44:	e8 b7 d5 ff ff       	call   0 <_ZNSt7__cxx1112basic_stringIcSt11char_traitsIcESaIcEE12_M_constructIPKcEEvT_S8_St20forward_iterator_tag.isra.36>
    2a49:	48 8d 94 24 80 01 00 	lea    rdx,[rsp+0x180]
    2a50:	00 
    2a51:	48 8d b4 24 60 01 00 	lea    rsi,[rsp+0x160]
    2a58:	00 
    2a59:	48 8d bc 24 a0 01 00 	lea    rdi,[rsp+0x1a0]
    2a60:	00 
    2a61:	e8 00 00 00 00       	call   2a66 <_ZN9simulator7saveVtkER4mat2NSt7__cxx1112basic_stringIcSt11char_traitsIcESaIcEEE+0x96>
    2a66:	48 8b bc 24 60 01 00 	mov    rdi,QWORD PTR [rsp+0x160]
    2a6d:	00 
    2a6e:	48 8d 84 24 70 01 00 	lea    rax,[rsp+0x170]
    2a75:	00 
    2a76:	48 39 c7             	cmp    rdi,rax
    2a79:	74 05                	je     2a80 <_ZN9simulator7saveVtkER4mat2NSt7__cxx1112basic_stringIcSt11char_traitsIcESaIcEEE+0xb0>
    2a7b:	e8 00 00 00 00       	call   2a80 <_ZN9simulator7saveVtkER4mat2NSt7__cxx1112basic_stringIcSt11char_traitsIcESaIcEEE+0xb0>
    2a80:	48 8b bc 24 80 01 00 	mov    rdi,QWORD PTR [rsp+0x180]
    2a87:	00 
    2a88:	48 8d 84 24 90 01 00 	lea    rax,[rsp+0x190]
    2a8f:	00 
    2a90:	48 39 c7             	cmp    rdi,rax
    2a93:	74 05                	je     2a9a <_ZN9simulator7saveVtkER4mat2NSt7__cxx1112basic_stringIcSt11char_traitsIcESaIcEEE+0xca>
    2a95:	e8 00 00 00 00       	call   2a9a <_ZN9simulator7saveVtkER4mat2NSt7__cxx1112basic_stringIcSt11char_traitsIcESaIcEEE+0xca>
    2a9a:	48 8d 44 24 10       	lea    rax,[rsp+0x10]
    2a9f:	ba 00 00 00 00       	mov    edx,0x0
    2aa4:	be 00 00 00 00       	mov    esi,0x0
    2aa9:	48 89 e7             	mov    rdi,rsp
    2aac:	48 89 04 24          	mov    QWORD PTR [rsp],rax
    2ab0:	e8 4b d5 ff ff       	call   0 <_ZNSt7__cxx1112basic_stringIcSt11char_traitsIcESaIcEE12_M_constructIPKcEEvT_S8_St20forward_iterator_tag.isra.36>
    2ab5:	48 8d bc 24 a0 01 00 	lea    rdi,[rsp+0x1a0]
    2abc:	00 
    2abd:	48 89 e6             	mov    rsi,rsp
    2ac0:	e8 00 00 00 00       	call   2ac5 <_ZN9simulator7saveVtkER4mat2NSt7__cxx1112basic_stringIcSt11char_traitsIcESaIcEEE+0xf5>
    2ac5:	48 8b 3c 24          	mov    rdi,QWORD PTR [rsp]
    2ac9:	48 8d 44 24 10       	lea    rax,[rsp+0x10]
    2ace:	48 39 c7             	cmp    rdi,rax
    2ad1:	74 05                	je     2ad8 <_ZN9simulator7saveVtkER4mat2NSt7__cxx1112basic_stringIcSt11char_traitsIcESaIcEEE+0x108>
    2ad3:	e8 00 00 00 00       	call   2ad8 <_ZN9simulator7saveVtkER4mat2NSt7__cxx1112basic_stringIcSt11char_traitsIcESaIcEEE+0x108>
    2ad8:	48 8d bc 24 a0 01 00 	lea    rdi,[rsp+0x1a0]
    2adf:	00 
    2ae0:	e8 00 00 00 00       	call   2ae5 <_ZN9simulator7saveVtkER4mat2NSt7__cxx1112basic_stringIcSt11char_traitsIcESaIcEEE+0x115>
    2ae5:	48 8d 44 24 30       	lea    rax,[rsp+0x30]
    2aea:	48 8d 7c 24 20       	lea    rdi,[rsp+0x20]
    2aef:	ba 00 00 00 00       	mov    edx,0x0
    2af4:	be 00 00 00 00       	mov    esi,0x0
    2af9:	48 89 44 24 20       	mov    QWORD PTR [rsp+0x20],rax
    2afe:	e8 fd d4 ff ff       	call   0 <_ZNSt7__cxx1112basic_stringIcSt11char_traitsIcESaIcEE12_M_constructIPKcEEvT_S8_St20forward_iterator_tag.isra.36>
    2b03:	48 8d 74 24 20       	lea    rsi,[rsp+0x20]
    2b08:	48 8d bc 24 a0 01 00 	lea    rdi,[rsp+0x1a0]
    2b0f:	00 
    2b10:	e8 00 00 00 00       	call   2b15 <_ZN9simulator7saveVtkER4mat2NSt7__cxx1112basic_stringIcSt11char_traitsIcESaIcEEE+0x145>
    2b15:	48 8b 7c 24 20       	mov    rdi,QWORD PTR [rsp+0x20]
    2b1a:	48 8d 44 24 30       	lea    rax,[rsp+0x30]
    2b1f:	48 39 c7             	cmp    rdi,rax
    2b22:	74 05                	je     2b29 <_ZN9simulator7saveVtkER4mat2NSt7__cxx1112basic_stringIcSt11char_traitsIcESaIcEEE+0x159>
    2b24:	e8 00 00 00 00       	call   2b29 <_ZN9simulator7saveVtkER4mat2NSt7__cxx1112basic_stringIcSt11char_traitsIcESaIcEEE+0x159>
    2b29:	48 8d bc 24 a0 01 00 	lea    rdi,[rsp+0x1a0]
    2b30:	00 
    2b31:	e8 00 00 00 00       	call   2b36 <_ZN9simulator7saveVtkER4mat2NSt7__cxx1112basic_stringIcSt11char_traitsIcESaIcEEE+0x166>
    2b36:	48 8d 44 24 50       	lea    rax,[rsp+0x50]
    2b3b:	48 8d 7c 24 40       	lea    rdi,[rsp+0x40]
    2b40:	ba 00 00 00 00       	mov    edx,0x0
    2b45:	be 00 00 00 00       	mov    esi,0x0
    2b4a:	48 89 44 24 40       	mov    QWORD PTR [rsp+0x40],rax
    2b4f:	e8 ac d4 ff ff       	call   0 <_ZNSt7__cxx1112basic_stringIcSt11char_traitsIcESaIcEE12_M_constructIPKcEEvT_S8_St20forward_iterator_tag.isra.36>
    2b54:	48 8d 74 24 40       	lea    rsi,[rsp+0x40]
    2b59:	48 8d bc 24 a0 01 00 	lea    rdi,[rsp+0x1a0]
    2b60:	00 
    2b61:	e8 00 00 00 00       	call   2b66 <_ZN9simulator7saveVtkER4mat2NSt7__cxx1112basic_stringIcSt11char_traitsIcESaIcEEE+0x196>
    2b66:	48 8b 7c 24 40       	mov    rdi,QWORD PTR [rsp+0x40]
    2b6b:	48 8d 44 24 50       	lea    rax,[rsp+0x50]
    2b70:	48 39 c7             	cmp    rdi,rax
    2b73:	74 05                	je     2b7a <_ZN9simulator7saveVtkER4mat2NSt7__cxx1112basic_stringIcSt11char_traitsIcESaIcEEE+0x1aa>
    2b75:	e8 00 00 00 00       	call   2b7a <_ZN9simulator7saveVtkER4mat2NSt7__cxx1112basic_stringIcSt11char_traitsIcESaIcEEE+0x1aa>
    2b7a:	48 8d bc 24 a0 01 00 	lea    rdi,[rsp+0x1a0]
    2b81:	00 
    2b82:	e8 00 00 00 00       	call   2b87 <_ZN9simulator7saveVtkER4mat2NSt7__cxx1112basic_stringIcSt11char_traitsIcESaIcEEE+0x1b7>
    2b87:	48 8d 44 24 70       	lea    rax,[rsp+0x70]
    2b8c:	48 8d 7c 24 60       	lea    rdi,[rsp+0x60]
    2b91:	ba 00 00 00 00       	mov    edx,0x0
    2b96:	be 00 00 00 00       	mov    esi,0x0
    2b9b:	48 89 44 24 60       	mov    QWORD PTR [rsp+0x60],rax
    2ba0:	e8 5b d4 ff ff       	call   0 <_ZNSt7__cxx1112basic_stringIcSt11char_traitsIcESaIcEE12_M_constructIPKcEEvT_S8_St20forward_iterator_tag.isra.36>
    2ba5:	48 8d 74 24 60       	lea    rsi,[rsp+0x60]
    2baa:	48 8d bc 24 a0 01 00 	lea    rdi,[rsp+0x1a0]
    2bb1:	00 
    2bb2:	e8 00 00 00 00       	call   2bb7 <_ZN9simulator7saveVtkER4mat2NSt7__cxx1112basic_stringIcSt11char_traitsIcESaIcEEE+0x1e7>
    2bb7:	48 8b 7c 24 60       	mov    rdi,QWORD PTR [rsp+0x60]
    2bbc:	48 8d 44 24 70       	lea    rax,[rsp+0x70]
    2bc1:	48 39 c7             	cmp    rdi,rax
    2bc4:	74 05                	je     2bcb <_ZN9simulator7saveVtkER4mat2NSt7__cxx1112basic_stringIcSt11char_traitsIcESaIcEEE+0x1fb>
    2bc6:	e8 00 00 00 00       	call   2bcb <_ZN9simulator7saveVtkER4mat2NSt7__cxx1112basic_stringIcSt11char_traitsIcESaIcEEE+0x1fb>
    2bcb:	48 8d bc 24 a0 01 00 	lea    rdi,[rsp+0x1a0]
    2bd2:	00 
    2bd3:	e8 00 00 00 00       	call   2bd8 <_ZN9simulator7saveVtkER4mat2NSt7__cxx1112basic_stringIcSt11char_traitsIcESaIcEEE+0x208>
    2bd8:	45 8b 46 28          	mov    r8d,DWORD PTR [r14+0x28]
    2bdc:	48 8d bc 24 a0 00 00 	lea    rdi,[rsp+0xa0]
    2be3:	00 
    2be4:	b9 00 00 00 00       	mov    ecx,0x0
    2be9:	ba 10 00 00 00       	mov    edx,0x10
    2bee:	be 00 00 00 00       	mov    esi,0x0
    2bf3:	31 c0                	xor    eax,eax
    2bf5:	e8 00 00 00 00       	call   2bfa <_ZN9simulator7saveVtkER4mat2NSt7__cxx1112basic_stringIcSt11char_traitsIcESaIcEEE+0x22a>
    2bfa:	45 8b 46 24          	mov    r8d,DWORD PTR [r14+0x24]
    2bfe:	48 8d bc 24 80 00 00 	lea    rdi,[rsp+0x80]
    2c05:	00 
    2c06:	b9 00 00 00 00       	mov    ecx,0x0
    2c0b:	ba 10 00 00 00       	mov    edx,0x10
    2c10:	be 00 00 00 00       	mov    esi,0x0
    2c15:	31 c0                	xor    eax,eax
    2c17:	e8 00 00 00 00       	call   2c1c <_ZN9simulator7saveVtkER4mat2NSt7__cxx1112basic_stringIcSt11char_traitsIcESaIcEEE+0x24c>
    2c1c:	48 8d bc 24 80 00 00 	lea    rdi,[rsp+0x80]
    2c23:	00 
    2c24:	41 b8 0b 00 00 00    	mov    r8d,0xb
    2c2a:	b9 00 00 00 00       	mov    ecx,0x0
    2c2f:	31 d2                	xor    edx,edx
    2c31:	31 f6                	xor    esi,esi
    2c33:	e8 00 00 00 00       	call   2c38 <_ZN9simulator7saveVtkER4mat2NSt7__cxx1112basic_stringIcSt11char_traitsIcESaIcEEE+0x268>
    2c38:	48 8d 94 24 30 01 00 	lea    rdx,[rsp+0x130]
    2c3f:	00 
    2c40:	48 89 94 24 20 01 00 	mov    QWORD PTR [rsp+0x120],rdx
    2c47:	00 
    2c48:	48 8b 08             	mov    rcx,QWORD PTR [rax]
    2c4b:	48 8d 50 10          	lea    rdx,[rax+0x10]
    2c4f:	48 39 d1             	cmp    rcx,rdx
    2c52:	0f 84 41 09 00 00    	je     3599 <_ZN9simulator7saveVtkER4mat2NSt7__cxx1112basic_stringIcSt11char_traitsIcESaIcEEE+0xbc9>
    2c58:	48 89 8c 24 20 01 00 	mov    QWORD PTR [rsp+0x120],rcx
    2c5f:	00 
    2c60:	48 8b 48 10          	mov    rcx,QWORD PTR [rax+0x10]
    2c64:	48 89 8c 24 30 01 00 	mov    QWORD PTR [rsp+0x130],rcx
    2c6b:	00 
    2c6c:	48 8b 48 08          	mov    rcx,QWORD PTR [rax+0x8]
    2c70:	48 89 8c 24 28 01 00 	mov    QWORD PTR [rsp+0x128],rcx
    2c77:	00 
    2c78:	48 c7 40 08 00 00 00 	mov    QWORD PTR [rax+0x8],0x0
    2c7f:	00 
    2c80:	c6 40 10 00          	mov    BYTE PTR [rax+0x10],0x0
    2c84:	48 89 10             	mov    QWORD PTR [rax],rdx
    2c87:	48 b8 ff ff ff ff ff 	movabs rax,0x7fffffffffffffff
    2c8e:	ff ff 7f 
    2c91:	48 39 84 24 28 01 00 	cmp    QWORD PTR [rsp+0x128],rax
    2c98:	00 
    2c99:	0f 84 7e 0d 00 00    	je     3a1d <_ZN9simulator7saveVtkER4mat2NSt7__cxx1112basic_stringIcSt11char_traitsIcESaIcEEE+0x104d>
    2c9f:	48 8d bc 24 20 01 00 	lea    rdi,[rsp+0x120]
    2ca6:	00 
    2ca7:	ba 01 00 00 00       	mov    edx,0x1
    2cac:	be 00 00 00 00       	mov    esi,0x0
    2cb1:	e8 00 00 00 00       	call   2cb6 <_ZN9simulator7saveVtkER4mat2NSt7__cxx1112basic_stringIcSt11char_traitsIcESaIcEEE+0x2e6>
    2cb6:	48 8d 94 24 50 01 00 	lea    rdx,[rsp+0x150]
    2cbd:	00 
    2cbe:	48 89 94 24 40 01 00 	mov    QWORD PTR [rsp+0x140],rdx
    2cc5:	00 
    2cc6:	48 8b 08             	mov    rcx,QWORD PTR [rax]
    2cc9:	48 8d 50 10          	lea    rdx,[rax+0x10]
    2ccd:	48 39 d1             	cmp    rcx,rdx
    2cd0:	0f 84 07 0a 00 00    	je     36dd <_ZN9simulator7saveVtkER4mat2NSt7__cxx1112basic_stringIcSt11char_traitsIcESaIcEEE+0xd0d>
    2cd6:	48 89 8c 24 40 01 00 	mov    QWORD PTR [rsp+0x140],rcx
    2cdd:	00 
    2cde:	48 8b 48 10          	mov    rcx,QWORD PTR [rax+0x10]
    2ce2:	48 89 8c 24 50 01 00 	mov    QWORD PTR [rsp+0x150],rcx
    2ce9:	00 
    2cea:	48 8b 48 08          	mov    rcx,QWORD PTR [rax+0x8]
    2cee:	48 89 8c 24 48 01 00 	mov    QWORD PTR [rsp+0x148],rcx
    2cf5:	00 
    2cf6:	48 89 10             	mov    QWORD PTR [rax],rdx
    2cf9:	c6 40 10 00          	mov    BYTE PTR [rax+0x10],0x0
    2cfd:	48 8b 8c 24 40 01 00 	mov    rcx,QWORD PTR [rsp+0x140]
    2d04:	00 
    2d05:	48 c7 40 08 00 00 00 	mov    QWORD PTR [rax+0x8],0x0
    2d0c:	00 
    2d0d:	48 8d 84 24 50 01 00 	lea    rax,[rsp+0x150]
    2d14:	00 
    2d15:	4c 8b 84 24 48 01 00 	mov    r8,QWORD PTR [rsp+0x148]
    2d1c:	00 
    2d1d:	48 8b 94 24 a8 00 00 	mov    rdx,QWORD PTR [rsp+0xa8]
    2d24:	00 
    2d25:	48 39 c1             	cmp    rcx,rax
    2d28:	49 8d 3c 10          	lea    rdi,[r8+rdx*1]
    2d2c:	0f 84 a1 09 00 00    	je     36d3 <_ZN9simulator7saveVtkER4mat2NSt7__cxx1112basic_stringIcSt11char_traitsIcESaIcEEE+0xd03>
    2d32:	48 8b 84 24 50 01 00 	mov    rax,QWORD PTR [rsp+0x150]
    2d39:	00 
    2d3a:	48 39 c7             	cmp    rdi,rax
    2d3d:	48 8b b4 24 a0 00 00 	mov    rsi,QWORD PTR [rsp+0xa0]
    2d44:	00 
    2d45:	0f 86 3c 08 00 00    	jbe    3587 <_ZN9simulator7saveVtkER4mat2NSt7__cxx1112basic_stringIcSt11char_traitsIcESaIcEEE+0xbb7>
    2d4b:	48 8d 84 24 b0 00 00 	lea    rax,[rsp+0xb0]
    2d52:	00 
    2d53:	48 39 c6             	cmp    rsi,rax
    2d56:	0f 84 4e 0c 00 00    	je     39aa <_ZN9simulator7saveVtkER4mat2NSt7__cxx1112basic_stringIcSt11char_traitsIcESaIcEEE+0xfda>
    2d5c:	48 8b 84 24 b0 00 00 	mov    rax,QWORD PTR [rsp+0xb0]
    2d63:	00 
    2d64:	48 39 c7             	cmp    rdi,rax
    2d67:	0f 87 1a 08 00 00    	ja     3587 <_ZN9simulator7saveVtkER4mat2NSt7__cxx1112basic_stringIcSt11char_traitsIcESaIcEEE+0xbb7>
    2d6d:	48 8d bc 24 a0 00 00 	lea    rdi,[rsp+0xa0]
    2d74:	00 
    2d75:	31 d2                	xor    edx,edx
    2d77:	31 f6                	xor    esi,esi
    2d79:	e8 00 00 00 00       	call   2d7e <_ZN9simulator7saveVtkER4mat2NSt7__cxx1112basic_stringIcSt11char_traitsIcESaIcEEE+0x3ae>
    2d7e:	48 8d 94 24 70 01 00 	lea    rdx,[rsp+0x170]
    2d85:	00 
    2d86:	48 89 94 24 60 01 00 	mov    QWORD PTR [rsp+0x160],rdx
    2d8d:	00 
    2d8e:	48 8b 08             	mov    rcx,QWORD PTR [rax]
    2d91:	48 8d 50 10          	lea    rdx,[rax+0x10]
    2d95:	48 39 d1             	cmp    rcx,rdx
    2d98:	0f 84 18 09 00 00    	je     36b6 <_ZN9simulator7saveVtkER4mat2NSt7__cxx1112basic_stringIcSt11char_traitsIcESaIcEEE+0xce6>
    2d9e:	48 89 8c 24 60 01 00 	mov    QWORD PTR [rsp+0x160],rcx
    2da5:	00 
    2da6:	48 8b 48 10          	mov    rcx,QWORD PTR [rax+0x10]
    2daa:	48 89 8c 24 70 01 00 	mov    QWORD PTR [rsp+0x170],rcx
    2db1:	00 
    2db2:	48 8b 48 08          	mov    rcx,QWORD PTR [rax+0x8]
    2db6:	48 89 8c 24 68 01 00 	mov    QWORD PTR [rsp+0x168],rcx
    2dbd:	00 
    2dbe:	48 c7 40 08 00 00 00 	mov    QWORD PTR [rax+0x8],0x0
    2dc5:	00 
    2dc6:	c6 40 10 00          	mov    BYTE PTR [rax+0x10],0x0
    2dca:	48 89 10             	mov    QWORD PTR [rax],rdx
    2dcd:	48 b8 ff ff ff ff ff 	movabs rax,0x7fffffffffffffff
    2dd4:	ff ff 7f 
    2dd7:	48 2b 84 24 68 01 00 	sub    rax,QWORD PTR [rsp+0x168]
    2dde:	00 
    2ddf:	48 83 f8 01          	cmp    rax,0x1
    2de3:	0f 86 0b 0c 00 00    	jbe    39f4 <_ZN9simulator7saveVtkER4mat2NSt7__cxx1112basic_stringIcSt11char_traitsIcESaIcEEE+0x1024>
    2de9:	48 8d bc 24 60 01 00 	lea    rdi,[rsp+0x160]
    2df0:	00 
    2df1:	ba 02 00 00 00       	mov    edx,0x2
    2df6:	be 00 00 00 00       	mov    esi,0x0
    2dfb:	e8 00 00 00 00       	call   2e00 <_ZN9simulator7saveVtkER4mat2NSt7__cxx1112basic_stringIcSt11char_traitsIcESaIcEEE+0x430>
    2e00:	48 8d 94 24 90 01 00 	lea    rdx,[rsp+0x190]
    2e07:	00 
    2e08:	48 89 94 24 80 01 00 	mov    QWORD PTR [rsp+0x180],rdx
    2e0f:	00 
    2e10:	48 8b 08             	mov    rcx,QWORD PTR [rax]
    2e13:	48 8d 50 10          	lea    rdx,[rax+0x10]
    2e17:	48 39 d1             	cmp    rcx,rdx
    2e1a:	0f 84 79 08 00 00    	je     3699 <_ZN9simulator7saveVtkER4mat2NSt7__cxx1112basic_stringIcSt11char_traitsIcESaIcEEE+0xcc9>
    2e20:	48 89 8c 24 80 01 00 	mov    QWORD PTR [rsp+0x180],rcx
    2e27:	00 
    2e28:	48 8b 48 10          	mov    rcx,QWORD PTR [rax+0x10]
    2e2c:	48 89 8c 24 90 01 00 	mov    QWORD PTR [rsp+0x190],rcx
    2e33:	00 
    2e34:	48 8b 48 08          	mov    rcx,QWORD PTR [rax+0x8]
    2e38:	48 8d b4 24 80 01 00 	lea    rsi,[rsp+0x180]
    2e3f:	00 
    2e40:	48 8d bc 24 a0 01 00 	lea    rdi,[rsp+0x1a0]
    2e47:	00 
    2e48:	48 89 8c 24 88 01 00 	mov    QWORD PTR [rsp+0x188],rcx
    2e4f:	00 
    2e50:	48 89 10             	mov    QWORD PTR [rax],rdx
    2e53:	48 c7 40 08 00 00 00 	mov    QWORD PTR [rax+0x8],0x0
    2e5a:	00 
    2e5b:	c6 40 10 00          	mov    BYTE PTR [rax+0x10],0x0
    2e5f:	e8 00 00 00 00       	call   2e64 <_ZN9simulator7saveVtkER4mat2NSt7__cxx1112basic_stringIcSt11char_traitsIcESaIcEEE+0x494>
    2e64:	48 8b bc 24 80 01 00 	mov    rdi,QWORD PTR [rsp+0x180]
    2e6b:	00 
    2e6c:	48 8d 84 24 90 01 00 	lea    rax,[rsp+0x190]
    2e73:	00 
    2e74:	48 39 c7             	cmp    rdi,rax
    2e77:	74 05                	je     2e7e <_ZN9simulator7saveVtkER4mat2NSt7__cxx1112basic_stringIcSt11char_traitsIcESaIcEEE+0x4ae>
    2e79:	e8 00 00 00 00       	call   2e7e <_ZN9simulator7saveVtkER4mat2NSt7__cxx1112basic_stringIcSt11char_traitsIcESaIcEEE+0x4ae>
    2e7e:	48 8b bc 24 60 01 00 	mov    rdi,QWORD PTR [rsp+0x160]
    2e85:	00 
    2e86:	48 8d 84 24 70 01 00 	lea    rax,[rsp+0x170]
    2e8d:	00 
    2e8e:	48 39 c7             	cmp    rdi,rax
    2e91:	74 05                	je     2e98 <_ZN9simulator7saveVtkER4mat2NSt7__cxx1112basic_stringIcSt11char_traitsIcESaIcEEE+0x4c8>
    2e93:	e8 00 00 00 00       	call   2e98 <_ZN9simulator7saveVtkER4mat2NSt7__cxx1112basic_stringIcSt11char_traitsIcESaIcEEE+0x4c8>
    2e98:	48 8b bc 24 40 01 00 	mov    rdi,QWORD PTR [rsp+0x140]
    2e9f:	00 
    2ea0:	48 8d 84 24 50 01 00 	lea    rax,[rsp+0x150]
    2ea7:	00 
    2ea8:	48 39 c7             	cmp    rdi,rax
    2eab:	74 05                	je     2eb2 <_ZN9simulator7saveVtkER4mat2NSt7__cxx1112basic_stringIcSt11char_traitsIcESaIcEEE+0x4e2>
    2ead:	e8 00 00 00 00       	call   2eb2 <_ZN9simulator7saveVtkER4mat2NSt7__cxx1112basic_stringIcSt11char_traitsIcESaIcEEE+0x4e2>
    2eb2:	48 8b bc 24 20 01 00 	mov    rdi,QWORD PTR [rsp+0x120]
    2eb9:	00 
    2eba:	48 8d 84 24 30 01 00 	lea    rax,[rsp+0x130]
    2ec1:	00 
    2ec2:	48 39 c7             	cmp    rdi,rax
    2ec5:	74 05                	je     2ecc <_ZN9simulator7saveVtkER4mat2NSt7__cxx1112basic_stringIcSt11char_traitsIcESaIcEEE+0x4fc>
    2ec7:	e8 00 00 00 00       	call   2ecc <_ZN9simulator7saveVtkER4mat2NSt7__cxx1112basic_stringIcSt11char_traitsIcESaIcEEE+0x4fc>
    2ecc:	48 8b bc 24 80 00 00 	mov    rdi,QWORD PTR [rsp+0x80]
    2ed3:	00 
    2ed4:	48 8d 84 24 90 00 00 	lea    rax,[rsp+0x90]
    2edb:	00 
    2edc:	48 39 c7             	cmp    rdi,rax
    2edf:	74 05                	je     2ee6 <_ZN9simulator7saveVtkER4mat2NSt7__cxx1112basic_stringIcSt11char_traitsIcESaIcEEE+0x516>
    2ee1:	e8 00 00 00 00       	call   2ee6 <_ZN9simulator7saveVtkER4mat2NSt7__cxx1112basic_stringIcSt11char_traitsIcESaIcEEE+0x516>
    2ee6:	48 8b bc 24 a0 00 00 	mov    rdi,QWORD PTR [rsp+0xa0]
    2eed:	00 
    2eee:	48 8d 84 24 b0 00 00 	lea    rax,[rsp+0xb0]
    2ef5:	00 
    2ef6:	48 39 c7             	cmp    rdi,rax
    2ef9:	74 05                	je     2f00 <_ZN9simulator7saveVtkER4mat2NSt7__cxx1112basic_stringIcSt11char_traitsIcESaIcEEE+0x530>
    2efb:	e8 00 00 00 00       	call   2f00 <_ZN9simulator7saveVtkER4mat2NSt7__cxx1112basic_stringIcSt11char_traitsIcESaIcEEE+0x530>
    2f00:	48 8d bc 24 a0 01 00 	lea    rdi,[rsp+0x1a0]
    2f07:	00 
    2f08:	e8 00 00 00 00       	call   2f0d <_ZN9simulator7saveVtkER4mat2NSt7__cxx1112basic_stringIcSt11char_traitsIcESaIcEEE+0x53d>
    2f0d:	48 8d 84 24 d0 00 00 	lea    rax,[rsp+0xd0]
    2f14:	00 
    2f15:	48 8d bc 24 c0 00 00 	lea    rdi,[rsp+0xc0]
    2f1c:	00 
    2f1d:	ba 00 00 00 00       	mov    edx,0x0
    2f22:	be 00 00 00 00       	mov    esi,0x0
    2f27:	48 89 84 24 c0 00 00 	mov    QWORD PTR [rsp+0xc0],rax
    2f2e:	00 
    2f2f:	e8 cc d0 ff ff       	call   0 <_ZNSt7__cxx1112basic_stringIcSt11char_traitsIcESaIcEE12_M_constructIPKcEEvT_S8_St20forward_iterator_tag.isra.36>
    2f34:	48 8d b4 24 c0 00 00 	lea    rsi,[rsp+0xc0]
    2f3b:	00 
    2f3c:	48 8d bc 24 a0 01 00 	lea    rdi,[rsp+0x1a0]
    2f43:	00 
    2f44:	e8 00 00 00 00       	call   2f49 <_ZN9simulator7saveVtkER4mat2NSt7__cxx1112basic_stringIcSt11char_traitsIcESaIcEEE+0x579>
    2f49:	48 8b bc 24 c0 00 00 	mov    rdi,QWORD PTR [rsp+0xc0]
    2f50:	00 
    2f51:	48 8d 84 24 d0 00 00 	lea    rax,[rsp+0xd0]
    2f58:	00 
    2f59:	48 39 c7             	cmp    rdi,rax
    2f5c:	74 05                	je     2f63 <_ZN9simulator7saveVtkER4mat2NSt7__cxx1112basic_stringIcSt11char_traitsIcESaIcEEE+0x593>
    2f5e:	e8 00 00 00 00       	call   2f63 <_ZN9simulator7saveVtkER4mat2NSt7__cxx1112basic_stringIcSt11char_traitsIcESaIcEEE+0x593>
    2f63:	48 8d bc 24 a0 01 00 	lea    rdi,[rsp+0x1a0]
    2f6a:	00 
    2f6b:	e8 00 00 00 00       	call   2f70 <_ZN9simulator7saveVtkER4mat2NSt7__cxx1112basic_stringIcSt11char_traitsIcESaIcEEE+0x5a0>
    2f70:	66 0f ef c0          	pxor   xmm0,xmm0
    2f74:	48 8d bc 24 00 01 00 	lea    rdi,[rsp+0x100]
    2f7b:	00 
    2f7c:	b9 00 00 00 00       	mov    ecx,0x0
    2f81:	ba 3a 00 00 00       	mov    edx,0x3a
    2f86:	be 00 00 00 00       	mov    esi,0x0
    2f8b:	b8 01 00 00 00       	mov    eax,0x1
    2f90:	f3 41 0f 5a 46 18    	cvtss2sd xmm0,DWORD PTR [r14+0x18]
    2f96:	e8 00 00 00 00       	call   2f9b <_ZN9simulator7saveVtkER4mat2NSt7__cxx1112basic_stringIcSt11char_traitsIcESaIcEEE+0x5cb>
    2f9b:	66 0f ef c0          	pxor   xmm0,xmm0
    2f9f:	48 8d bc 24 e0 00 00 	lea    rdi,[rsp+0xe0]
    2fa6:	00 
    2fa7:	b9 00 00 00 00       	mov    ecx,0x0
    2fac:	ba 3a 00 00 00       	mov    edx,0x3a
    2fb1:	be 00 00 00 00       	mov    esi,0x0
    2fb6:	b8 01 00 00 00       	mov    eax,0x1
    2fbb:	f3 41 0f 5a 46 14    	cvtss2sd xmm0,DWORD PTR [r14+0x14]
    2fc1:	e8 00 00 00 00       	call   2fc6 <_ZN9simulator7saveVtkER4mat2NSt7__cxx1112basic_stringIcSt11char_traitsIcESaIcEEE+0x5f6>
    2fc6:	48 8d bc 24 e0 00 00 	lea    rdi,[rsp+0xe0]
    2fcd:	00 
    2fce:	41 b8 08 00 00 00    	mov    r8d,0x8
    2fd4:	b9 00 00 00 00       	mov    ecx,0x0
    2fd9:	31 d2                	xor    edx,edx
    2fdb:	31 f6                	xor    esi,esi
    2fdd:	e8 00 00 00 00       	call   2fe2 <_ZN9simulator7saveVtkER4mat2NSt7__cxx1112basic_stringIcSt11char_traitsIcESaIcEEE+0x612>
    2fe2:	48 8d 94 24 30 01 00 	lea    rdx,[rsp+0x130]
    2fe9:	00 
    2fea:	48 89 94 24 20 01 00 	mov    QWORD PTR [rsp+0x120],rdx
    2ff1:	00 
    2ff2:	48 8b 08             	mov    rcx,QWORD PTR [rax]
    2ff5:	48 8d 50 10          	lea    rdx,[rax+0x10]
    2ff9:	48 39 d1             	cmp    rcx,rdx
    2ffc:	0f 84 7a 06 00 00    	je     367c <_ZN9simulator7saveVtkER4mat2NSt7__cxx1112basic_stringIcSt11char_traitsIcESaIcEEE+0xcac>
    3002:	48 89 8c 24 20 01 00 	mov    QWORD PTR [rsp+0x120],rcx
    3009:	00 
    300a:	48 8b 48 10          	mov    rcx,QWORD PTR [rax+0x10]
    300e:	48 89 8c 24 30 01 00 	mov    QWORD PTR [rsp+0x130],rcx
    3015:	00 
    3016:	48 8b 48 08          	mov    rcx,QWORD PTR [rax+0x8]
    301a:	48 89 8c 24 28 01 00 	mov    QWORD PTR [rsp+0x128],rcx
    3021:	00 
    3022:	48 c7 40 08 00 00 00 	mov    QWORD PTR [rax+0x8],0x0
    3029:	00 
    302a:	c6 40 10 00          	mov    BYTE PTR [rax+0x10],0x0
    302e:	48 89 10             	mov    QWORD PTR [rax],rdx
    3031:	48 b8 ff ff ff ff ff 	movabs rax,0x7fffffffffffffff
    3038:	ff ff 7f 
    303b:	48 39 84 24 28 01 00 	cmp    QWORD PTR [rsp+0x128],rax
    3042:	00 
    3043:	0f 84 2b 09 00 00    	je     3974 <_ZN9simulator7saveVtkER4mat2NSt7__cxx1112basic_stringIcSt11char_traitsIcESaIcEEE+0xfa4>
    3049:	48 8d bc 24 20 01 00 	lea    rdi,[rsp+0x120]
    3050:	00 
    3051:	ba 01 00 00 00       	mov    edx,0x1
    3056:	be 00 00 00 00       	mov    esi,0x0
    305b:	e8 00 00 00 00       	call   3060 <_ZN9simulator7saveVtkER4mat2NSt7__cxx1112basic_stringIcSt11char_traitsIcESaIcEEE+0x690>
    3060:	48 8d 94 24 50 01 00 	lea    rdx,[rsp+0x150]
    3067:	00 
    3068:	48 89 94 24 40 01 00 	mov    QWORD PTR [rsp+0x140],rdx
    306f:	00 
    3070:	48 8b 08             	mov    rcx,QWORD PTR [rax]
    3073:	48 8d 50 10          	lea    rdx,[rax+0x10]
    3077:	48 39 d1             	cmp    rcx,rdx
    307a:	0f 84 df 05 00 00    	je     365f <_ZN9simulator7saveVtkER4mat2NSt7__cxx1112basic_stringIcSt11char_traitsIcESaIcEEE+0xc8f>
    3080:	48 89 8c 24 40 01 00 	mov    QWORD PTR [rsp+0x140],rcx
    3087:	00 
    3088:	48 8b 48 10          	mov    rcx,QWORD PTR [rax+0x10]
    308c:	48 89 8c 24 50 01 00 	mov    QWORD PTR [rsp+0x150],rcx
    3093:	00 
    3094:	48 8b 48 08          	mov    rcx,QWORD PTR [rax+0x8]
    3098:	48 89 8c 24 48 01 00 	mov    QWORD PTR [rsp+0x148],rcx
    309f:	00 
    30a0:	48 89 10             	mov    QWORD PTR [rax],rdx
    30a3:	c6 40 10 00          	mov    BYTE PTR [rax+0x10],0x0
    30a7:	48 8b 8c 24 40 01 00 	mov    rcx,QWORD PTR [rsp+0x140]
    30ae:	00 
    30af:	48 c7 40 08 00 00 00 	mov    QWORD PTR [rax+0x8],0x0
    30b6:	00 
    30b7:	48 8d 84 24 50 01 00 	lea    rax,[rsp+0x150]
    30be:	00 
    30bf:	4c 8b 84 24 48 01 00 	mov    r8,QWORD PTR [rsp+0x148]
    30c6:	00 
    30c7:	48 8b 94 24 08 01 00 	mov    rdx,QWORD PTR [rsp+0x108]
    30ce:	00 
    30cf:	48 39 c1             	cmp    rcx,rax
    30d2:	49 8d 3c 10          	lea    rdi,[r8+rdx*1]
    30d6:	0f 84 79 05 00 00    	je     3655 <_ZN9simulator7saveVtkER4mat2NSt7__cxx1112basic_stringIcSt11char_traitsIcESaIcEEE+0xc85>
    30dc:	48 8b 84 24 50 01 00 	mov    rax,QWORD PTR [rsp+0x150]
    30e3:	00 
    30e4:	48 39 c7             	cmp    rdi,rax
    30e7:	48 8b b4 24 00 01 00 	mov    rsi,QWORD PTR [rsp+0x100]
    30ee:	00 
    30ef:	0f 86 80 04 00 00    	jbe    3575 <_ZN9simulator7saveVtkER4mat2NSt7__cxx1112basic_stringIcSt11char_traitsIcESaIcEEE+0xba5>
    30f5:	48 8d 84 24 10 01 00 	lea    rax,[rsp+0x110]
    30fc:	00 
    30fd:	48 39 c6             	cmp    rsi,rax
    3100:	0f 84 80 08 00 00    	je     3986 <_ZN9simulator7saveVtkER4mat2NSt7__cxx1112basic_stringIcSt11char_traitsIcESaIcEEE+0xfb6>
    3106:	48 8b 84 24 10 01 00 	mov    rax,QWORD PTR [rsp+0x110]
    310d:	00 
    310e:	48 39 c7             	cmp    rdi,rax
    3111:	0f 87 5e 04 00 00    	ja     3575 <_ZN9simulator7saveVtkER4mat2NSt7__cxx1112basic_stringIcSt11char_traitsIcESaIcEEE+0xba5>
    3117:	48 8d bc 24 00 01 00 	lea    rdi,[rsp+0x100]
    311e:	00 
    311f:	31 d2                	xor    edx,edx
    3121:	31 f6                	xor    esi,esi
    3123:	e8 00 00 00 00       	call   3128 <_ZN9simulator7saveVtkER4mat2NSt7__cxx1112basic_stringIcSt11char_traitsIcESaIcEEE+0x758>
    3128:	48 8d 94 24 70 01 00 	lea    rdx,[rsp+0x170]
    312f:	00 
    3130:	48 89 94 24 60 01 00 	mov    QWORD PTR [rsp+0x160],rdx
    3137:	00 
    3138:	48 8b 08             	mov    rcx,QWORD PTR [rax]
    313b:	48 8d 50 10          	lea    rdx,[rax+0x10]
    313f:	48 39 d1             	cmp    rcx,rdx
    3142:	0f 84 f0 04 00 00    	je     3638 <_ZN9simulator7saveVtkER4mat2NSt7__cxx1112basic_stringIcSt11char_traitsIcESaIcEEE+0xc68>
    3148:	48 89 8c 24 60 01 00 	mov    QWORD PTR [rsp+0x160],rcx
    314f:	00 
    3150:	48 8b 48 10          	mov    rcx,QWORD PTR [rax+0x10]
    3154:	48 89 8c 24 70 01 00 	mov    QWORD PTR [rsp+0x170],rcx
    315b:	00 
    315c:	48 8b 48 08          	mov    rcx,QWORD PTR [rax+0x8]
    3160:	48 89 8c 24 68 01 00 	mov    QWORD PTR [rsp+0x168],rcx
    3167:	00 
    3168:	48 c7 40 08 00 00 00 	mov    QWORD PTR [rax+0x8],0x0
    316f:	00 
    3170:	c6 40 10 00          	mov    BYTE PTR [rax+0x10],0x0
    3174:	48 89 10             	mov    QWORD PTR [rax],rdx
    3177:	48 b8 ff ff ff ff ff 	movabs rax,0x7fffffffffffffff
    317e:	ff ff 7f 
    3181:	48 2b 84 24 68 01 00 	sub    rax,QWORD PTR [rsp+0x168]
    3188:	00 
    3189:	48 83 f8 01          	cmp    rax,0x1
    318d:	0f 86 05 08 00 00    	jbe    3998 <_ZN9simulator7saveVtkER4mat2NSt7__cxx1112basic_stringIcSt11char_traitsIcESaIcEEE+0xfc8>
    3193:	48 8d bc 24 60 01 00 	lea    rdi,[rsp+0x160]
    319a:	00 
    319b:	ba 02 00 00 00       	mov    edx,0x2
    31a0:	be 00 00 00 00       	mov    esi,0x0
    31a5:	e8 00 00 00 00       	call   31aa <_ZN9simulator7saveVtkER4mat2NSt7__cxx1112basic_stringIcSt11char_traitsIcESaIcEEE+0x7da>
    31aa:	48 8d 94 24 90 01 00 	lea    rdx,[rsp+0x190]
    31b1:	00 
    31b2:	48 89 94 24 80 01 00 	mov    QWORD PTR [rsp+0x180],rdx
    31b9:	00 
    31ba:	48 8b 08             	mov    rcx,QWORD PTR [rax]
    31bd:	48 8d 50 10          	lea    rdx,[rax+0x10]
    31c1:	48 39 d1             	cmp    rcx,rdx
    31c4:	0f 84 51 04 00 00    	je     361b <_ZN9simulator7saveVtkER4mat2NSt7__cxx1112basic_stringIcSt11char_traitsIcESaIcEEE+0xc4b>
    31ca:	48 89 8c 24 80 01 00 	mov    QWORD PTR [rsp+0x180],rcx
    31d1:	00 
    31d2:	48 8b 48 10          	mov    rcx,QWORD PTR [rax+0x10]
    31d6:	48 89 8c 24 90 01 00 	mov    QWORD PTR [rsp+0x190],rcx
    31dd:	00 
    31de:	48 8b 48 08          	mov    rcx,QWORD PTR [rax+0x8]
    31e2:	48 8d b4 24 80 01 00 	lea    rsi,[rsp+0x180]
    31e9:	00 
    31ea:	48 8d bc 24 a0 01 00 	lea    rdi,[rsp+0x1a0]
    31f1:	00 
    31f2:	48 89 8c 24 88 01 00 	mov    QWORD PTR [rsp+0x188],rcx
    31f9:	00 
    31fa:	48 89 10             	mov    QWORD PTR [rax],rdx
    31fd:	48 c7 40 08 00 00 00 	mov    QWORD PTR [rax+0x8],0x0
    3204:	00 
    3205:	c6 40 10 00          	mov    BYTE PTR [rax+0x10],0x0
    3209:	e8 00 00 00 00       	call   320e <_ZN9simulator7saveVtkER4mat2NSt7__cxx1112basic_stringIcSt11char_traitsIcESaIcEEE+0x83e>
    320e:	48 8b bc 24 80 01 00 	mov    rdi,QWORD PTR [rsp+0x180]
    3215:	00 
    3216:	48 8d 84 24 90 01 00 	lea    rax,[rsp+0x190]
    321d:	00 
    321e:	48 39 c7             	cmp    rdi,rax
    3221:	74 05                	je     3228 <_ZN9simulator7saveVtkER4mat2NSt7__cxx1112basic_stringIcSt11char_traitsIcESaIcEEE+0x858>
    3223:	e8 00 00 00 00       	call   3228 <_ZN9simulator7saveVtkER4mat2NSt7__cxx1112basic_stringIcSt11char_traitsIcESaIcEEE+0x858>
    3228:	48 8b bc 24 60 01 00 	mov    rdi,QWORD PTR [rsp+0x160]
    322f:	00 
    3230:	48 8d 84 24 70 01 00 	lea    rax,[rsp+0x170]
    3237:	00 
    3238:	48 39 c7             	cmp    rdi,rax
    323b:	74 05                	je     3242 <_ZN9simulator7saveVtkER4mat2NSt7__cxx1112basic_stringIcSt11char_traitsIcESaIcEEE+0x872>
    323d:	e8 00 00 00 00       	call   3242 <_ZN9simulator7saveVtkER4mat2NSt7__cxx1112basic_stringIcSt11char_traitsIcESaIcEEE+0x872>
    3242:	48 8b bc 24 40 01 00 	mov    rdi,QWORD PTR [rsp+0x140]
    3249:	00 
    324a:	48 8d 84 24 50 01 00 	lea    rax,[rsp+0x150]
    3251:	00 
    3252:	48 39 c7             	cmp    rdi,rax
    3255:	74 05                	je     325c <_ZN9simulator7saveVtkER4mat2NSt7__cxx1112basic_stringIcSt11char_traitsIcESaIcEEE+0x88c>
    3257:	e8 00 00 00 00       	call   325c <_ZN9simulator7saveVtkER4mat2NSt7__cxx1112basic_stringIcSt11char_traitsIcESaIcEEE+0x88c>
    325c:	48 8b bc 24 20 01 00 	mov    rdi,QWORD PTR [rsp+0x120]
    3263:	00 
    3264:	48 8d 84 24 30 01 00 	lea    rax,[rsp+0x130]
    326b:	00 
    326c:	48 39 c7             	cmp    rdi,rax
    326f:	74 05                	je     3276 <_ZN9simulator7saveVtkER4mat2NSt7__cxx1112basic_stringIcSt11char_traitsIcESaIcEEE+0x8a6>
    3271:	e8 00 00 00 00       	call   3276 <_ZN9simulator7saveVtkER4mat2NSt7__cxx1112basic_stringIcSt11char_traitsIcESaIcEEE+0x8a6>
    3276:	48 8b bc 24 e0 00 00 	mov    rdi,QWORD PTR [rsp+0xe0]
    327d:	00 
    327e:	48 8d 84 24 f0 00 00 	lea    rax,[rsp+0xf0]
    3285:	00 
    3286:	48 39 c7             	cmp    rdi,rax
    3289:	74 05                	je     3290 <_ZN9simulator7saveVtkER4mat2NSt7__cxx1112basic_stringIcSt11char_traitsIcESaIcEEE+0x8c0>
    328b:	e8 00 00 00 00       	call   3290 <_ZN9simulator7saveVtkER4mat2NSt7__cxx1112basic_stringIcSt11char_traitsIcESaIcEEE+0x8c0>
    3290:	48 8b bc 24 00 01 00 	mov    rdi,QWORD PTR [rsp+0x100]
    3297:	00 
    3298:	48 8d 84 24 10 01 00 	lea    rax,[rsp+0x110]
    329f:	00 
    32a0:	48 39 c7             	cmp    rdi,rax
    32a3:	74 05                	je     32aa <_ZN9simulator7saveVtkER4mat2NSt7__cxx1112basic_stringIcSt11char_traitsIcESaIcEEE+0x8da>
    32a5:	e8 00 00 00 00       	call   32aa <_ZN9simulator7saveVtkER4mat2NSt7__cxx1112basic_stringIcSt11char_traitsIcESaIcEEE+0x8da>
    32aa:	48 8d bc 24 a0 01 00 	lea    rdi,[rsp+0x1a0]
    32b1:	00 
    32b2:	e8 00 00 00 00       	call   32b7 <_ZN9simulator7saveVtkER4mat2NSt7__cxx1112basic_stringIcSt11char_traitsIcESaIcEEE+0x8e7>
    32b7:	45 8b 46 24          	mov    r8d,DWORD PTR [r14+0x24]
    32bb:	48 8d bc 24 20 01 00 	lea    rdi,[rsp+0x120]
    32c2:	00 
    32c3:	b9 00 00 00 00       	mov    ecx,0x0
    32c8:	45 0f af 46 28       	imul   r8d,DWORD PTR [r14+0x28]
    32cd:	ba 10 00 00 00       	mov    edx,0x10
    32d2:	be 00 00 00 00       	mov    esi,0x0
    32d7:	31 c0                	xor    eax,eax
    32d9:	e8 00 00 00 00       	call   32de <_ZN9simulator7saveVtkER4mat2NSt7__cxx1112basic_stringIcSt11char_traitsIcESaIcEEE+0x90e>
    32de:	48 8d bc 24 20 01 00 	lea    rdi,[rsp+0x120]
    32e5:	00 
    32e6:	41 b8 0b 00 00 00    	mov    r8d,0xb
    32ec:	b9 00 00 00 00       	mov    ecx,0x0
    32f1:	31 d2                	xor    edx,edx
    32f3:	31 f6                	xor    esi,esi
    32f5:	e8 00 00 00 00       	call   32fa <_ZN9simulator7saveVtkER4mat2NSt7__cxx1112basic_stringIcSt11char_traitsIcESaIcEEE+0x92a>
    32fa:	48 8d 94 24 90 01 00 	lea    rdx,[rsp+0x190]
    3301:	00 
    3302:	48 89 94 24 80 01 00 	mov    QWORD PTR [rsp+0x180],rdx
    3309:	00 
    330a:	48 8b 08             	mov    rcx,QWORD PTR [rax]
    330d:	48 8d 50 10          	lea    rdx,[rax+0x10]
    3311:	48 39 d1             	cmp    rcx,rdx
    3314:	0f 84 e4 02 00 00    	je     35fe <_ZN9simulator7saveVtkER4mat2NSt7__cxx1112basic_stringIcSt11char_traitsIcESaIcEEE+0xc2e>
    331a:	48 89 8c 24 80 01 00 	mov    QWORD PTR [rsp+0x180],rcx
    3321:	00 
    3322:	48 8b 48 10          	mov    rcx,QWORD PTR [rax+0x10]
    3326:	48 89 8c 24 90 01 00 	mov    QWORD PTR [rsp+0x190],rcx
    332d:	00 
    332e:	48 8b 48 08          	mov    rcx,QWORD PTR [rax+0x8]
    3332:	48 8d b4 24 80 01 00 	lea    rsi,[rsp+0x180]
    3339:	00 
    333a:	48 8d bc 24 a0 01 00 	lea    rdi,[rsp+0x1a0]
    3341:	00 
    3342:	48 89 8c 24 88 01 00 	mov    QWORD PTR [rsp+0x188],rcx
    3349:	00 
    334a:	48 89 10             	mov    QWORD PTR [rax],rdx
    334d:	48 c7 40 08 00 00 00 	mov    QWORD PTR [rax+0x8],0x0
    3354:	00 
    3355:	c6 40 10 00          	mov    BYTE PTR [rax+0x10],0x0
    3359:	e8 00 00 00 00       	call   335e <_ZN9simulator7saveVtkER4mat2NSt7__cxx1112basic_stringIcSt11char_traitsIcESaIcEEE+0x98e>
    335e:	48 8b bc 24 80 01 00 	mov    rdi,QWORD PTR [rsp+0x180]
    3365:	00 
    3366:	48 8d 84 24 90 01 00 	lea    rax,[rsp+0x190]
    336d:	00 
    336e:	48 39 c7             	cmp    rdi,rax
    3371:	74 05                	je     3378 <_ZN9simulator7saveVtkER4mat2NSt7__cxx1112basic_stringIcSt11char_traitsIcESaIcEEE+0x9a8>
    3373:	e8 00 00 00 00       	call   3378 <_ZN9simulator7saveVtkER4mat2NSt7__cxx1112basic_stringIcSt11char_traitsIcESaIcEEE+0x9a8>
    3378:	48 8b bc 24 20 01 00 	mov    rdi,QWORD PTR [rsp+0x120]
    337f:	00 
    3380:	48 8d 84 24 30 01 00 	lea    rax,[rsp+0x130]
    3387:	00 
    3388:	48 39 c7             	cmp    rdi,rax
    338b:	74 05                	je     3392 <_ZN9simulator7saveVtkER4mat2NSt7__cxx1112basic_stringIcSt11char_traitsIcESaIcEEE+0x9c2>
    338d:	e8 00 00 00 00       	call   3392 <_ZN9simulator7saveVtkER4mat2NSt7__cxx1112basic_stringIcSt11char_traitsIcESaIcEEE+0x9c2>
    3392:	48 8d bc 24 a0 01 00 	lea    rdi,[rsp+0x1a0]
    3399:	00 
    339a:	e8 00 00 00 00       	call   339f <_ZN9simulator7saveVtkER4mat2NSt7__cxx1112basic_stringIcSt11char_traitsIcESaIcEEE+0x9cf>
    339f:	48 8d 84 24 50 01 00 	lea    rax,[rsp+0x150]
    33a6:	00 
    33a7:	48 8d bc 24 40 01 00 	lea    rdi,[rsp+0x140]
    33ae:	00 
    33af:	ba 00 00 00 00       	mov    edx,0x0
    33b4:	be 00 00 00 00       	mov    esi,0x0
    33b9:	48 89 84 24 40 01 00 	mov    QWORD PTR [rsp+0x140],rax
    33c0:	00 
    33c1:	e8 3a cc ff ff       	call   0 <_ZNSt7__cxx1112basic_stringIcSt11char_traitsIcESaIcEE12_M_constructIPKcEEvT_S8_St20forward_iterator_tag.isra.36>
    33c6:	48 8d b4 24 40 01 00 	lea    rsi,[rsp+0x140]
    33cd:	00 
    33ce:	48 8d bc 24 a0 01 00 	lea    rdi,[rsp+0x1a0]
    33d5:	00 
    33d6:	e8 00 00 00 00       	call   33db <_ZN9simulator7saveVtkER4mat2NSt7__cxx1112basic_stringIcSt11char_traitsIcESaIcEEE+0xa0b>
    33db:	48 8b bc 24 40 01 00 	mov    rdi,QWORD PTR [rsp+0x140]
    33e2:	00 
    33e3:	48 8d 84 24 50 01 00 	lea    rax,[rsp+0x150]
    33ea:	00 
    33eb:	48 39 c7             	cmp    rdi,rax
    33ee:	74 05                	je     33f5 <_ZN9simulator7saveVtkER4mat2NSt7__cxx1112basic_stringIcSt11char_traitsIcESaIcEEE+0xa25>
    33f0:	e8 00 00 00 00       	call   33f5 <_ZN9simulator7saveVtkER4mat2NSt7__cxx1112basic_stringIcSt11char_traitsIcESaIcEEE+0xa25>
    33f5:	48 8d bc 24 a0 01 00 	lea    rdi,[rsp+0x1a0]
    33fc:	00 
    33fd:	e8 00 00 00 00       	call   3402 <_ZN9simulator7saveVtkER4mat2NSt7__cxx1112basic_stringIcSt11char_traitsIcESaIcEEE+0xa32>
    3402:	48 8d 84 24 70 01 00 	lea    rax,[rsp+0x170]
    3409:	00 
    340a:	48 8d bc 24 60 01 00 	lea    rdi,[rsp+0x160]
    3411:	00 
    3412:	ba 00 00 00 00       	mov    edx,0x0
    3417:	be 00 00 00 00       	mov    esi,0x0
    341c:	48 89 84 24 60 01 00 	mov    QWORD PTR [rsp+0x160],rax
    3423:	00 
    3424:	e8 d7 cb ff ff       	call   0 <_ZNSt7__cxx1112basic_stringIcSt11char_traitsIcESaIcEE12_M_constructIPKcEEvT_S8_St20forward_iterator_tag.isra.36>
    3429:	48 8d b4 24 60 01 00 	lea    rsi,[rsp+0x160]
    3430:	00 
    3431:	48 8d bc 24 a0 01 00 	lea    rdi,[rsp+0x1a0]
    3438:	00 
    3439:	e8 00 00 00 00       	call   343e <_ZN9simulator7saveVtkER4mat2NSt7__cxx1112basic_stringIcSt11char_traitsIcESaIcEEE+0xa6e>
    343e:	48 8b bc 24 60 01 00 	mov    rdi,QWORD PTR [rsp+0x160]
    3445:	00 
    3446:	48 8d 84 24 70 01 00 	lea    rax,[rsp+0x170]
    344d:	00 
    344e:	48 39 c7             	cmp    rdi,rax
    3451:	74 05                	je     3458 <_ZN9simulator7saveVtkER4mat2NSt7__cxx1112basic_stringIcSt11char_traitsIcESaIcEEE+0xa88>
    3453:	e8 00 00 00 00       	call   3458 <_ZN9simulator7saveVtkER4mat2NSt7__cxx1112basic_stringIcSt11char_traitsIcESaIcEEE+0xa88>
    3458:	48 8d bc 24 a0 01 00 	lea    rdi,[rsp+0x1a0]
    345f:	00 
    3460:	e8 00 00 00 00       	call   3465 <_ZN9simulator7saveVtkER4mat2NSt7__cxx1112basic_stringIcSt11char_traitsIcESaIcEEE+0xa95>
    3465:	41 8b 56 24          	mov    edx,DWORD PTR [r14+0x24]
    3469:	45 31 ed             	xor    r13d,r13d
    346c:	4c 8d a4 24 90 01 00 	lea    r12,[rsp+0x190]
    3473:	00 
    3474:	85 d2                	test   edx,edx
    3476:	0f 8e 92 00 00 00    	jle    350e <_ZN9simulator7saveVtkER4mat2NSt7__cxx1112basic_stringIcSt11char_traitsIcESaIcEEE+0xb3e>
    347c:	0f 1f 40 00          	nop    DWORD PTR [rax+0x0]
    3480:	41 8b 46 28          	mov    eax,DWORD PTR [r14+0x28]
    3484:	31 db                	xor    ebx,ebx
    3486:	85 c0                	test   eax,eax
    3488:	7e 76                	jle    3500 <_ZN9simulator7saveVtkER4mat2NSt7__cxx1112basic_stringIcSt11char_traitsIcESaIcEEE+0xb30>
    348a:	66 0f 1f 44 00 00    	nop    WORD PTR [rax+rax*1+0x0]
    3490:	8b 45 0c             	mov    eax,DWORD PTR [rbp+0xc]
    3493:	48 8b 55 00          	mov    rdx,QWORD PTR [rbp+0x0]
    3497:	48 8d bc 24 a0 01 00 	lea    rdi,[rsp+0x1a0]
    349e:	00 
    349f:	41 0f af c5          	imul   eax,r13d
    34a3:	01 d8                	add    eax,ebx
    34a5:	48 98                	cdqe   
    34a7:	f3 0f 10 04 82       	movss  xmm0,DWORD PTR [rdx+rax*4]
    34ac:	e8 00 00 00 00       	call   34b1 <_ZN9simulator7saveVtkER4mat2NSt7__cxx1112basic_stringIcSt11char_traitsIcESaIcEEE+0xae1>
    34b1:	48 8d bc 24 80 01 00 	lea    rdi,[rsp+0x180]
    34b8:	00 
    34b9:	ba 00 00 00 00       	mov    edx,0x0
    34be:	be 00 00 00 00       	mov    esi,0x0
    34c3:	4c 89 a4 24 80 01 00 	mov    QWORD PTR [rsp+0x180],r12
    34ca:	00 
    34cb:	e8 30 cb ff ff       	call   0 <_ZNSt7__cxx1112basic_stringIcSt11char_traitsIcESaIcEE12_M_constructIPKcEEvT_S8_St20forward_iterator_tag.isra.36>
    34d0:	48 8d b4 24 80 01 00 	lea    rsi,[rsp+0x180]
    34d7:	00 
    34d8:	48 8d bc 24 a0 01 00 	lea    rdi,[rsp+0x1a0]
    34df:	00 
    34e0:	e8 00 00 00 00       	call   34e5 <_ZN9simulator7saveVtkER4mat2NSt7__cxx1112basic_stringIcSt11char_traitsIcESaIcEEE+0xb15>
    34e5:	48 8b bc 24 80 01 00 	mov    rdi,QWORD PTR [rsp+0x180]
    34ec:	00 
    34ed:	4c 39 e7             	cmp    rdi,r12
    34f0:	74 05                	je     34f7 <_ZN9simulator7saveVtkER4mat2NSt7__cxx1112basic_stringIcSt11char_traitsIcESaIcEEE+0xb27>
    34f2:	e8 00 00 00 00       	call   34f7 <_ZN9simulator7saveVtkER4mat2NSt7__cxx1112basic_stringIcSt11char_traitsIcESaIcEEE+0xb27>
    34f7:	83 c3 01             	add    ebx,0x1
    34fa:	41 39 5e 28          	cmp    DWORD PTR [r14+0x28],ebx
    34fe:	7f 90                	jg     3490 <_ZN9simulator7saveVtkER4mat2NSt7__cxx1112basic_stringIcSt11char_traitsIcESaIcEEE+0xac0>
    3500:	41 83 c5 01          	add    r13d,0x1
    3504:	45 39 6e 24          	cmp    DWORD PTR [r14+0x24],r13d
    3508:	0f 8f 72 ff ff ff    	jg     3480 <_ZN9simulator7saveVtkER4mat2NSt7__cxx1112basic_stringIcSt11char_traitsIcESaIcEEE+0xab0>
    350e:	48 8d 84 24 a0 01 00 	lea    rax,[rsp+0x1a0]
    3515:	00 
    3516:	48 8d b8 50 02 00 00 	lea    rdi,[rax+0x250]
    351d:	e8 00 00 00 00       	call   3522 <_ZN9simulator7saveVtkER4mat2NSt7__cxx1112basic_stringIcSt11char_traitsIcESaIcEEE+0xb52>
    3522:	48 85 c0             	test   rax,rax
    3525:	0f 84 af 00 00 00    	je     35da <_ZN9simulator7saveVtkER4mat2NSt7__cxx1112basic_stringIcSt11char_traitsIcESaIcEEE+0xc0a>
    352b:	48 8d 84 24 a0 01 00 	lea    rax,[rsp+0x1a0]
    3532:	00 
    3533:	48 8d 78 48          	lea    rdi,[rax+0x48]
    3537:	e8 00 00 00 00       	call   353c <_ZN9simulator7saveVtkER4mat2NSt7__cxx1112basic_stringIcSt11char_traitsIcESaIcEEE+0xb6c>
    353c:	48 85 c0             	test   rax,rax
    353f:	74 75                	je     35b6 <_ZN9simulator7saveVtkER4mat2NSt7__cxx1112basic_stringIcSt11char_traitsIcESaIcEEE+0xbe6>
    3541:	48 8d bc 24 a0 01 00 	lea    rdi,[rsp+0x1a0]
    3548:	00 
    3549:	e8 00 00 00 00       	call   354e <_ZN9simulator7saveVtkER4mat2NSt7__cxx1112basic_stringIcSt11char_traitsIcESaIcEEE+0xb7e>
    354e:	48 8b 84 24 e8 05 00 	mov    rax,QWORD PTR [rsp+0x5e8]
    3555:	00 
    3556:	64 48 33 04 25 28 00 	xor    rax,QWORD PTR fs:0x28
    355d:	00 00 
    355f:	0f 85 50 02 00 00    	jne    37b5 <_ZN9simulator7saveVtkER4mat2NSt7__cxx1112basic_stringIcSt11char_traitsIcESaIcEEE+0xde5>
    3565:	48 81 c4 f0 05 00 00 	add    rsp,0x5f0
    356c:	5b                   	pop    rbx
    356d:	5d                   	pop    rbp
    356e:	41 5c                	pop    r12
    3570:	41 5d                	pop    r13
    3572:	41 5e                	pop    r14
    3574:	c3                   	ret    
    3575:	48 8d bc 24 40 01 00 	lea    rdi,[rsp+0x140]
    357c:	00 
    357d:	e8 00 00 00 00       	call   3582 <_ZN9simulator7saveVtkER4mat2NSt7__cxx1112basic_stringIcSt11char_traitsIcESaIcEEE+0xbb2>
    3582:	e9 a1 fb ff ff       	jmp    3128 <_ZN9simulator7saveVtkER4mat2NSt7__cxx1112basic_stringIcSt11char_traitsIcESaIcEEE+0x758>
    3587:	48 8d bc 24 40 01 00 	lea    rdi,[rsp+0x140]
    358e:	00 
    358f:	e8 00 00 00 00       	call   3594 <_ZN9simulator7saveVtkER4mat2NSt7__cxx1112basic_stringIcSt11char_traitsIcESaIcEEE+0xbc4>
    3594:	e9 e5 f7 ff ff       	jmp    2d7e <_ZN9simulator7saveVtkER4mat2NSt7__cxx1112basic_stringIcSt11char_traitsIcESaIcEEE+0x3ae>
    3599:	48 8b 48 10          	mov    rcx,QWORD PTR [rax+0x10]
    359d:	48 8b 58 18          	mov    rbx,QWORD PTR [rax+0x18]
    35a1:	48 89 8c 24 30 01 00 	mov    QWORD PTR [rsp+0x130],rcx
    35a8:	00 
    35a9:	48 89 9c 24 38 01 00 	mov    QWORD PTR [rsp+0x138],rbx
    35b0:	00 
    35b1:	e9 b6 f6 ff ff       	jmp    2c6c <_ZN9simulator7saveVtkER4mat2NSt7__cxx1112basic_stringIcSt11char_traitsIcESaIcEEE+0x29c>
    35b6:	48 8b 84 24 e0 01 00 	mov    rax,QWORD PTR [rsp+0x1e0]
    35bd:	00 
    35be:	48 8b 40 e8          	mov    rax,QWORD PTR [rax-0x18]
    35c2:	48 8d bc 04 e0 01 00 	lea    rdi,[rsp+rax*1+0x1e0]
    35c9:	00 
    35ca:	8b 77 20             	mov    esi,DWORD PTR [rdi+0x20]
    35cd:	83 ce 04             	or     esi,0x4
    35d0:	e8 00 00 00 00       	call   35d5 <_ZN9simulator7saveVtkER4mat2NSt7__cxx1112basic_stringIcSt11char_traitsIcESaIcEEE+0xc05>
    35d5:	e9 67 ff ff ff       	jmp    3541 <_ZN9simulator7saveVtkER4mat2NSt7__cxx1112basic_stringIcSt11char_traitsIcESaIcEEE+0xb71>
    35da:	48 8b 84 24 e0 03 00 	mov    rax,QWORD PTR [rsp+0x3e0]
    35e1:	00 
    35e2:	48 8b 40 e8          	mov    rax,QWORD PTR [rax-0x18]
    35e6:	48 8d bc 04 e0 03 00 	lea    rdi,[rsp+rax*1+0x3e0]
    35ed:	00 
    35ee:	8b 77 20             	mov    esi,DWORD PTR [rdi+0x20]
    35f1:	83 ce 04             	or     esi,0x4
    35f4:	e8 00 00 00 00       	call   35f9 <_ZN9simulator7saveVtkER4mat2NSt7__cxx1112basic_stringIcSt11char_traitsIcESaIcEEE+0xc29>
    35f9:	e9 2d ff ff ff       	jmp    352b <_ZN9simulator7saveVtkER4mat2NSt7__cxx1112basic_stringIcSt11char_traitsIcESaIcEEE+0xb5b>
    35fe:	48 8b 48 10          	mov    rcx,QWORD PTR [rax+0x10]
    3602:	48 8b 58 18          	mov    rbx,QWORD PTR [rax+0x18]
    3606:	48 89 8c 24 90 01 00 	mov    QWORD PTR [rsp+0x190],rcx
    360d:	00 
    360e:	48 89 9c 24 98 01 00 	mov    QWORD PTR [rsp+0x198],rbx
    3615:	00 
    3616:	e9 13 fd ff ff       	jmp    332e <_ZN9simulator7saveVtkER4mat2NSt7__cxx1112basic_stringIcSt11char_traitsIcESaIcEEE+0x95e>
    361b:	48 8b 48 10          	mov    rcx,QWORD PTR [rax+0x10]
    361f:	48 8b 58 18          	mov    rbx,QWORD PTR [rax+0x18]
    3623:	48 89 8c 24 90 01 00 	mov    QWORD PTR [rsp+0x190],rcx
    362a:	00 
    362b:	48 89 9c 24 98 01 00 	mov    QWORD PTR [rsp+0x198],rbx
    3632:	00 
    3633:	e9 a6 fb ff ff       	jmp    31de <_ZN9simulator7saveVtkER4mat2NSt7__cxx1112basic_stringIcSt11char_traitsIcESaIcEEE+0x80e>
    3638:	48 8b 48 10          	mov    rcx,QWORD PTR [rax+0x10]
    363c:	48 8b 58 18          	mov    rbx,QWORD PTR [rax+0x18]
    3640:	48 89 8c 24 70 01 00 	mov    QWORD PTR [rsp+0x170],rcx
    3647:	00 
    3648:	48 89 9c 24 78 01 00 	mov    QWORD PTR [rsp+0x178],rbx
    364f:	00 
    3650:	e9 07 fb ff ff       	jmp    315c <_ZN9simulator7saveVtkER4mat2NSt7__cxx1112basic_stringIcSt11char_traitsIcESaIcEEE+0x78c>
    3655:	b8 0f 00 00 00       	mov    eax,0xf
    365a:	e9 85 fa ff ff       	jmp    30e4 <_ZN9simulator7saveVtkER4mat2NSt7__cxx1112basic_stringIcSt11char_traitsIcESaIcEEE+0x714>
    365f:	48 8b 48 10          	mov    rcx,QWORD PTR [rax+0x10]
    3663:	48 8b 58 18          	mov    rbx,QWORD PTR [rax+0x18]
    3667:	48 89 8c 24 50 01 00 	mov    QWORD PTR [rsp+0x150],rcx
    366e:	00 
    366f:	48 89 9c 24 58 01 00 	mov    QWORD PTR [rsp+0x158],rbx
    3676:	00 
    3677:	e9 18 fa ff ff       	jmp    3094 <_ZN9simulator7saveVtkER4mat2NSt7__cxx1112basic_stringIcSt11char_traitsIcESaIcEEE+0x6c4>
    367c:	48 8b 48 10          	mov    rcx,QWORD PTR [rax+0x10]
    3680:	48 8b 58 18          	mov    rbx,QWORD PTR [rax+0x18]
    3684:	48 89 8c 24 30 01 00 	mov    QWORD PTR [rsp+0x130],rcx
    368b:	00 
    368c:	48 89 9c 24 38 01 00 	mov    QWORD PTR [rsp+0x138],rbx
    3693:	00 
    3694:	e9 7d f9 ff ff       	jmp    3016 <_ZN9simulator7saveVtkER4mat2NSt7__cxx1112basic_stringIcSt11char_traitsIcESaIcEEE+0x646>
    3699:	48 8b 48 10          	mov    rcx,QWORD PTR [rax+0x10]
    369d:	48 8b 58 18          	mov    rbx,QWORD PTR [rax+0x18]
    36a1:	48 89 8c 24 90 01 00 	mov    QWORD PTR [rsp+0x190],rcx
    36a8:	00 
    36a9:	48 89 9c 24 98 01 00 	mov    QWORD PTR [rsp+0x198],rbx
    36b0:	00 
    36b1:	e9 7e f7 ff ff       	jmp    2e34 <_ZN9simulator7saveVtkER4mat2NSt7__cxx1112basic_stringIcSt11char_traitsIcESaIcEEE+0x464>
    36b6:	48 8b 48 10          	mov    rcx,QWORD PTR [rax+0x10]
    36ba:	48 8b 58 18          	mov    rbx,QWORD PTR [rax+0x18]
    36be:	48 89 8c 24 70 01 00 	mov    QWORD PTR [rsp+0x170],rcx
    36c5:	00 
    36c6:	48 89 9c 24 78 01 00 	mov    QWORD PTR [rsp+0x178],rbx
    36cd:	00 
    36ce:	e9 df f6 ff ff       	jmp    2db2 <_ZN9simulator7saveVtkER4mat2NSt7__cxx1112basic_stringIcSt11char_traitsIcESaIcEEE+0x3e2>
    36d3:	b8 0f 00 00 00       	mov    eax,0xf
    36d8:	e9 5d f6 ff ff       	jmp    2d3a <_ZN9simulator7saveVtkER4mat2NSt7__cxx1112basic_stringIcSt11char_traitsIcESaIcEEE+0x36a>
    36dd:	48 8b 48 10          	mov    rcx,QWORD PTR [rax+0x10]
    36e1:	48 8b 58 18          	mov    rbx,QWORD PTR [rax+0x18]
    36e5:	48 89 8c 24 50 01 00 	mov    QWORD PTR [rsp+0x150],rcx
    36ec:	00 
    36ed:	48 89 9c 24 58 01 00 	mov    QWORD PTR [rsp+0x158],rbx
    36f4:	00 
    36f5:	e9 f0 f5 ff ff       	jmp    2cea <_ZN9simulator7saveVtkER4mat2NSt7__cxx1112basic_stringIcSt11char_traitsIcESaIcEEE+0x31a>
    36fa:	48 8b bc 24 c0 00 00 	mov    rdi,QWORD PTR [rsp+0xc0]
    3701:	00 
    3702:	48 89 c3             	mov    rbx,rax
    3705:	48 8d 84 24 d0 00 00 	lea    rax,[rsp+0xd0]
    370c:	00 
    370d:	48 39 c7             	cmp    rdi,rax
    3710:	74 05                	je     3717 <_ZN9simulator7saveVtkER4mat2NSt7__cxx1112basic_stringIcSt11char_traitsIcESaIcEEE+0xd47>
    3712:	e8 00 00 00 00       	call   3717 <_ZN9simulator7saveVtkER4mat2NSt7__cxx1112basic_stringIcSt11char_traitsIcESaIcEEE+0xd47>
    3717:	48 8d bc 24 a0 01 00 	lea    rdi,[rsp+0x1a0]
    371e:	00 
    371f:	e8 00 00 00 00       	call   3724 <_ZN9simulator7saveVtkER4mat2NSt7__cxx1112basic_stringIcSt11char_traitsIcESaIcEEE+0xd54>
    3724:	48 89 df             	mov    rdi,rbx
    3727:	e8 00 00 00 00       	call   372c <_ZN9simulator7saveVtkER4mat2NSt7__cxx1112basic_stringIcSt11char_traitsIcESaIcEEE+0xd5c>
    372c:	48 8b bc 24 80 01 00 	mov    rdi,QWORD PTR [rsp+0x180]
    3733:	00 
    3734:	48 89 c3             	mov    rbx,rax
    3737:	48 8d 84 24 90 01 00 	lea    rax,[rsp+0x190]
    373e:	00 
    373f:	48 39 c7             	cmp    rdi,rax
    3742:	74 05                	je     3749 <_ZN9simulator7saveVtkER4mat2NSt7__cxx1112basic_stringIcSt11char_traitsIcESaIcEEE+0xd79>
    3744:	e8 00 00 00 00       	call   3749 <_ZN9simulator7saveVtkER4mat2NSt7__cxx1112basic_stringIcSt11char_traitsIcESaIcEEE+0xd79>
    3749:	48 8b bc 24 20 01 00 	mov    rdi,QWORD PTR [rsp+0x120]
    3750:	00 
    3751:	48 8d 84 24 30 01 00 	lea    rax,[rsp+0x130]
    3758:	00 
    3759:	48 39 c7             	cmp    rdi,rax
    375c:	75 b4                	jne    3712 <_ZN9simulator7saveVtkER4mat2NSt7__cxx1112basic_stringIcSt11char_traitsIcESaIcEEE+0xd42>
    375e:	eb b7                	jmp    3717 <_ZN9simulator7saveVtkER4mat2NSt7__cxx1112basic_stringIcSt11char_traitsIcESaIcEEE+0xd47>
    3760:	48 8b bc 24 40 01 00 	mov    rdi,QWORD PTR [rsp+0x140]
    3767:	00 
    3768:	48 89 c3             	mov    rbx,rax
    376b:	48 8d 84 24 50 01 00 	lea    rax,[rsp+0x150]
    3772:	00 
    3773:	48 39 c7             	cmp    rdi,rax
    3776:	75 9a                	jne    3712 <_ZN9simulator7saveVtkER4mat2NSt7__cxx1112basic_stringIcSt11char_traitsIcESaIcEEE+0xd42>
    3778:	eb 9d                	jmp    3717 <_ZN9simulator7saveVtkER4mat2NSt7__cxx1112basic_stringIcSt11char_traitsIcESaIcEEE+0xd47>
    377a:	48 8b bc 24 60 01 00 	mov    rdi,QWORD PTR [rsp+0x160]
    3781:	00 
    3782:	48 89 c3             	mov    rbx,rax
    3785:	48 8d 84 24 70 01 00 	lea    rax,[rsp+0x170]
    378c:	00 
    378d:	48 39 c7             	cmp    rdi,rax
    3790:	75 80                	jne    3712 <_ZN9simulator7saveVtkER4mat2NSt7__cxx1112basic_stringIcSt11char_traitsIcESaIcEEE+0xd42>
    3792:	eb 83                	jmp    3717 <_ZN9simulator7saveVtkER4mat2NSt7__cxx1112basic_stringIcSt11char_traitsIcESaIcEEE+0xd47>
    3794:	48 8b bc 24 80 01 00 	mov    rdi,QWORD PTR [rsp+0x180]
    379b:	00 
    379c:	48 89 c3             	mov    rbx,rax
    379f:	48 8d 84 24 90 01 00 	lea    rax,[rsp+0x190]
    37a6:	00 
    37a7:	48 39 c7             	cmp    rdi,rax
    37aa:	0f 85 62 ff ff ff    	jne    3712 <_ZN9simulator7saveVtkER4mat2NSt7__cxx1112basic_stringIcSt11char_traitsIcESaIcEEE+0xd42>
    37b0:	e9 62 ff ff ff       	jmp    3717 <_ZN9simulator7saveVtkER4mat2NSt7__cxx1112basic_stringIcSt11char_traitsIcESaIcEEE+0xd47>
    37b5:	e8 00 00 00 00       	call   37ba <_ZN9simulator7saveVtkER4mat2NSt7__cxx1112basic_stringIcSt11char_traitsIcESaIcEEE+0xdea>
    37ba:	48 89 c3             	mov    rbx,rax
    37bd:	48 8b bc 24 80 01 00 	mov    rdi,QWORD PTR [rsp+0x180]
    37c4:	00 
    37c5:	48 8d 84 24 90 01 00 	lea    rax,[rsp+0x190]
    37cc:	00 
    37cd:	48 39 c7             	cmp    rdi,rax
    37d0:	0f 84 4e ff ff ff    	je     3724 <_ZN9simulator7saveVtkER4mat2NSt7__cxx1112basic_stringIcSt11char_traitsIcESaIcEEE+0xd54>
    37d6:	e8 00 00 00 00       	call   37db <_ZN9simulator7saveVtkER4mat2NSt7__cxx1112basic_stringIcSt11char_traitsIcESaIcEEE+0xe0b>
    37db:	e9 44 ff ff ff       	jmp    3724 <_ZN9simulator7saveVtkER4mat2NSt7__cxx1112basic_stringIcSt11char_traitsIcESaIcEEE+0xd54>
    37e0:	48 8b bc 24 80 01 00 	mov    rdi,QWORD PTR [rsp+0x180]
    37e7:	00 
    37e8:	48 89 c3             	mov    rbx,rax
    37eb:	48 8d 84 24 90 01 00 	lea    rax,[rsp+0x190]
    37f2:	00 
    37f3:	48 39 c7             	cmp    rdi,rax
    37f6:	74 05                	je     37fd <_ZN9simulator7saveVtkER4mat2NSt7__cxx1112basic_stringIcSt11char_traitsIcESaIcEEE+0xe2d>
    37f8:	e8 00 00 00 00       	call   37fd <_ZN9simulator7saveVtkER4mat2NSt7__cxx1112basic_stringIcSt11char_traitsIcESaIcEEE+0xe2d>
    37fd:	48 8b bc 24 60 01 00 	mov    rdi,QWORD PTR [rsp+0x160]
    3804:	00 
    3805:	48 8d 84 24 70 01 00 	lea    rax,[rsp+0x170]
    380c:	00 
    380d:	48 39 c7             	cmp    rdi,rax
    3810:	74 05                	je     3817 <_ZN9simulator7saveVtkER4mat2NSt7__cxx1112basic_stringIcSt11char_traitsIcESaIcEEE+0xe47>
    3812:	e8 00 00 00 00       	call   3817 <_ZN9simulator7saveVtkER4mat2NSt7__cxx1112basic_stringIcSt11char_traitsIcESaIcEEE+0xe47>
    3817:	48 8b bc 24 40 01 00 	mov    rdi,QWORD PTR [rsp+0x140]
    381e:	00 
    381f:	48 8d 84 24 50 01 00 	lea    rax,[rsp+0x150]
    3826:	00 
    3827:	48 39 c7             	cmp    rdi,rax
    382a:	74 05                	je     3831 <_ZN9simulator7saveVtkER4mat2NSt7__cxx1112basic_stringIcSt11char_traitsIcESaIcEEE+0xe61>
    382c:	e8 00 00 00 00       	call   3831 <_ZN9simulator7saveVtkER4mat2NSt7__cxx1112basic_stringIcSt11char_traitsIcESaIcEEE+0xe61>
    3831:	48 8b bc 24 20 01 00 	mov    rdi,QWORD PTR [rsp+0x120]
    3838:	00 
    3839:	48 8d 84 24 30 01 00 	lea    rax,[rsp+0x130]
    3840:	00 
    3841:	48 39 c7             	cmp    rdi,rax
    3844:	74 05                	je     384b <_ZN9simulator7saveVtkER4mat2NSt7__cxx1112basic_stringIcSt11char_traitsIcESaIcEEE+0xe7b>
    3846:	e8 00 00 00 00       	call   384b <_ZN9simulator7saveVtkER4mat2NSt7__cxx1112basic_stringIcSt11char_traitsIcESaIcEEE+0xe7b>
    384b:	48 8b bc 24 e0 00 00 	mov    rdi,QWORD PTR [rsp+0xe0]
    3852:	00 
    3853:	48 8d 84 24 f0 00 00 	lea    rax,[rsp+0xf0]
    385a:	00 
    385b:	48 39 c7             	cmp    rdi,rax
    385e:	74 05                	je     3865 <_ZN9simulator7saveVtkER4mat2NSt7__cxx1112basic_stringIcSt11char_traitsIcESaIcEEE+0xe95>
    3860:	e8 00 00 00 00       	call   3865 <_ZN9simulator7saveVtkER4mat2NSt7__cxx1112basic_stringIcSt11char_traitsIcESaIcEEE+0xe95>
    3865:	48 8b bc 24 00 01 00 	mov    rdi,QWORD PTR [rsp+0x100]
    386c:	00 
    386d:	48 8d 84 24 10 01 00 	lea    rax,[rsp+0x110]
    3874:	00 
    3875:	48 39 c7             	cmp    rdi,rax
    3878:	0f 85 94 fe ff ff    	jne    3712 <_ZN9simulator7saveVtkER4mat2NSt7__cxx1112basic_stringIcSt11char_traitsIcESaIcEEE+0xd42>
    387e:	e9 94 fe ff ff       	jmp    3717 <_ZN9simulator7saveVtkER4mat2NSt7__cxx1112basic_stringIcSt11char_traitsIcESaIcEEE+0xd47>
    3883:	48 89 c3             	mov    rbx,rax
    3886:	e9 be fe ff ff       	jmp    3749 <_ZN9simulator7saveVtkER4mat2NSt7__cxx1112basic_stringIcSt11char_traitsIcESaIcEEE+0xd79>
    388b:	48 8b bc 24 60 01 00 	mov    rdi,QWORD PTR [rsp+0x160]
    3892:	00 
    3893:	48 89 c3             	mov    rbx,rax
    3896:	48 8d 84 24 70 01 00 	lea    rax,[rsp+0x170]
    389d:	00 
    389e:	48 39 c7             	cmp    rdi,rax
    38a1:	0f 84 16 ff ff ff    	je     37bd <_ZN9simulator7saveVtkER4mat2NSt7__cxx1112basic_stringIcSt11char_traitsIcESaIcEEE+0xded>
    38a7:	e8 00 00 00 00       	call   38ac <_ZN9simulator7saveVtkER4mat2NSt7__cxx1112basic_stringIcSt11char_traitsIcESaIcEEE+0xedc>
    38ac:	e9 0c ff ff ff       	jmp    37bd <_ZN9simulator7saveVtkER4mat2NSt7__cxx1112basic_stringIcSt11char_traitsIcESaIcEEE+0xded>
    38b1:	48 89 c3             	mov    rbx,rax
    38b4:	e9 5e fe ff ff       	jmp    3717 <_ZN9simulator7saveVtkER4mat2NSt7__cxx1112basic_stringIcSt11char_traitsIcESaIcEEE+0xd47>
    38b9:	48 8b 3c 24          	mov    rdi,QWORD PTR [rsp]
    38bd:	48 89 c3             	mov    rbx,rax
    38c0:	48 8d 44 24 10       	lea    rax,[rsp+0x10]
    38c5:	48 39 c7             	cmp    rdi,rax
    38c8:	0f 85 44 fe ff ff    	jne    3712 <_ZN9simulator7saveVtkER4mat2NSt7__cxx1112basic_stringIcSt11char_traitsIcESaIcEEE+0xd42>
    38ce:	e9 44 fe ff ff       	jmp    3717 <_ZN9simulator7saveVtkER4mat2NSt7__cxx1112basic_stringIcSt11char_traitsIcESaIcEEE+0xd47>
    38d3:	48 8b 7c 24 20       	mov    rdi,QWORD PTR [rsp+0x20]
    38d8:	48 89 c3             	mov    rbx,rax
    38db:	48 8d 44 24 30       	lea    rax,[rsp+0x30]
    38e0:	48 39 c7             	cmp    rdi,rax
    38e3:	0f 85 29 fe ff ff    	jne    3712 <_ZN9simulator7saveVtkER4mat2NSt7__cxx1112basic_stringIcSt11char_traitsIcESaIcEEE+0xd42>
    38e9:	e9 29 fe ff ff       	jmp    3717 <_ZN9simulator7saveVtkER4mat2NSt7__cxx1112basic_stringIcSt11char_traitsIcESaIcEEE+0xd47>
    38ee:	48 8b 7c 24 40       	mov    rdi,QWORD PTR [rsp+0x40]
    38f3:	48 89 c3             	mov    rbx,rax
    38f6:	48 8d 44 24 50       	lea    rax,[rsp+0x50]
    38fb:	48 39 c7             	cmp    rdi,rax
    38fe:	0f 85 0e fe ff ff    	jne    3712 <_ZN9simulator7saveVtkER4mat2NSt7__cxx1112basic_stringIcSt11char_traitsIcESaIcEEE+0xd42>
    3904:	e9 0e fe ff ff       	jmp    3717 <_ZN9simulator7saveVtkER4mat2NSt7__cxx1112basic_stringIcSt11char_traitsIcESaIcEEE+0xd47>
    3909:	48 8b 7c 24 60       	mov    rdi,QWORD PTR [rsp+0x60]
    390e:	48 89 c3             	mov    rbx,rax
    3911:	48 8d 44 24 70       	lea    rax,[rsp+0x70]
    3916:	48 39 c7             	cmp    rdi,rax
    3919:	0f 85 f3 fd ff ff    	jne    3712 <_ZN9simulator7saveVtkER4mat2NSt7__cxx1112basic_stringIcSt11char_traitsIcESaIcEEE+0xd42>
    391f:	e9 f3 fd ff ff       	jmp    3717 <_ZN9simulator7saveVtkER4mat2NSt7__cxx1112basic_stringIcSt11char_traitsIcESaIcEEE+0xd47>
    3924:	48 89 c3             	mov    rbx,rax
    3927:	48 8b bc 24 a0 00 00 	mov    rdi,QWORD PTR [rsp+0xa0]
    392e:	00 
    392f:	48 8d 84 24 b0 00 00 	lea    rax,[rsp+0xb0]
    3936:	00 
    3937:	48 39 c7             	cmp    rdi,rax
    393a:	0f 85 d2 fd ff ff    	jne    3712 <_ZN9simulator7saveVtkER4mat2NSt7__cxx1112basic_stringIcSt11char_traitsIcESaIcEEE+0xd42>
    3940:	e9 d2 fd ff ff       	jmp    3717 <_ZN9simulator7saveVtkER4mat2NSt7__cxx1112basic_stringIcSt11char_traitsIcESaIcEEE+0xd47>
    3945:	48 89 c3             	mov    rbx,rax
    3948:	48 8b bc 24 80 00 00 	mov    rdi,QWORD PTR [rsp+0x80]
    394f:	00 
    3950:	48 8d 84 24 90 00 00 	lea    rax,[rsp+0x90]
    3957:	00 
    3958:	48 39 c7             	cmp    rdi,rax
    395b:	74 ca                	je     3927 <_ZN9simulator7saveVtkER4mat2NSt7__cxx1112basic_stringIcSt11char_traitsIcESaIcEEE+0xf57>
    395d:	e8 00 00 00 00       	call   3962 <_ZN9simulator7saveVtkER4mat2NSt7__cxx1112basic_stringIcSt11char_traitsIcESaIcEEE+0xf92>
    3962:	eb c3                	jmp    3927 <_ZN9simulator7saveVtkER4mat2NSt7__cxx1112basic_stringIcSt11char_traitsIcESaIcEEE+0xf57>
    3964:	48 89 c3             	mov    rbx,rax
    3967:	e9 f9 fe ff ff       	jmp    3865 <_ZN9simulator7saveVtkER4mat2NSt7__cxx1112basic_stringIcSt11char_traitsIcESaIcEEE+0xe95>
    396c:	48 89 c3             	mov    rbx,rax
    396f:	e9 d7 fe ff ff       	jmp    384b <_ZN9simulator7saveVtkER4mat2NSt7__cxx1112basic_stringIcSt11char_traitsIcESaIcEEE+0xe7b>
    3974:	bf 00 00 00 00       	mov    edi,0x0
    3979:	e8 00 00 00 00       	call   397e <_ZN9simulator7saveVtkER4mat2NSt7__cxx1112basic_stringIcSt11char_traitsIcESaIcEEE+0xfae>
    397e:	48 89 c3             	mov    rbx,rax
    3981:	e9 ab fe ff ff       	jmp    3831 <_ZN9simulator7saveVtkER4mat2NSt7__cxx1112basic_stringIcSt11char_traitsIcESaIcEEE+0xe61>
    3986:	b8 0f 00 00 00       	mov    eax,0xf
    398b:	e9 7e f7 ff ff       	jmp    310e <_ZN9simulator7saveVtkER4mat2NSt7__cxx1112basic_stringIcSt11char_traitsIcESaIcEEE+0x73e>
    3990:	48 89 c3             	mov    rbx,rax
    3993:	e9 7f fe ff ff       	jmp    3817 <_ZN9simulator7saveVtkER4mat2NSt7__cxx1112basic_stringIcSt11char_traitsIcESaIcEEE+0xe47>
    3998:	bf 00 00 00 00       	mov    edi,0x0
    399d:	e8 00 00 00 00       	call   39a2 <_ZN9simulator7saveVtkER4mat2NSt7__cxx1112basic_stringIcSt11char_traitsIcESaIcEEE+0xfd2>
    39a2:	48 89 c3             	mov    rbx,rax
    39a5:	e9 53 fe ff ff       	jmp    37fd <_ZN9simulator7saveVtkER4mat2NSt7__cxx1112basic_stringIcSt11char_traitsIcESaIcEEE+0xe2d>
    39aa:	b8 0f 00 00 00       	mov    eax,0xf
    39af:	e9 b0 f3 ff ff       	jmp    2d64 <_ZN9simulator7saveVtkER4mat2NSt7__cxx1112basic_stringIcSt11char_traitsIcESaIcEEE+0x394>
    39b4:	48 89 c3             	mov    rbx,rax
    39b7:	48 8b bc 24 40 01 00 	mov    rdi,QWORD PTR [rsp+0x140]
    39be:	00 
    39bf:	48 8d 84 24 50 01 00 	lea    rax,[rsp+0x150]
    39c6:	00 
    39c7:	48 39 c7             	cmp    rdi,rax
    39ca:	74 05                	je     39d1 <_ZN9simulator7saveVtkER4mat2NSt7__cxx1112basic_stringIcSt11char_traitsIcESaIcEEE+0x1001>
    39cc:	e8 00 00 00 00       	call   39d1 <_ZN9simulator7saveVtkER4mat2NSt7__cxx1112basic_stringIcSt11char_traitsIcESaIcEEE+0x1001>
    39d1:	48 8b bc 24 20 01 00 	mov    rdi,QWORD PTR [rsp+0x120]
    39d8:	00 
    39d9:	48 8d 84 24 30 01 00 	lea    rax,[rsp+0x130]
    39e0:	00 
    39e1:	48 39 c7             	cmp    rdi,rax
    39e4:	0f 84 5e ff ff ff    	je     3948 <_ZN9simulator7saveVtkER4mat2NSt7__cxx1112basic_stringIcSt11char_traitsIcESaIcEEE+0xf78>
    39ea:	e8 00 00 00 00       	call   39ef <_ZN9simulator7saveVtkER4mat2NSt7__cxx1112basic_stringIcSt11char_traitsIcESaIcEEE+0x101f>
    39ef:	e9 54 ff ff ff       	jmp    3948 <_ZN9simulator7saveVtkER4mat2NSt7__cxx1112basic_stringIcSt11char_traitsIcESaIcEEE+0xf78>
    39f4:	bf 00 00 00 00       	mov    edi,0x0
    39f9:	e8 00 00 00 00       	call   39fe <_ZN9simulator7saveVtkER4mat2NSt7__cxx1112basic_stringIcSt11char_traitsIcESaIcEEE+0x102e>
    39fe:	48 89 c3             	mov    rbx,rax
    3a01:	48 8b bc 24 60 01 00 	mov    rdi,QWORD PTR [rsp+0x160]
    3a08:	00 
    3a09:	48 8d 84 24 70 01 00 	lea    rax,[rsp+0x170]
    3a10:	00 
    3a11:	48 39 c7             	cmp    rdi,rax
    3a14:	74 a1                	je     39b7 <_ZN9simulator7saveVtkER4mat2NSt7__cxx1112basic_stringIcSt11char_traitsIcESaIcEEE+0xfe7>
    3a16:	e8 00 00 00 00       	call   3a1b <_ZN9simulator7saveVtkER4mat2NSt7__cxx1112basic_stringIcSt11char_traitsIcESaIcEEE+0x104b>
    3a1b:	eb 9a                	jmp    39b7 <_ZN9simulator7saveVtkER4mat2NSt7__cxx1112basic_stringIcSt11char_traitsIcESaIcEEE+0xfe7>
    3a1d:	bf 00 00 00 00       	mov    edi,0x0
    3a22:	e8 00 00 00 00       	call   3a27 <_ZN9simulator7saveVtkER4mat2NSt7__cxx1112basic_stringIcSt11char_traitsIcESaIcEEE+0x1057>
    3a27:	48 89 c3             	mov    rbx,rax
    3a2a:	eb a5                	jmp    39d1 <_ZN9simulator7saveVtkER4mat2NSt7__cxx1112basic_stringIcSt11char_traitsIcESaIcEEE+0x1001>
    3a2c:	48 8b bc 24 80 01 00 	mov    rdi,QWORD PTR [rsp+0x180]
    3a33:	00 
    3a34:	48 89 c3             	mov    rbx,rax
    3a37:	48 8d 84 24 90 01 00 	lea    rax,[rsp+0x190]
    3a3e:	00 
    3a3f:	48 39 c7             	cmp    rdi,rax
    3a42:	74 bd                	je     3a01 <_ZN9simulator7saveVtkER4mat2NSt7__cxx1112basic_stringIcSt11char_traitsIcESaIcEEE+0x1031>
    3a44:	e8 00 00 00 00       	call   3a49 <_ZN9simulator7saveVtkER4mat2NSt7__cxx1112basic_stringIcSt11char_traitsIcESaIcEEE+0x1079>
    3a49:	eb b6                	jmp    3a01 <_ZN9simulator7saveVtkER4mat2NSt7__cxx1112basic_stringIcSt11char_traitsIcESaIcEEE+0x1031>
    3a4b:	90                   	nop
    3a4c:	0f 1f 40 00          	nop    DWORD PTR [rax+0x0]

0000000000003a50 <_ZN9simulator20saveVelocitiesToFileEv>:
    3a50:	41 56                	push   r14
    3a52:	41 55                	push   r13
    3a54:	41 54                	push   r12
    3a56:	55                   	push   rbp
    3a57:	48 89 fd             	mov    rbp,rdi
    3a5a:	53                   	push   rbx
    3a5b:	48 81 ec a0 07 00 00 	sub    rsp,0x7a0
    3a62:	48 8d bc 24 10 02 00 	lea    rdi,[rsp+0x210]
    3a69:	00 
    3a6a:	64 48 8b 04 25 28 00 	mov    rax,QWORD PTR fs:0x28
    3a71:	00 00 
    3a73:	48 89 84 24 98 07 00 	mov    QWORD PTR [rsp+0x798],rax
    3a7a:	00 
    3a7b:	31 c0                	xor    eax,eax
    3a7d:	e8 00 00 00 00       	call   3a82 <_ZN9simulator20saveVelocitiesToFileEv+0x32>
    3a82:	4c 8b 25 00 00 00 00 	mov    r12,QWORD PTR [rip+0x0]        # 3a89 <_ZN9simulator20saveVelocitiesToFileEv+0x39>
    3a89:	c6 84 24 f0 02 00 00 	mov    BYTE PTR [rsp+0x2f0],0x0
    3a90:	00 
    3a91:	48 8d bc 24 a0 01 00 	lea    rdi,[rsp+0x1a0]
    3a98:	00 
    3a99:	4c 8b 2d 00 00 00 00 	mov    r13,QWORD PTR [rip+0x0]        # 3aa0 <_ZN9simulator20saveVelocitiesToFileEv+0x50>
    3aa0:	48 c7 84 24 10 02 00 	mov    QWORD PTR [rsp+0x210],0x0
    3aa7:	00 00 00 00 00 
    3aac:	31 f6                	xor    esi,esi
    3aae:	48 c7 84 24 e8 02 00 	mov    QWORD PTR [rsp+0x2e8],0x0
    3ab5:	00 00 00 00 00 
    3aba:	c6 84 24 f1 02 00 00 	mov    BYTE PTR [rsp+0x2f1],0x0
    3ac1:	00 
    3ac2:	49 03 7c 24 e8       	add    rdi,QWORD PTR [r12-0x18]
    3ac7:	48 c7 84 24 f8 02 00 	mov    QWORD PTR [rsp+0x2f8],0x0
    3ace:	00 00 00 00 00 
    3ad3:	48 c7 84 24 00 03 00 	mov    QWORD PTR [rsp+0x300],0x0
    3ada:	00 00 00 00 00 
    3adf:	48 c7 84 24 08 03 00 	mov    QWORD PTR [rsp+0x308],0x0
    3ae6:	00 00 00 00 00 
    3aeb:	48 c7 84 24 10 03 00 	mov    QWORD PTR [rsp+0x310],0x0
    3af2:	00 00 00 00 00 
    3af7:	4c 89 a4 24 a0 01 00 	mov    QWORD PTR [rsp+0x1a0],r12
    3afe:	00 
    3aff:	4c 89 2f             	mov    QWORD PTR [rdi],r13
    3b02:	e8 00 00 00 00       	call   3b07 <_ZN9simulator20saveVelocitiesToFileEv+0xb7>
    3b07:	48 8d bc 24 e0 01 00 	lea    rdi,[rsp+0x1e0]
    3b0e:	00 
    3b0f:	48 c7 84 24 a0 01 00 	mov    QWORD PTR [rsp+0x1a0],0x0
    3b16:	00 00 00 00 00 
    3b1b:	48 c7 84 24 10 02 00 	mov    QWORD PTR [rsp+0x210],0x0
    3b22:	00 00 00 00 00 
    3b27:	48 c7 84 24 a8 01 00 	mov    QWORD PTR [rsp+0x1a8],0x0
    3b2e:	00 00 00 00 00 
    3b33:	48 c7 84 24 b0 01 00 	mov    QWORD PTR [rsp+0x1b0],0x0
    3b3a:	00 00 00 00 00 
    3b3f:	48 c7 84 24 b8 01 00 	mov    QWORD PTR [rsp+0x1b8],0x0
    3b46:	00 00 00 00 00 
    3b4b:	48 c7 84 24 c0 01 00 	mov    QWORD PTR [rsp+0x1c0],0x0
    3b52:	00 00 00 00 00 
    3b57:	48 c7 84 24 c8 01 00 	mov    QWORD PTR [rsp+0x1c8],0x0
    3b5e:	00 00 00 00 00 
    3b63:	48 c7 84 24 d0 01 00 	mov    QWORD PTR [rsp+0x1d0],0x0
    3b6a:	00 00 00 00 00 
    3b6f:	48 c7 84 24 d8 01 00 	mov    QWORD PTR [rsp+0x1d8],0x0
    3b76:	00 00 00 00 00 
    3b7b:	e8 00 00 00 00       	call   3b80 <_ZN9simulator20saveVelocitiesToFileEv+0x130>
    3b80:	48 8d 84 24 00 02 00 	lea    rax,[rsp+0x200]
    3b87:	00 
    3b88:	48 8d b4 24 a8 01 00 	lea    rsi,[rsp+0x1a8]
    3b8f:	00 
    3b90:	48 c7 84 24 a8 01 00 	mov    QWORD PTR [rsp+0x1a8],0x0
    3b97:	00 00 00 00 00 
    3b9c:	c7 84 24 e8 01 00 00 	mov    DWORD PTR [rsp+0x1e8],0x10
    3ba3:	10 00 00 00 
    3ba7:	48 c7 84 24 f8 01 00 	mov    QWORD PTR [rsp+0x1f8],0x0
    3bae:	00 00 00 00 00 
    3bb3:	48 89 84 24 f0 01 00 	mov    QWORD PTR [rsp+0x1f0],rax
    3bba:	00 
    3bbb:	48 8d 84 24 a0 01 00 	lea    rax,[rsp+0x1a0]
    3bc2:	00 
    3bc3:	c6 84 24 00 02 00 00 	mov    BYTE PTR [rsp+0x200],0x0
    3bca:	00 
    3bcb:	48 8d 78 70          	lea    rdi,[rax+0x70]
    3bcf:	e8 00 00 00 00       	call   3bd4 <_ZN9simulator20saveVelocitiesToFileEv+0x184>
    3bd4:	48 8d bc 24 90 03 00 	lea    rdi,[rsp+0x390]
    3bdb:	00 
    3bdc:	e8 00 00 00 00       	call   3be1 <_ZN9simulator20saveVelocitiesToFileEv+0x191>
    3be1:	c6 84 24 70 04 00 00 	mov    BYTE PTR [rsp+0x470],0x0
    3be8:	00 
    3be9:	48 8d bc 24 20 03 00 	lea    rdi,[rsp+0x320]
    3bf0:	00 
    3bf1:	49 03 7c 24 e8       	add    rdi,QWORD PTR [r12-0x18]
    3bf6:	48 c7 84 24 90 03 00 	mov    QWORD PTR [rsp+0x390],0x0
    3bfd:	00 00 00 00 00 
    3c02:	48 c7 84 24 68 04 00 	mov    QWORD PTR [rsp+0x468],0x0
    3c09:	00 00 00 00 00 
    3c0e:	31 f6                	xor    esi,esi
    3c10:	c6 84 24 71 04 00 00 	mov    BYTE PTR [rsp+0x471],0x0
    3c17:	00 
    3c18:	48 c7 84 24 78 04 00 	mov    QWORD PTR [rsp+0x478],0x0
    3c1f:	00 00 00 00 00 
    3c24:	48 c7 84 24 80 04 00 	mov    QWORD PTR [rsp+0x480],0x0
    3c2b:	00 00 00 00 00 
    3c30:	48 c7 84 24 88 04 00 	mov    QWORD PTR [rsp+0x488],0x0
    3c37:	00 00 00 00 00 
    3c3c:	48 c7 84 24 90 04 00 	mov    QWORD PTR [rsp+0x490],0x0
    3c43:	00 00 00 00 00 
    3c48:	4c 89 a4 24 20 03 00 	mov    QWORD PTR [rsp+0x320],r12
    3c4f:	00 
    3c50:	4c 89 2f             	mov    QWORD PTR [rdi],r13
    3c53:	e8 00 00 00 00       	call   3c58 <_ZN9simulator20saveVelocitiesToFileEv+0x208>
    3c58:	48 8d bc 24 60 03 00 	lea    rdi,[rsp+0x360]
    3c5f:	00 
    3c60:	48 c7 84 24 20 03 00 	mov    QWORD PTR [rsp+0x320],0x0
    3c67:	00 00 00 00 00 
    3c6c:	48 c7 84 24 90 03 00 	mov    QWORD PTR [rsp+0x390],0x0
    3c73:	00 00 00 00 00 
    3c78:	48 c7 84 24 28 03 00 	mov    QWORD PTR [rsp+0x328],0x0
    3c7f:	00 00 00 00 00 
    3c84:	48 c7 84 24 30 03 00 	mov    QWORD PTR [rsp+0x330],0x0
    3c8b:	00 00 00 00 00 
    3c90:	48 c7 84 24 38 03 00 	mov    QWORD PTR [rsp+0x338],0x0
    3c97:	00 00 00 00 00 
    3c9c:	48 c7 84 24 40 03 00 	mov    QWORD PTR [rsp+0x340],0x0
    3ca3:	00 00 00 00 00 
    3ca8:	48 c7 84 24 48 03 00 	mov    QWORD PTR [rsp+0x348],0x0
    3caf:	00 00 00 00 00 
    3cb4:	48 c7 84 24 50 03 00 	mov    QWORD PTR [rsp+0x350],0x0
    3cbb:	00 00 00 00 00 
    3cc0:	48 c7 84 24 58 03 00 	mov    QWORD PTR [rsp+0x358],0x0
    3cc7:	00 00 00 00 00 
    3ccc:	e8 00 00 00 00       	call   3cd1 <_ZN9simulator20saveVelocitiesToFileEv+0x281>
    3cd1:	48 8d 84 24 80 03 00 	lea    rax,[rsp+0x380]
    3cd8:	00 
    3cd9:	48 8d b4 24 28 03 00 	lea    rsi,[rsp+0x328]
    3ce0:	00 
    3ce1:	48 c7 84 24 28 03 00 	mov    QWORD PTR [rsp+0x328],0x0
    3ce8:	00 00 00 00 00 
    3ced:	c7 84 24 68 03 00 00 	mov    DWORD PTR [rsp+0x368],0x10
    3cf4:	10 00 00 00 
    3cf8:	48 c7 84 24 78 03 00 	mov    QWORD PTR [rsp+0x378],0x0
    3cff:	00 00 00 00 00 
    3d04:	48 89 84 24 70 03 00 	mov    QWORD PTR [rsp+0x370],rax
    3d0b:	00 
    3d0c:	48 8d 84 24 20 03 00 	lea    rax,[rsp+0x320]
    3d13:	00 
    3d14:	c6 84 24 80 03 00 00 	mov    BYTE PTR [rsp+0x380],0x0
    3d1b:	00 
    3d1c:	48 8d 78 70          	lea    rdi,[rax+0x70]
    3d20:	e8 00 00 00 00       	call   3d25 <_ZN9simulator20saveVelocitiesToFileEv+0x2d5>
    3d25:	48 8d bc 24 10 05 00 	lea    rdi,[rsp+0x510]
    3d2c:	00 
    3d2d:	e8 00 00 00 00       	call   3d32 <_ZN9simulator20saveVelocitiesToFileEv+0x2e2>
    3d32:	c6 84 24 f0 05 00 00 	mov    BYTE PTR [rsp+0x5f0],0x0
    3d39:	00 
    3d3a:	48 8d bc 24 a0 04 00 	lea    rdi,[rsp+0x4a0]
    3d41:	00 
    3d42:	49 03 7c 24 e8       	add    rdi,QWORD PTR [r12-0x18]
    3d47:	48 c7 84 24 10 05 00 	mov    QWORD PTR [rsp+0x510],0x0
    3d4e:	00 00 00 00 00 
    3d53:	48 c7 84 24 e8 05 00 	mov    QWORD PTR [rsp+0x5e8],0x0
    3d5a:	00 00 00 00 00 
    3d5f:	31 f6                	xor    esi,esi
    3d61:	c6 84 24 f1 05 00 00 	mov    BYTE PTR [rsp+0x5f1],0x0
    3d68:	00 
    3d69:	48 c7 84 24 f8 05 00 	mov    QWORD PTR [rsp+0x5f8],0x0
    3d70:	00 00 00 00 00 
    3d75:	48 c7 84 24 00 06 00 	mov    QWORD PTR [rsp+0x600],0x0
    3d7c:	00 00 00 00 00 
    3d81:	48 c7 84 24 08 06 00 	mov    QWORD PTR [rsp+0x608],0x0
    3d88:	00 00 00 00 00 
    3d8d:	48 c7 84 24 10 06 00 	mov    QWORD PTR [rsp+0x610],0x0
    3d94:	00 00 00 00 00 
    3d99:	4c 89 a4 24 a0 04 00 	mov    QWORD PTR [rsp+0x4a0],r12
    3da0:	00 
    3da1:	4c 89 2f             	mov    QWORD PTR [rdi],r13
    3da4:	e8 00 00 00 00       	call   3da9 <_ZN9simulator20saveVelocitiesToFileEv+0x359>
    3da9:	48 8d bc 24 e0 04 00 	lea    rdi,[rsp+0x4e0]
    3db0:	00 
    3db1:	48 c7 84 24 a0 04 00 	mov    QWORD PTR [rsp+0x4a0],0x0
    3db8:	00 00 00 00 00 
    3dbd:	48 c7 84 24 10 05 00 	mov    QWORD PTR [rsp+0x510],0x0
    3dc4:	00 00 00 00 00 
    3dc9:	48 c7 84 24 a8 04 00 	mov    QWORD PTR [rsp+0x4a8],0x0
    3dd0:	00 00 00 00 00 
    3dd5:	48 c7 84 24 b0 04 00 	mov    QWORD PTR [rsp+0x4b0],0x0
    3ddc:	00 00 00 00 00 
    3de1:	48 c7 84 24 b8 04 00 	mov    QWORD PTR [rsp+0x4b8],0x0
    3de8:	00 00 00 00 00 
    3ded:	48 c7 84 24 c0 04 00 	mov    QWORD PTR [rsp+0x4c0],0x0
    3df4:	00 00 00 00 00 
    3df9:	48 c7 84 24 c8 04 00 	mov    QWORD PTR [rsp+0x4c8],0x0
    3e00:	00 00 00 00 00 
    3e05:	48 c7 84 24 d0 04 00 	mov    QWORD PTR [rsp+0x4d0],0x0
    3e0c:	00 00 00 00 00 
    3e11:	48 c7 84 24 d8 04 00 	mov    QWORD PTR [rsp+0x4d8],0x0
    3e18:	00 00 00 00 00 
    3e1d:	e8 00 00 00 00       	call   3e22 <_ZN9simulator20saveVelocitiesToFileEv+0x3d2>
    3e22:	48 8d 84 24 00 05 00 	lea    rax,[rsp+0x500]
    3e29:	00 
    3e2a:	48 8d b4 24 a8 04 00 	lea    rsi,[rsp+0x4a8]
    3e31:	00 
    3e32:	48 c7 84 24 a8 04 00 	mov    QWORD PTR [rsp+0x4a8],0x0
    3e39:	00 00 00 00 00 
    3e3e:	c7 84 24 e8 04 00 00 	mov    DWORD PTR [rsp+0x4e8],0x10
    3e45:	10 00 00 00 
    3e49:	48 c7 84 24 f8 04 00 	mov    QWORD PTR [rsp+0x4f8],0x0
    3e50:	00 00 00 00 00 
    3e55:	48 89 84 24 f0 04 00 	mov    QWORD PTR [rsp+0x4f0],rax
    3e5c:	00 
    3e5d:	48 8d 84 24 a0 04 00 	lea    rax,[rsp+0x4a0]
    3e64:	00 
    3e65:	c6 84 24 00 05 00 00 	mov    BYTE PTR [rsp+0x500],0x0
    3e6c:	00 
    3e6d:	48 8d 78 70          	lea    rdi,[rax+0x70]
    3e71:	e8 00 00 00 00       	call   3e76 <_ZN9simulator20saveVelocitiesToFileEv+0x426>
    3e76:	48 8d bc 24 90 06 00 	lea    rdi,[rsp+0x690]
    3e7d:	00 
    3e7e:	e8 00 00 00 00       	call   3e83 <_ZN9simulator20saveVelocitiesToFileEv+0x433>
    3e83:	c6 84 24 70 07 00 00 	mov    BYTE PTR [rsp+0x770],0x0
    3e8a:	00 
    3e8b:	48 8d bc 24 20 06 00 	lea    rdi,[rsp+0x620]
    3e92:	00 
    3e93:	49 03 7c 24 e8       	add    rdi,QWORD PTR [r12-0x18]
    3e98:	48 c7 84 24 90 06 00 	mov    QWORD PTR [rsp+0x690],0x0
    3e9f:	00 00 00 00 00 
    3ea4:	48 c7 84 24 68 07 00 	mov    QWORD PTR [rsp+0x768],0x0
    3eab:	00 00 00 00 00 
    3eb0:	31 f6                	xor    esi,esi
    3eb2:	c6 84 24 71 07 00 00 	mov    BYTE PTR [rsp+0x771],0x0
    3eb9:	00 
    3eba:	48 c7 84 24 78 07 00 	mov    QWORD PTR [rsp+0x778],0x0
    3ec1:	00 00 00 00 00 
    3ec6:	48 c7 84 24 80 07 00 	mov    QWORD PTR [rsp+0x780],0x0
    3ecd:	00 00 00 00 00 
    3ed2:	48 c7 84 24 88 07 00 	mov    QWORD PTR [rsp+0x788],0x0
    3ed9:	00 00 00 00 00 
    3ede:	48 c7 84 24 90 07 00 	mov    QWORD PTR [rsp+0x790],0x0
    3ee5:	00 00 00 00 00 
    3eea:	4c 89 a4 24 20 06 00 	mov    QWORD PTR [rsp+0x620],r12
    3ef1:	00 
    3ef2:	4c 89 2f             	mov    QWORD PTR [rdi],r13
    3ef5:	e8 00 00 00 00       	call   3efa <_ZN9simulator20saveVelocitiesToFileEv+0x4aa>
    3efa:	48 8d bc 24 60 06 00 	lea    rdi,[rsp+0x660]
    3f01:	00 
    3f02:	48 c7 84 24 20 06 00 	mov    QWORD PTR [rsp+0x620],0x0
    3f09:	00 00 00 00 00 
    3f0e:	48 c7 84 24 90 06 00 	mov    QWORD PTR [rsp+0x690],0x0
    3f15:	00 00 00 00 00 
    3f1a:	48 c7 84 24 28 06 00 	mov    QWORD PTR [rsp+0x628],0x0
    3f21:	00 00 00 00 00 
    3f26:	48 c7 84 24 30 06 00 	mov    QWORD PTR [rsp+0x630],0x0
    3f2d:	00 00 00 00 00 
    3f32:	48 c7 84 24 38 06 00 	mov    QWORD PTR [rsp+0x638],0x0
    3f39:	00 00 00 00 00 
    3f3e:	48 c7 84 24 40 06 00 	mov    QWORD PTR [rsp+0x640],0x0
    3f45:	00 00 00 00 00 
    3f4a:	48 c7 84 24 48 06 00 	mov    QWORD PTR [rsp+0x648],0x0
    3f51:	00 00 00 00 00 
    3f56:	48 c7 84 24 50 06 00 	mov    QWORD PTR [rsp+0x650],0x0
    3f5d:	00 00 00 00 00 
    3f62:	48 c7 84 24 58 06 00 	mov    QWORD PTR [rsp+0x658],0x0
    3f69:	00 00 00 00 00 
    3f6e:	e8 00 00 00 00       	call   3f73 <_ZN9simulator20saveVelocitiesToFileEv+0x523>
    3f73:	48 8d 84 24 80 06 00 	lea    rax,[rsp+0x680]
    3f7a:	00 
    3f7b:	48 8d b4 24 28 06 00 	lea    rsi,[rsp+0x628]
    3f82:	00 
    3f83:	48 c7 84 24 28 06 00 	mov    QWORD PTR [rsp+0x628],0x0
    3f8a:	00 00 00 00 00 
    3f8f:	c7 84 24 68 06 00 00 	mov    DWORD PTR [rsp+0x668],0x10
    3f96:	10 00 00 00 
    3f9a:	48 c7 84 24 78 06 00 	mov    QWORD PTR [rsp+0x678],0x0
    3fa1:	00 00 00 00 00 
    3fa6:	48 89 84 24 70 06 00 	mov    QWORD PTR [rsp+0x670],rax
    3fad:	00 
    3fae:	48 8d 84 24 20 06 00 	lea    rax,[rsp+0x620]
    3fb5:	00 
    3fb6:	c6 84 24 80 06 00 00 	mov    BYTE PTR [rsp+0x680],0x0
    3fbd:	00 
    3fbe:	48 8d 78 70          	lea    rdi,[rax+0x70]
    3fc2:	e8 00 00 00 00       	call   3fc7 <_ZN9simulator20saveVelocitiesToFileEv+0x577>
    3fc7:	48 8d bc 24 20 06 00 	lea    rdi,[rsp+0x620]
    3fce:	00 
    3fcf:	ba 0b 00 00 00       	mov    edx,0xb
    3fd4:	be 00 00 00 00       	mov    esi,0x0
    3fd9:	8b 5d 30             	mov    ebx,DWORD PTR [rbp+0x30]
    3fdc:	e8 00 00 00 00       	call   3fe1 <_ZN9simulator20saveVelocitiesToFileEv+0x591>
    3fe1:	48 8d bc 24 20 06 00 	lea    rdi,[rsp+0x620]
    3fe8:	00 
    3fe9:	89 de                	mov    esi,ebx
    3feb:	e8 00 00 00 00       	call   3ff0 <_ZN9simulator20saveVelocitiesToFileEv+0x5a0>
    3ff0:	ba 04 00 00 00       	mov    edx,0x4
    3ff5:	be 00 00 00 00       	mov    esi,0x0
    3ffa:	48 89 c7             	mov    rdi,rax
    3ffd:	e8 00 00 00 00       	call   4002 <_ZN9simulator20saveVelocitiesToFileEv+0x5b2>
    4002:	48 8d bc 24 a0 01 00 	lea    rdi,[rsp+0x1a0]
    4009:	00 
    400a:	ba 08 00 00 00       	mov    edx,0x8
    400f:	be 00 00 00 00       	mov    esi,0x0
    4014:	8b 5d 30             	mov    ebx,DWORD PTR [rbp+0x30]
    4017:	e8 00 00 00 00       	call   401c <_ZN9simulator20saveVelocitiesToFileEv+0x5cc>
    401c:	48 8d bc 24 a0 01 00 	lea    rdi,[rsp+0x1a0]
    4023:	00 
    4024:	89 de                	mov    esi,ebx
    4026:	e8 00 00 00 00       	call   402b <_ZN9simulator20saveVelocitiesToFileEv+0x5db>
    402b:	ba 04 00 00 00       	mov    edx,0x4
    4030:	be 00 00 00 00       	mov    esi,0x0
    4035:	48 89 c7             	mov    rdi,rax
    4038:	e8 00 00 00 00       	call   403d <_ZN9simulator20saveVelocitiesToFileEv+0x5ed>
    403d:	48 8d bc 24 20 03 00 	lea    rdi,[rsp+0x320]
    4044:	00 
    4045:	ba 08 00 00 00       	mov    edx,0x8
    404a:	be 00 00 00 00       	mov    esi,0x0
    404f:	8b 5d 30             	mov    ebx,DWORD PTR [rbp+0x30]
    4052:	e8 00 00 00 00       	call   4057 <_ZN9simulator20saveVelocitiesToFileEv+0x607>
    4057:	48 8d bc 24 20 03 00 	lea    rdi,[rsp+0x320]
    405e:	00 
    405f:	89 de                	mov    esi,ebx
    4061:	e8 00 00 00 00       	call   4066 <_ZN9simulator20saveVelocitiesToFileEv+0x616>
    4066:	ba 04 00 00 00       	mov    edx,0x4
    406b:	be 00 00 00 00       	mov    esi,0x0
    4070:	48 89 c7             	mov    rdi,rax
    4073:	e8 00 00 00 00       	call   4078 <_ZN9simulator20saveVelocitiesToFileEv+0x628>
    4078:	48 8d bc 24 a0 04 00 	lea    rdi,[rsp+0x4a0]
    407f:	00 
    4080:	ba 08 00 00 00       	mov    edx,0x8
    4085:	be 00 00 00 00       	mov    esi,0x0
    408a:	8b 5d 30             	mov    ebx,DWORD PTR [rbp+0x30]
    408d:	e8 00 00 00 00       	call   4092 <_ZN9simulator20saveVelocitiesToFileEv+0x642>
    4092:	48 8d bc 24 a0 04 00 	lea    rdi,[rsp+0x4a0]
    4099:	00 
    409a:	89 de                	mov    esi,ebx
    409c:	e8 00 00 00 00       	call   40a1 <_ZN9simulator20saveVelocitiesToFileEv+0x651>
    40a1:	ba 04 00 00 00       	mov    edx,0x4
    40a6:	be 00 00 00 00       	mov    esi,0x0
    40ab:	48 89 c7             	mov    rdi,rax
    40ae:	e8 00 00 00 00       	call   40b3 <_ZN9simulator20saveVelocitiesToFileEv+0x663>
    40b3:	66 0f ef c0          	pxor   xmm0,xmm0
    40b7:	48 8d 7c 24 10       	lea    rdi,[rsp+0x10]
    40bc:	f3 0f 2a 85 1c 01 00 	cvtsi2ss xmm0,DWORD PTR [rbp+0x11c]
    40c3:	00 
    40c4:	f3 0f 2c c0          	cvttss2si eax,xmm0
    40c8:	66 0f ef c0          	pxor   xmm0,xmm0
    40cc:	f3 0f 2a 85 18 01 00 	cvtsi2ss xmm0,DWORD PTR [rbp+0x118]
    40d3:	00 
    40d4:	89 44 24 1c          	mov    DWORD PTR [rsp+0x1c],eax
    40d8:	f3 0f 2c d0          	cvttss2si edx,xmm0
    40dc:	66 0f ef c0          	pxor   xmm0,xmm0
    40e0:	89 54 24 18          	mov    DWORD PTR [rsp+0x18],edx
    40e4:	e8 00 00 00 00       	call   40e9 <_ZN9simulator20saveVelocitiesToFileEv+0x699>
    40e9:	66 0f ef c0          	pxor   xmm0,xmm0
    40ed:	45 31 f6             	xor    r14d,r14d
    40f0:	66 0f ef d2          	pxor   xmm2,xmm2
    40f4:	f3 0f 2a 44 24 18    	cvtsi2ss xmm0,DWORD PTR [rsp+0x18]
    40fa:	0f 2e c2             	ucomiss xmm0,xmm2
    40fd:	0f 86 ba 00 00 00    	jbe    41bd <_ZN9simulator20saveVelocitiesToFileEv+0x76d>
    4103:	0f 1f 44 00 00       	nop    DWORD PTR [rax+rax*1+0x0]
    4108:	66 0f ef c9          	pxor   xmm1,xmm1
    410c:	31 db                	xor    ebx,ebx
    410e:	f3 0f 2a 4c 24 1c    	cvtsi2ss xmm1,DWORD PTR [rsp+0x1c]
    4114:	0f 2e ca             	ucomiss xmm1,xmm2
    4117:	0f 86 8a 00 00 00    	jbe    41a7 <_ZN9simulator20saveVelocitiesToFileEv+0x757>
    411d:	0f 1f 00             	nop    DWORD PTR [rax]
    4120:	8b 85 1c 01 00 00    	mov    eax,DWORD PTR [rbp+0x11c]
    4126:	48 8b 95 10 01 00 00 	mov    rdx,QWORD PTR [rbp+0x110]
    412d:	41 0f af c6          	imul   eax,r14d
    4131:	01 d8                	add    eax,ebx
    4133:	48 98                	cdqe   
    4135:	f3 0f 10 04 82       	movss  xmm0,DWORD PTR [rdx+rax*4]
    413a:	8b 85 2c 01 00 00    	mov    eax,DWORD PTR [rbp+0x12c]
    4140:	48 8b 95 20 01 00 00 	mov    rdx,QWORD PTR [rbp+0x120]
    4147:	f3 0f 59 c0          	mulss  xmm0,xmm0
    414b:	41 0f af c6          	imul   eax,r14d
    414f:	01 d8                	add    eax,ebx
    4151:	48 98                	cdqe   
    4153:	f3 0f 10 0c 82       	movss  xmm1,DWORD PTR [rdx+rax*4]
    4158:	f3 0f 59 c9          	mulss  xmm1,xmm1
    415c:	f3 0f 58 c8          	addss  xmm1,xmm0
    4160:	f3 0f 51 c1          	sqrtss xmm0,xmm1
    4164:	0f 2e c0             	ucomiss xmm0,xmm0
    4167:	0f 8a 65 05 00 00    	jp     46d2 <_ZN9simulator20saveVelocitiesToFileEv+0xc82>
    416d:	8b 54 24 1c          	mov    edx,DWORD PTR [rsp+0x1c]
    4171:	44 89 f0             	mov    eax,r14d
    4174:	48 8b 4c 24 10       	mov    rcx,QWORD PTR [rsp+0x10]
    4179:	66 0f ef c9          	pxor   xmm1,xmm1
    417d:	0f af c2             	imul   eax,edx
    4180:	01 d8                	add    eax,ebx
    4182:	83 c3 01             	add    ebx,0x1
    4185:	48 98                	cdqe   
    4187:	f3 0f 11 04 81       	movss  DWORD PTR [rcx+rax*4],xmm0
    418c:	66 0f ef c0          	pxor   xmm0,xmm0
    4190:	f3 0f 2a cb          	cvtsi2ss xmm1,ebx
    4194:	f3 0f 2a c2          	cvtsi2ss xmm0,edx
    4198:	0f 2e c1             	ucomiss xmm0,xmm1
    419b:	77 83                	ja     4120 <_ZN9simulator20saveVelocitiesToFileEv+0x6d0>
    419d:	66 0f ef c0          	pxor   xmm0,xmm0
    41a1:	f3 0f 2a 44 24 18    	cvtsi2ss xmm0,DWORD PTR [rsp+0x18]
    41a7:	66 0f ef c9          	pxor   xmm1,xmm1
    41ab:	41 83 c6 01          	add    r14d,0x1
    41af:	f3 41 0f 2a ce       	cvtsi2ss xmm1,r14d
    41b4:	0f 2e c1             	ucomiss xmm0,xmm1
    41b7:	0f 87 4b ff ff ff    	ja     4108 <_ZN9simulator20saveVelocitiesToFileEv+0x6b8>
    41bd:	48 8d 44 24 30       	lea    rax,[rsp+0x30]
    41c2:	48 c7 44 24 28 00 00 	mov    QWORD PTR [rsp+0x28],0x0
    41c9:	00 00 
    41cb:	c6 44 24 30 00       	mov    BYTE PTR [rsp+0x30],0x0
    41d0:	48 89 44 24 20       	mov    QWORD PTR [rsp+0x20],rax
    41d5:	48 8b 84 24 d0 01 00 	mov    rax,QWORD PTR [rsp+0x1d0]
    41dc:	00 
    41dd:	48 85 c0             	test   rax,rax
    41e0:	0f 84 7a 06 00 00    	je     4860 <_ZN9simulator20saveVelocitiesToFileEv+0xe10>
    41e6:	48 8b 94 24 c0 01 00 	mov    rdx,QWORD PTR [rsp+0x1c0]
    41ed:	00 
    41ee:	48 39 d0             	cmp    rax,rdx
    41f1:	0f 87 f4 04 00 00    	ja     46eb <_ZN9simulator20saveVelocitiesToFileEv+0xc9b>
    41f7:	48 8b b4 24 c8 01 00 	mov    rsi,QWORD PTR [rsp+0x1c8]
    41fe:	00 
    41ff:	48 8d 84 24 b0 00 00 	lea    rax,[rsp+0xb0]
    4206:	00 
    4207:	48 8d bc 24 a0 00 00 	lea    rdi,[rsp+0xa0]
    420e:	00 
    420f:	48 89 84 24 a0 00 00 	mov    QWORD PTR [rsp+0xa0],rax
    4216:	00 
    4217:	e8 e4 bd ff ff       	call   0 <_ZNSt7__cxx1112basic_stringIcSt11char_traitsIcESaIcEE12_M_constructIPKcEEvT_S8_St20forward_iterator_tag.isra.36>
    421c:	48 8d 7c 24 20       	lea    rdi,[rsp+0x20]
    4221:	48 8d b4 24 a0 00 00 	lea    rsi,[rsp+0xa0]
    4228:	00 
    4229:	e8 00 00 00 00       	call   422e <_ZN9simulator20saveVelocitiesToFileEv+0x7de>
    422e:	48 8b bc 24 a0 00 00 	mov    rdi,QWORD PTR [rsp+0xa0]
    4235:	00 
    4236:	48 8d 84 24 b0 00 00 	lea    rax,[rsp+0xb0]
    423d:	00 
    423e:	48 39 c7             	cmp    rdi,rax
    4241:	74 05                	je     4248 <_ZN9simulator20saveVelocitiesToFileEv+0x7f8>
    4243:	e8 00 00 00 00       	call   4248 <_ZN9simulator20saveVelocitiesToFileEv+0x7f8>
    4248:	48 8d b5 10 01 00 00 	lea    rsi,[rbp+0x110]
    424f:	48 8d 54 24 20       	lea    rdx,[rsp+0x20]
    4254:	48 89 ef             	mov    rdi,rbp
    4257:	e8 00 00 00 00       	call   425c <_ZN9simulator20saveVelocitiesToFileEv+0x80c>
    425c:	48 8b 7c 24 20       	mov    rdi,QWORD PTR [rsp+0x20]
    4261:	48 8d 44 24 30       	lea    rax,[rsp+0x30]
    4266:	48 39 c7             	cmp    rdi,rax
    4269:	74 05                	je     4270 <_ZN9simulator20saveVelocitiesToFileEv+0x820>
    426b:	e8 00 00 00 00       	call   4270 <_ZN9simulator20saveVelocitiesToFileEv+0x820>
    4270:	48 8d 44 24 50       	lea    rax,[rsp+0x50]
    4275:	48 c7 44 24 48 00 00 	mov    QWORD PTR [rsp+0x48],0x0
    427c:	00 00 
    427e:	c6 44 24 50 00       	mov    BYTE PTR [rsp+0x50],0x0
    4283:	48 89 44 24 40       	mov    QWORD PTR [rsp+0x40],rax
    4288:	48 8b 84 24 50 03 00 	mov    rax,QWORD PTR [rsp+0x350]
    428f:	00 
    4290:	48 85 c0             	test   rax,rax
    4293:	0f 84 ac 05 00 00    	je     4845 <_ZN9simulator20saveVelocitiesToFileEv+0xdf5>
    4299:	48 8b 94 24 40 03 00 	mov    rdx,QWORD PTR [rsp+0x340]
    42a0:	00 
    42a1:	48 39 d0             	cmp    rax,rdx
    42a4:	0f 86 99 04 00 00    	jbe    4743 <_ZN9simulator20saveVelocitiesToFileEv+0xcf3>
    42aa:	48 8d 94 24 10 01 00 	lea    rdx,[rsp+0x110]
    42b1:	00 
    42b2:	48 8b b4 24 48 03 00 	mov    rsi,QWORD PTR [rsp+0x348]
    42b9:	00 
    42ba:	48 8d bc 24 00 01 00 	lea    rdi,[rsp+0x100]
    42c1:	00 
    42c2:	48 89 94 24 00 01 00 	mov    QWORD PTR [rsp+0x100],rdx
    42c9:	00 
    42ca:	48 89 c2             	mov    rdx,rax
    42cd:	e8 2e bd ff ff       	call   0 <_ZNSt7__cxx1112basic_stringIcSt11char_traitsIcESaIcEE12_M_constructIPKcEEvT_S8_St20forward_iterator_tag.isra.36>
    42d2:	48 8d 7c 24 40       	lea    rdi,[rsp+0x40]
    42d7:	48 8d b4 24 00 01 00 	lea    rsi,[rsp+0x100]
    42de:	00 
    42df:	e8 00 00 00 00       	call   42e4 <_ZN9simulator20saveVelocitiesToFileEv+0x894>
    42e4:	48 8b bc 24 00 01 00 	mov    rdi,QWORD PTR [rsp+0x100]
    42eb:	00 
    42ec:	48 8d 84 24 10 01 00 	lea    rax,[rsp+0x110]
    42f3:	00 
    42f4:	48 39 c7             	cmp    rdi,rax
    42f7:	74 05                	je     42fe <_ZN9simulator20saveVelocitiesToFileEv+0x8ae>
    42f9:	e8 00 00 00 00       	call   42fe <_ZN9simulator20saveVelocitiesToFileEv+0x8ae>
    42fe:	48 8d b5 20 01 00 00 	lea    rsi,[rbp+0x120]
    4305:	48 8d 54 24 40       	lea    rdx,[rsp+0x40]
    430a:	48 89 ef             	mov    rdi,rbp
    430d:	e8 00 00 00 00       	call   4312 <_ZN9simulator20saveVelocitiesToFileEv+0x8c2>
    4312:	48 8b 7c 24 40       	mov    rdi,QWORD PTR [rsp+0x40]
    4317:	48 8d 44 24 50       	lea    rax,[rsp+0x50]
    431c:	48 39 c7             	cmp    rdi,rax
    431f:	74 05                	je     4326 <_ZN9simulator20saveVelocitiesToFileEv+0x8d6>
    4321:	e8 00 00 00 00       	call   4326 <_ZN9simulator20saveVelocitiesToFileEv+0x8d6>
    4326:	48 8d 44 24 70       	lea    rax,[rsp+0x70]
    432b:	48 c7 44 24 68 00 00 	mov    QWORD PTR [rsp+0x68],0x0
    4332:	00 00 
    4334:	c6 44 24 70 00       	mov    BYTE PTR [rsp+0x70],0x0
    4339:	48 89 44 24 60       	mov    QWORD PTR [rsp+0x60],rax
    433e:	48 8b 84 24 d0 04 00 	mov    rax,QWORD PTR [rsp+0x4d0]
    4345:	00 
    4346:	48 85 c0             	test   rax,rax
    4349:	0f 84 4a 05 00 00    	je     4899 <_ZN9simulator20saveVelocitiesToFileEv+0xe49>
    434f:	48 8b 94 24 c0 04 00 	mov    rdx,QWORD PTR [rsp+0x4c0]
    4356:	00 
    4357:	48 39 d0             	cmp    rax,rdx
    435a:	0f 86 90 04 00 00    	jbe    47f0 <_ZN9simulator20saveVelocitiesToFileEv+0xda0>
    4360:	48 8d 94 24 50 01 00 	lea    rdx,[rsp+0x150]
    4367:	00 
    4368:	48 8b b4 24 c8 04 00 	mov    rsi,QWORD PTR [rsp+0x4c8]
    436f:	00 
    4370:	48 8d bc 24 40 01 00 	lea    rdi,[rsp+0x140]
    4377:	00 
    4378:	48 89 94 24 40 01 00 	mov    QWORD PTR [rsp+0x140],rdx
    437f:	00 
    4380:	48 89 c2             	mov    rdx,rax
    4383:	e8 78 bc ff ff       	call   0 <_ZNSt7__cxx1112basic_stringIcSt11char_traitsIcESaIcEE12_M_constructIPKcEEvT_S8_St20forward_iterator_tag.isra.36>
    4388:	48 8d 7c 24 60       	lea    rdi,[rsp+0x60]
    438d:	48 8d b4 24 40 01 00 	lea    rsi,[rsp+0x140]
    4394:	00 
    4395:	e8 00 00 00 00       	call   439a <_ZN9simulator20saveVelocitiesToFileEv+0x94a>
    439a:	48 8b bc 24 40 01 00 	mov    rdi,QWORD PTR [rsp+0x140]
    43a1:	00 
    43a2:	48 8d 84 24 50 01 00 	lea    rax,[rsp+0x150]
    43a9:	00 
    43aa:	48 39 c7             	cmp    rdi,rax
    43ad:	74 05                	je     43b4 <_ZN9simulator20saveVelocitiesToFileEv+0x964>
    43af:	e8 00 00 00 00       	call   43b4 <_ZN9simulator20saveVelocitiesToFileEv+0x964>
    43b4:	48 8d b5 30 01 00 00 	lea    rsi,[rbp+0x130]
    43bb:	48 8d 54 24 60       	lea    rdx,[rsp+0x60]
    43c0:	48 89 ef             	mov    rdi,rbp
    43c3:	e8 00 00 00 00       	call   43c8 <_ZN9simulator20saveVelocitiesToFileEv+0x978>
    43c8:	48 8b 7c 24 60       	mov    rdi,QWORD PTR [rsp+0x60]
    43cd:	48 8d 44 24 70       	lea    rax,[rsp+0x70]
    43d2:	48 39 c7             	cmp    rdi,rax
    43d5:	74 05                	je     43dc <_ZN9simulator20saveVelocitiesToFileEv+0x98c>
    43d7:	e8 00 00 00 00       	call   43dc <_ZN9simulator20saveVelocitiesToFileEv+0x98c>
    43dc:	48 8d 84 24 90 00 00 	lea    rax,[rsp+0x90]
    43e3:	00 
    43e4:	48 c7 84 24 88 00 00 	mov    QWORD PTR [rsp+0x88],0x0
    43eb:	00 00 00 00 00 
    43f0:	c6 84 24 90 00 00 00 	mov    BYTE PTR [rsp+0x90],0x0
    43f7:	00 
    43f8:	48 89 84 24 80 00 00 	mov    QWORD PTR [rsp+0x80],rax
    43ff:	00 
    4400:	48 8b 84 24 50 06 00 	mov    rax,QWORD PTR [rsp+0x650]
    4407:	00 
    4408:	48 85 c0             	test   rax,rax
    440b:	0f 84 6a 04 00 00    	je     487b <_ZN9simulator20saveVelocitiesToFileEv+0xe2b>
    4411:	48 8b 94 24 40 06 00 	mov    rdx,QWORD PTR [rsp+0x640]
    4418:	00 
    4419:	48 39 d0             	cmp    rax,rdx
    441c:	0f 86 76 03 00 00    	jbe    4798 <_ZN9simulator20saveVelocitiesToFileEv+0xd48>
    4422:	48 8d 94 24 90 01 00 	lea    rdx,[rsp+0x190]
    4429:	00 
    442a:	48 8b b4 24 48 06 00 	mov    rsi,QWORD PTR [rsp+0x648]
    4431:	00 
    4432:	48 8d bc 24 80 01 00 	lea    rdi,[rsp+0x180]
    4439:	00 
    443a:	48 89 94 24 80 01 00 	mov    QWORD PTR [rsp+0x180],rdx
    4441:	00 
    4442:	48 89 c2             	mov    rdx,rax
    4445:	e8 b6 bb ff ff       	call   0 <_ZNSt7__cxx1112basic_stringIcSt11char_traitsIcESaIcEE12_M_constructIPKcEEvT_S8_St20forward_iterator_tag.isra.36>
    444a:	48 8d bc 24 80 00 00 	lea    rdi,[rsp+0x80]
    4451:	00 
    4452:	48 8d b4 24 80 01 00 	lea    rsi,[rsp+0x180]
    4459:	00 
    445a:	e8 00 00 00 00       	call   445f <_ZN9simulator20saveVelocitiesToFileEv+0xa0f>
    445f:	48 8b bc 24 80 01 00 	mov    rdi,QWORD PTR [rsp+0x180]
    4466:	00 
    4467:	48 8d 84 24 90 01 00 	lea    rax,[rsp+0x190]
    446e:	00 
    446f:	48 39 c7             	cmp    rdi,rax
    4472:	74 05                	je     4479 <_ZN9simulator20saveVelocitiesToFileEv+0xa29>
    4474:	e8 00 00 00 00       	call   4479 <_ZN9simulator20saveVelocitiesToFileEv+0xa29>
    4479:	48 8d 94 24 80 00 00 	lea    rdx,[rsp+0x80]
    4480:	00 
    4481:	48 8d 74 24 10       	lea    rsi,[rsp+0x10]
    4486:	48 89 ef             	mov    rdi,rbp
    4489:	e8 00 00 00 00       	call   448e <_ZN9simulator20saveVelocitiesToFileEv+0xa3e>
    448e:	48 8b bc 24 80 00 00 	mov    rdi,QWORD PTR [rsp+0x80]
    4495:	00 
    4496:	48 8d 84 24 90 00 00 	lea    rax,[rsp+0x90]
    449d:	00 
    449e:	48 39 c7             	cmp    rdi,rax
    44a1:	74 05                	je     44a8 <_ZN9simulator20saveVelocitiesToFileEv+0xa58>
    44a3:	e8 00 00 00 00       	call   44a8 <_ZN9simulator20saveVelocitiesToFileEv+0xa58>
    44a8:	48 8b 7c 24 10       	mov    rdi,QWORD PTR [rsp+0x10]
    44ad:	48 85 ff             	test   rdi,rdi
    44b0:	74 05                	je     44b7 <_ZN9simulator20saveVelocitiesToFileEv+0xa67>
    44b2:	e8 00 00 00 00       	call   44b7 <_ZN9simulator20saveVelocitiesToFileEv+0xa67>
    44b7:	48 8b bc 24 70 06 00 	mov    rdi,QWORD PTR [rsp+0x670]
    44be:	00 
    44bf:	48 8d 84 24 80 06 00 	lea    rax,[rsp+0x680]
    44c6:	00 
    44c7:	48 c7 84 24 20 06 00 	mov    QWORD PTR [rsp+0x620],0x0
    44ce:	00 00 00 00 00 
    44d3:	48 c7 84 24 90 06 00 	mov    QWORD PTR [rsp+0x690],0x0
    44da:	00 00 00 00 00 
    44df:	48 c7 84 24 28 06 00 	mov    QWORD PTR [rsp+0x628],0x0
    44e6:	00 00 00 00 00 
    44eb:	48 39 c7             	cmp    rdi,rax
    44ee:	74 05                	je     44f5 <_ZN9simulator20saveVelocitiesToFileEv+0xaa5>
    44f0:	e8 00 00 00 00       	call   44f5 <_ZN9simulator20saveVelocitiesToFileEv+0xaa5>
    44f5:	48 8d bc 24 60 06 00 	lea    rdi,[rsp+0x660]
    44fc:	00 
    44fd:	48 c7 84 24 28 06 00 	mov    QWORD PTR [rsp+0x628],0x0
    4504:	00 00 00 00 00 
    4509:	e8 00 00 00 00       	call   450e <_ZN9simulator20saveVelocitiesToFileEv+0xabe>
    450e:	49 8b 44 24 e8       	mov    rax,QWORD PTR [r12-0x18]
    4513:	48 8d bc 24 90 06 00 	lea    rdi,[rsp+0x690]
    451a:	00 
    451b:	4c 89 ac 04 20 06 00 	mov    QWORD PTR [rsp+rax*1+0x620],r13
    4522:	00 
    4523:	48 c7 84 24 90 06 00 	mov    QWORD PTR [rsp+0x690],0x0
    452a:	00 00 00 00 00 
    452f:	e8 00 00 00 00       	call   4534 <_ZN9simulator20saveVelocitiesToFileEv+0xae4>
    4534:	48 8b bc 24 f0 04 00 	mov    rdi,QWORD PTR [rsp+0x4f0]
    453b:	00 
    453c:	48 8d 84 24 00 05 00 	lea    rax,[rsp+0x500]
    4543:	00 
    4544:	48 c7 84 24 a0 04 00 	mov    QWORD PTR [rsp+0x4a0],0x0
    454b:	00 00 00 00 00 
    4550:	48 c7 84 24 10 05 00 	mov    QWORD PTR [rsp+0x510],0x0
    4557:	00 00 00 00 00 
    455c:	48 c7 84 24 a8 04 00 	mov    QWORD PTR [rsp+0x4a8],0x0
    4563:	00 00 00 00 00 
    4568:	48 39 c7             	cmp    rdi,rax
    456b:	74 05                	je     4572 <_ZN9simulator20saveVelocitiesToFileEv+0xb22>
    456d:	e8 00 00 00 00       	call   4572 <_ZN9simulator20saveVelocitiesToFileEv+0xb22>
    4572:	48 8d bc 24 e0 04 00 	lea    rdi,[rsp+0x4e0]
    4579:	00 
    457a:	48 c7 84 24 a8 04 00 	mov    QWORD PTR [rsp+0x4a8],0x0
    4581:	00 00 00 00 00 
    4586:	e8 00 00 00 00       	call   458b <_ZN9simulator20saveVelocitiesToFileEv+0xb3b>
    458b:	49 8b 44 24 e8       	mov    rax,QWORD PTR [r12-0x18]
    4590:	48 8d bc 24 10 05 00 	lea    rdi,[rsp+0x510]
    4597:	00 
    4598:	4c 89 ac 04 a0 04 00 	mov    QWORD PTR [rsp+rax*1+0x4a0],r13
    459f:	00 
    45a0:	48 c7 84 24 10 05 00 	mov    QWORD PTR [rsp+0x510],0x0
    45a7:	00 00 00 00 00 
    45ac:	e8 00 00 00 00       	call   45b1 <_ZN9simulator20saveVelocitiesToFileEv+0xb61>
    45b1:	48 8b bc 24 70 03 00 	mov    rdi,QWORD PTR [rsp+0x370]
    45b8:	00 
    45b9:	48 8d 84 24 80 03 00 	lea    rax,[rsp+0x380]
    45c0:	00 
    45c1:	48 c7 84 24 20 03 00 	mov    QWORD PTR [rsp+0x320],0x0
    45c8:	00 00 00 00 00 
    45cd:	48 c7 84 24 90 03 00 	mov    QWORD PTR [rsp+0x390],0x0
    45d4:	00 00 00 00 00 
    45d9:	48 c7 84 24 28 03 00 	mov    QWORD PTR [rsp+0x328],0x0
    45e0:	00 00 00 00 00 
    45e5:	48 39 c7             	cmp    rdi,rax
    45e8:	74 05                	je     45ef <_ZN9simulator20saveVelocitiesToFileEv+0xb9f>
    45ea:	e8 00 00 00 00       	call   45ef <_ZN9simulator20saveVelocitiesToFileEv+0xb9f>
    45ef:	48 8d bc 24 60 03 00 	lea    rdi,[rsp+0x360]
    45f6:	00 
    45f7:	48 c7 84 24 28 03 00 	mov    QWORD PTR [rsp+0x328],0x0
    45fe:	00 00 00 00 00 
    4603:	e8 00 00 00 00       	call   4608 <_ZN9simulator20saveVelocitiesToFileEv+0xbb8>
    4608:	49 8b 44 24 e8       	mov    rax,QWORD PTR [r12-0x18]
    460d:	48 8d bc 24 90 03 00 	lea    rdi,[rsp+0x390]
    4614:	00 
    4615:	4c 89 ac 04 20 03 00 	mov    QWORD PTR [rsp+rax*1+0x320],r13
    461c:	00 
    461d:	48 c7 84 24 90 03 00 	mov    QWORD PTR [rsp+0x390],0x0
    4624:	00 00 00 00 00 
    4629:	e8 00 00 00 00       	call   462e <_ZN9simulator20saveVelocitiesToFileEv+0xbde>
    462e:	48 8b bc 24 f0 01 00 	mov    rdi,QWORD PTR [rsp+0x1f0]
    4635:	00 
    4636:	48 8d 84 24 00 02 00 	lea    rax,[rsp+0x200]
    463d:	00 
    463e:	48 c7 84 24 a0 01 00 	mov    QWORD PTR [rsp+0x1a0],0x0
    4645:	00 00 00 00 00 
    464a:	48 c7 84 24 10 02 00 	mov    QWORD PTR [rsp+0x210],0x0
    4651:	00 00 00 00 00 
    4656:	48 c7 84 24 a8 01 00 	mov    QWORD PTR [rsp+0x1a8],0x0
    465d:	00 00 00 00 00 
    4662:	48 39 c7             	cmp    rdi,rax
    4665:	74 05                	je     466c <_ZN9simulator20saveVelocitiesToFileEv+0xc1c>
    4667:	e8 00 00 00 00       	call   466c <_ZN9simulator20saveVelocitiesToFileEv+0xc1c>
    466c:	48 8d bc 24 e0 01 00 	lea    rdi,[rsp+0x1e0]
    4673:	00 
    4674:	48 c7 84 24 a8 01 00 	mov    QWORD PTR [rsp+0x1a8],0x0
    467b:	00 00 00 00 00 
    4680:	e8 00 00 00 00       	call   4685 <_ZN9simulator20saveVelocitiesToFileEv+0xc35>
    4685:	49 8b 44 24 e8       	mov    rax,QWORD PTR [r12-0x18]
    468a:	48 8d bc 24 10 02 00 	lea    rdi,[rsp+0x210]
    4691:	00 
    4692:	4c 89 ac 04 a0 01 00 	mov    QWORD PTR [rsp+rax*1+0x1a0],r13
    4699:	00 
    469a:	48 c7 84 24 10 02 00 	mov    QWORD PTR [rsp+0x210],0x0
    46a1:	00 00 00 00 00 
    46a6:	e8 00 00 00 00       	call   46ab <_ZN9simulator20saveVelocitiesToFileEv+0xc5b>
    46ab:	48 8b 84 24 98 07 00 	mov    rax,QWORD PTR [rsp+0x798]
    46b2:	00 
    46b3:	64 48 33 04 25 28 00 	xor    rax,QWORD PTR fs:0x28
    46ba:	00 00 
    46bc:	0f 85 1a 03 00 00    	jne    49dc <_ZN9simulator20saveVelocitiesToFileEv+0xf8c>
    46c2:	48 81 c4 a0 07 00 00 	add    rsp,0x7a0
    46c9:	5b                   	pop    rbx
    46ca:	5d                   	pop    rbp
    46cb:	41 5c                	pop    r12
    46cd:	41 5d                	pop    r13
    46cf:	41 5e                	pop    r14
    46d1:	c3                   	ret    
    46d2:	0f 28 c1             	movaps xmm0,xmm1
    46d5:	f3 0f 11 54 24 0c    	movss  DWORD PTR [rsp+0xc],xmm2
    46db:	e8 00 00 00 00       	call   46e0 <_ZN9simulator20saveVelocitiesToFileEv+0xc90>
    46e0:	f3 0f 10 54 24 0c    	movss  xmm2,DWORD PTR [rsp+0xc]
    46e6:	e9 82 fa ff ff       	jmp    416d <_ZN9simulator20saveVelocitiesToFileEv+0x71d>
    46eb:	48 8d 94 24 d0 00 00 	lea    rdx,[rsp+0xd0]
    46f2:	00 
    46f3:	48 8b b4 24 c8 01 00 	mov    rsi,QWORD PTR [rsp+0x1c8]
    46fa:	00 
    46fb:	48 8d bc 24 c0 00 00 	lea    rdi,[rsp+0xc0]
    4702:	00 
    4703:	48 89 94 24 c0 00 00 	mov    QWORD PTR [rsp+0xc0],rdx
    470a:	00 
    470b:	48 89 c2             	mov    rdx,rax
    470e:	e8 ed b8 ff ff       	call   0 <_ZNSt7__cxx1112basic_stringIcSt11char_traitsIcESaIcEE12_M_constructIPKcEEvT_S8_St20forward_iterator_tag.isra.36>
    4713:	48 8d 7c 24 20       	lea    rdi,[rsp+0x20]
    4718:	48 8d b4 24 c0 00 00 	lea    rsi,[rsp+0xc0]
    471f:	00 
    4720:	e8 00 00 00 00       	call   4725 <_ZN9simulator20saveVelocitiesToFileEv+0xcd5>
    4725:	48 8b bc 24 c0 00 00 	mov    rdi,QWORD PTR [rsp+0xc0]
    472c:	00 
    472d:	48 8d 84 24 d0 00 00 	lea    rax,[rsp+0xd0]
    4734:	00 
    4735:	48 39 c7             	cmp    rdi,rax
    4738:	0f 85 05 fb ff ff    	jne    4243 <_ZN9simulator20saveVelocitiesToFileEv+0x7f3>
    473e:	e9 05 fb ff ff       	jmp    4248 <_ZN9simulator20saveVelocitiesToFileEv+0x7f8>
    4743:	48 8b b4 24 48 03 00 	mov    rsi,QWORD PTR [rsp+0x348]
    474a:	00 
    474b:	48 8d 84 24 f0 00 00 	lea    rax,[rsp+0xf0]
    4752:	00 
    4753:	48 8d bc 24 e0 00 00 	lea    rdi,[rsp+0xe0]
    475a:	00 
    475b:	48 89 84 24 e0 00 00 	mov    QWORD PTR [rsp+0xe0],rax
    4762:	00 
    4763:	e8 98 b8 ff ff       	call   0 <_ZNSt7__cxx1112basic_stringIcSt11char_traitsIcESaIcEE12_M_constructIPKcEEvT_S8_St20forward_iterator_tag.isra.36>
    4768:	48 8d 7c 24 40       	lea    rdi,[rsp+0x40]
    476d:	48 8d b4 24 e0 00 00 	lea    rsi,[rsp+0xe0]
    4774:	00 
    4775:	e8 00 00 00 00       	call   477a <_ZN9simulator20saveVelocitiesToFileEv+0xd2a>
    477a:	48 8b bc 24 e0 00 00 	mov    rdi,QWORD PTR [rsp+0xe0]
    4781:	00 
    4782:	48 8d 84 24 f0 00 00 	lea    rax,[rsp+0xf0]
    4789:	00 
    478a:	48 39 c7             	cmp    rdi,rax
    478d:	0f 85 66 fb ff ff    	jne    42f9 <_ZN9simulator20saveVelocitiesToFileEv+0x8a9>
    4793:	e9 66 fb ff ff       	jmp    42fe <_ZN9simulator20saveVelocitiesToFileEv+0x8ae>
    4798:	48 8b b4 24 48 06 00 	mov    rsi,QWORD PTR [rsp+0x648]
    479f:	00 
    47a0:	48 8d 84 24 70 01 00 	lea    rax,[rsp+0x170]
    47a7:	00 
    47a8:	48 8d bc 24 60 01 00 	lea    rdi,[rsp+0x160]
    47af:	00 
    47b0:	48 89 84 24 60 01 00 	mov    QWORD PTR [rsp+0x160],rax
    47b7:	00 
    47b8:	e8 43 b8 ff ff       	call   0 <_ZNSt7__cxx1112basic_stringIcSt11char_traitsIcESaIcEE12_M_constructIPKcEEvT_S8_St20forward_iterator_tag.isra.36>
    47bd:	48 8d bc 24 80 00 00 	lea    rdi,[rsp+0x80]
    47c4:	00 
    47c5:	48 8d b4 24 60 01 00 	lea    rsi,[rsp+0x160]
    47cc:	00 
    47cd:	e8 00 00 00 00       	call   47d2 <_ZN9simulator20saveVelocitiesToFileEv+0xd82>
    47d2:	48 8b bc 24 60 01 00 	mov    rdi,QWORD PTR [rsp+0x160]
    47d9:	00 
    47da:	48 8d 84 24 70 01 00 	lea    rax,[rsp+0x170]
    47e1:	00 
    47e2:	48 39 c7             	cmp    rdi,rax
    47e5:	0f 85 89 fc ff ff    	jne    4474 <_ZN9simulator20saveVelocitiesToFileEv+0xa24>
    47eb:	e9 89 fc ff ff       	jmp    4479 <_ZN9simulator20saveVelocitiesToFileEv+0xa29>
    47f0:	48 8b b4 24 c8 04 00 	mov    rsi,QWORD PTR [rsp+0x4c8]
    47f7:	00 
    47f8:	48 8d 84 24 30 01 00 	lea    rax,[rsp+0x130]
    47ff:	00 
    4800:	48 8d bc 24 20 01 00 	lea    rdi,[rsp+0x120]
    4807:	00 
    4808:	48 89 84 24 20 01 00 	mov    QWORD PTR [rsp+0x120],rax
    480f:	00 
    4810:	e8 eb b7 ff ff       	call   0 <_ZNSt7__cxx1112basic_stringIcSt11char_traitsIcESaIcEE12_M_constructIPKcEEvT_S8_St20forward_iterator_tag.isra.36>
    4815:	48 8d 7c 24 60       	lea    rdi,[rsp+0x60]
    481a:	48 8d b4 24 20 01 00 	lea    rsi,[rsp+0x120]
    4821:	00 
    4822:	e8 00 00 00 00       	call   4827 <_ZN9simulator20saveVelocitiesToFileEv+0xdd7>
    4827:	48 8b bc 24 20 01 00 	mov    rdi,QWORD PTR [rsp+0x120]
    482e:	00 
    482f:	48 8d 84 24 30 01 00 	lea    rax,[rsp+0x130]
    4836:	00 
    4837:	48 39 c7             	cmp    rdi,rax
    483a:	0f 85 6f fb ff ff    	jne    43af <_ZN9simulator20saveVelocitiesToFileEv+0x95f>
    4840:	e9 6f fb ff ff       	jmp    43b4 <_ZN9simulator20saveVelocitiesToFileEv+0x964>
    4845:	48 8d 84 24 20 03 00 	lea    rax,[rsp+0x320]
    484c:	00 
    484d:	48 8d 7c 24 40       	lea    rdi,[rsp+0x40]
    4852:	48 8d 70 50          	lea    rsi,[rax+0x50]
    4856:	e8 00 00 00 00       	call   485b <_ZN9simulator20saveVelocitiesToFileEv+0xe0b>
    485b:	e9 9e fa ff ff       	jmp    42fe <_ZN9simulator20saveVelocitiesToFileEv+0x8ae>
    4860:	48 8d 84 24 a0 01 00 	lea    rax,[rsp+0x1a0]
    4867:	00 
    4868:	48 8d 7c 24 20       	lea    rdi,[rsp+0x20]
    486d:	48 8d 70 50          	lea    rsi,[rax+0x50]
    4871:	e8 00 00 00 00       	call   4876 <_ZN9simulator20saveVelocitiesToFileEv+0xe26>
    4876:	e9 cd f9 ff ff       	jmp    4248 <_ZN9simulator20saveVelocitiesToFileEv+0x7f8>
    487b:	48 8d 84 24 20 06 00 	lea    rax,[rsp+0x620]
    4882:	00 
    4883:	48 8d bc 24 80 00 00 	lea    rdi,[rsp+0x80]
    488a:	00 
    488b:	48 8d 70 50          	lea    rsi,[rax+0x50]
    488f:	e8 00 00 00 00       	call   4894 <_ZN9simulator20saveVelocitiesToFileEv+0xe44>
    4894:	e9 e0 fb ff ff       	jmp    4479 <_ZN9simulator20saveVelocitiesToFileEv+0xa29>
    4899:	48 8d 84 24 a0 04 00 	lea    rax,[rsp+0x4a0]
    48a0:	00 
    48a1:	48 8d 7c 24 60       	lea    rdi,[rsp+0x60]
    48a6:	48 8d 70 50          	lea    rsi,[rax+0x50]
    48aa:	e8 00 00 00 00       	call   48af <_ZN9simulator20saveVelocitiesToFileEv+0xe5f>
    48af:	e9 00 fb ff ff       	jmp    43b4 <_ZN9simulator20saveVelocitiesToFileEv+0x964>
    48b4:	48 8b bc 24 80 00 00 	mov    rdi,QWORD PTR [rsp+0x80]
    48bb:	00 
    48bc:	48 89 c3             	mov    rbx,rax
    48bf:	48 8d 84 24 90 00 00 	lea    rax,[rsp+0x90]
    48c6:	00 
    48c7:	48 39 c7             	cmp    rdi,rax
    48ca:	74 05                	je     48d1 <_ZN9simulator20saveVelocitiesToFileEv+0xe81>
    48cc:	e8 00 00 00 00       	call   48d1 <_ZN9simulator20saveVelocitiesToFileEv+0xe81>
    48d1:	48 8b 7c 24 10       	mov    rdi,QWORD PTR [rsp+0x10]
    48d6:	48 85 ff             	test   rdi,rdi
    48d9:	74 05                	je     48e0 <_ZN9simulator20saveVelocitiesToFileEv+0xe90>
    48db:	e8 00 00 00 00       	call   48e0 <_ZN9simulator20saveVelocitiesToFileEv+0xe90>
    48e0:	48 8d bc 24 20 06 00 	lea    rdi,[rsp+0x620]
    48e7:	00 
    48e8:	e8 00 00 00 00       	call   48ed <_ZN9simulator20saveVelocitiesToFileEv+0xe9d>
    48ed:	48 8d bc 24 a0 04 00 	lea    rdi,[rsp+0x4a0]
    48f4:	00 
    48f5:	e8 00 00 00 00       	call   48fa <_ZN9simulator20saveVelocitiesToFileEv+0xeaa>
    48fa:	48 8d bc 24 20 03 00 	lea    rdi,[rsp+0x320]
    4901:	00 
    4902:	e8 00 00 00 00       	call   4907 <_ZN9simulator20saveVelocitiesToFileEv+0xeb7>
    4907:	48 8d bc 24 a0 01 00 	lea    rdi,[rsp+0x1a0]
    490e:	00 
    490f:	e8 00 00 00 00       	call   4914 <_ZN9simulator20saveVelocitiesToFileEv+0xec4>
    4914:	48 89 df             	mov    rdi,rbx
    4917:	e8 00 00 00 00       	call   491c <_ZN9simulator20saveVelocitiesToFileEv+0xecc>
    491c:	48 89 c3             	mov    rbx,rax
    491f:	48 8d bc 24 90 06 00 	lea    rdi,[rsp+0x690]
    4926:	00 
    4927:	48 c7 84 24 90 06 00 	mov    QWORD PTR [rsp+0x690],0x0
    492e:	00 00 00 00 00 
    4933:	e8 00 00 00 00       	call   4938 <_ZN9simulator20saveVelocitiesToFileEv+0xee8>
    4938:	eb b3                	jmp    48ed <_ZN9simulator20saveVelocitiesToFileEv+0xe9d>
    493a:	48 8d bc 24 a8 04 00 	lea    rdi,[rsp+0x4a8]
    4941:	00 
    4942:	48 89 c3             	mov    rbx,rax
    4945:	e8 00 00 00 00       	call   494a <_ZN9simulator20saveVelocitiesToFileEv+0xefa>
    494a:	49 8b 44 24 e8       	mov    rax,QWORD PTR [r12-0x18]
    494f:	4c 89 ac 04 a0 04 00 	mov    QWORD PTR [rsp+rax*1+0x4a0],r13
    4956:	00 
    4957:	48 8d bc 24 10 05 00 	lea    rdi,[rsp+0x510]
    495e:	00 
    495f:	48 c7 84 24 10 05 00 	mov    QWORD PTR [rsp+0x510],0x0
    4966:	00 00 00 00 00 
    496b:	e8 00 00 00 00       	call   4970 <_ZN9simulator20saveVelocitiesToFileEv+0xf20>
    4970:	eb 88                	jmp    48fa <_ZN9simulator20saveVelocitiesToFileEv+0xeaa>
    4972:	48 89 c3             	mov    rbx,rax
    4975:	eb e0                	jmp    4957 <_ZN9simulator20saveVelocitiesToFileEv+0xf07>
    4977:	48 8d bc 24 28 03 00 	lea    rdi,[rsp+0x328]
    497e:	00 
    497f:	48 89 c3             	mov    rbx,rax
    4982:	e8 00 00 00 00       	call   4987 <_ZN9simulator20saveVelocitiesToFileEv+0xf37>
    4987:	49 8b 44 24 e8       	mov    rax,QWORD PTR [r12-0x18]
    498c:	4c 89 ac 04 20 03 00 	mov    QWORD PTR [rsp+rax*1+0x320],r13
    4993:	00 
    4994:	48 8d bc 24 90 03 00 	lea    rdi,[rsp+0x390]
    499b:	00 
    499c:	48 c7 84 24 90 03 00 	mov    QWORD PTR [rsp+0x390],0x0
    49a3:	00 00 00 00 00 
    49a8:	e8 00 00 00 00       	call   49ad <_ZN9simulator20saveVelocitiesToFileEv+0xf5d>
    49ad:	e9 55 ff ff ff       	jmp    4907 <_ZN9simulator20saveVelocitiesToFileEv+0xeb7>
    49b2:	48 89 c3             	mov    rbx,rax
    49b5:	e9 26 ff ff ff       	jmp    48e0 <_ZN9simulator20saveVelocitiesToFileEv+0xe90>
    49ba:	48 8d bc 24 28 06 00 	lea    rdi,[rsp+0x628]
    49c1:	00 
    49c2:	48 89 c3             	mov    rbx,rax
    49c5:	e8 00 00 00 00       	call   49ca <_ZN9simulator20saveVelocitiesToFileEv+0xf7a>
    49ca:	49 8b 44 24 e8       	mov    rax,QWORD PTR [r12-0x18]
    49cf:	4c 89 ac 04 20 06 00 	mov    QWORD PTR [rsp+rax*1+0x620],r13
    49d6:	00 
    49d7:	e9 43 ff ff ff       	jmp    491f <_ZN9simulator20saveVelocitiesToFileEv+0xecf>
    49dc:	e8 00 00 00 00       	call   49e1 <_ZN9simulator20saveVelocitiesToFileEv+0xf91>
    49e1:	48 8b 7c 24 20       	mov    rdi,QWORD PTR [rsp+0x20]
    49e6:	48 89 c3             	mov    rbx,rax
    49e9:	48 8d 44 24 30       	lea    rax,[rsp+0x30]
    49ee:	48 39 c7             	cmp    rdi,rax
    49f1:	0f 85 d5 fe ff ff    	jne    48cc <_ZN9simulator20saveVelocitiesToFileEv+0xe7c>
    49f7:	e9 d5 fe ff ff       	jmp    48d1 <_ZN9simulator20saveVelocitiesToFileEv+0xe81>
    49fc:	48 89 c3             	mov    rbx,rax
    49ff:	eb 93                	jmp    4994 <_ZN9simulator20saveVelocitiesToFileEv+0xf44>
    4a01:	48 8d bc 24 a8 01 00 	lea    rdi,[rsp+0x1a8]
    4a08:	00 
    4a09:	48 89 c3             	mov    rbx,rax
    4a0c:	e8 00 00 00 00       	call   4a11 <_ZN9simulator20saveVelocitiesToFileEv+0xfc1>
    4a11:	49 8b 44 24 e8       	mov    rax,QWORD PTR [r12-0x18]
    4a16:	4c 89 ac 04 a0 01 00 	mov    QWORD PTR [rsp+rax*1+0x1a0],r13
    4a1d:	00 
    4a1e:	48 8d bc 24 10 02 00 	lea    rdi,[rsp+0x210]
    4a25:	00 
    4a26:	48 c7 84 24 10 02 00 	mov    QWORD PTR [rsp+0x210],0x0
    4a2d:	00 00 00 00 00 
    4a32:	e8 00 00 00 00       	call   4a37 <_ZN9simulator20saveVelocitiesToFileEv+0xfe7>
    4a37:	48 89 df             	mov    rdi,rbx
    4a3a:	e8 00 00 00 00       	call   4a3f <_ZN9simulator20saveVelocitiesToFileEv+0xfef>
    4a3f:	48 89 c3             	mov    rbx,rax
    4a42:	eb da                	jmp    4a1e <_ZN9simulator20saveVelocitiesToFileEv+0xfce>
    4a44:	eb 9b                	jmp    49e1 <_ZN9simulator20saveVelocitiesToFileEv+0xf91>
    4a46:	48 8b 7c 24 40       	mov    rdi,QWORD PTR [rsp+0x40]
    4a4b:	48 89 c3             	mov    rbx,rax
    4a4e:	48 8d 44 24 50       	lea    rax,[rsp+0x50]
    4a53:	48 39 c7             	cmp    rdi,rax
    4a56:	0f 85 70 fe ff ff    	jne    48cc <_ZN9simulator20saveVelocitiesToFileEv+0xe7c>
    4a5c:	e9 70 fe ff ff       	jmp    48d1 <_ZN9simulator20saveVelocitiesToFileEv+0xe81>
    4a61:	eb e3                	jmp    4a46 <_ZN9simulator20saveVelocitiesToFileEv+0xff6>
    4a63:	48 8b 7c 24 60       	mov    rdi,QWORD PTR [rsp+0x60]
    4a68:	48 89 c3             	mov    rbx,rax
    4a6b:	48 8d 44 24 70       	lea    rax,[rsp+0x70]
    4a70:	48 39 c7             	cmp    rdi,rax
    4a73:	0f 85 53 fe ff ff    	jne    48cc <_ZN9simulator20saveVelocitiesToFileEv+0xe7c>
    4a79:	e9 53 fe ff ff       	jmp    48d1 <_ZN9simulator20saveVelocitiesToFileEv+0xe81>
    4a7e:	eb e3                	jmp    4a63 <_ZN9simulator20saveVelocitiesToFileEv+0x1013>
    4a80:	e9 2f fe ff ff       	jmp    48b4 <_ZN9simulator20saveVelocitiesToFileEv+0xe64>

Desensamblado de la sección .bss:

0000000000000000 <_ZStL8__ioinit>:
	...

Desensamblado de la sección .text._ZNKSt5ctypeIcE8do_widenEc:

0000000000000000 <_ZNKSt5ctypeIcE8do_widenEc>:
   0:	89 f0                	mov    eax,esi
   2:	c3                   	ret    

Desensamblado de la sección .rodata.str1.8:

0000000000000000 <.LC87-0xd0>:
   0:	62 61                	(bad)  
   2:	73 69                	jae    6d <.LC87-0x63>
   4:	63 5f 73             	movsxd ebx,DWORD PTR [rdi+0x73]
   7:	74 72                	je     7b <.LC87-0x55>
   9:	69 6e 67 3a 3a 5f 4d 	imul   ebp,DWORD PTR [rsi+0x67],0x4d5f3a3a
  10:	5f                   	pop    rdi
  11:	63 6f 6e             	movsxd ebp,DWORD PTR [rdi+0x6e]
  14:	73 74                	jae    8a <.LC87-0x46>
  16:	72 75                	jb     8d <.LC87-0x43>
  18:	63 74 20 6e          	movsxd esi,DWORD PTR [rax+riz*1+0x6e]
  1c:	75 6c                	jne    8a <.LC87-0x46>
  1e:	6c                   	ins    BYTE PTR es:[rdi],dx
  1f:	20 6e 6f             	and    BYTE PTR [rsi+0x6f],ch
  22:	74 20                	je     44 <.LC87-0x8c>
  24:	76 61                	jbe    87 <.LC87-0x49>
  26:	6c                   	ins    BYTE PTR es:[rdi],dx
  27:	69 64 00 00 00 00 00 	imul   esp,DWORD PTR [rax+rax*1+0x0],0x0
  2e:	00 
  2f:	00 45 72             	add    BYTE PTR [rbp+0x72],al
  32:	72 6f                	jb     a3 <.LC87-0x2d>
  34:	72 3a                	jb     70 <.LC87-0x60>
  36:	20 54 72 79          	and    BYTE PTR [rdx+rsi*2+0x79],dl
  3a:	69 6e 67 20 74 6f 20 	imul   ebp,DWORD PTR [rsi+0x67],0x206f7420
  41:	77 72                	ja     b5 <.LC87-0x1b>
  43:	69 74 65 20 74 6f 20 	imul   esi,DWORD PTR [rbp+riz*2+0x20],0x72206f74
  4a:	72 
  4b:	65 61                	gs (bad) 
  4d:	64 20 6f 6e          	and    BYTE PTR fs:[rdi+0x6e],ch
  51:	6c                   	ins    BYTE PTR es:[rdi],dx
  52:	79 20                	jns    74 <.LC87-0x5c>
  54:	69 6f 00 00 57 61 72 	imul   ebp,DWORD PTR [rdi+0x0],0x72615700
  5b:	6e                   	outs   dx,BYTE PTR ds:[rsi]
  5c:	69 6e 67 3a 20 54 72 	imul   ebp,DWORD PTR [rsi+0x67],0x7254203a
  63:	79 69                	jns    ce <.LC87-0x2>
  65:	6e                   	outs   dx,BYTE PTR ds:[rsi]
  66:	67 20 74 6f 20       	and    BYTE PTR [edi+ebp*2+0x20],dh
  6b:	73 65                	jae    d2 <.LC87+0x2>
  6d:	74 20                	je     8f <.LC87-0x41>
  6f:	77 72                	ja     e3 <.LC87+0x13>
  71:	69 74 65 20 6f 6e 6c 	imul   esi,DWORD PTR [rbp+riz*2+0x20],0x796c6e6f
  78:	79 
  79:	20 66 69             	and    BYTE PTR [rsi+0x69],ah
  7c:	6c                   	ins    BYTE PTR es:[rdi],dx
  7d:	65 20 61 73          	and    BYTE PTR gs:[rcx+0x73],ah
  81:	20 72 65             	and    BYTE PTR [rdx+0x65],dh
  84:	61                   	(bad)  
  85:	64 20 6f 6e          	and    BYTE PTR fs:[rdi+0x6e],ch
  89:	6c                   	ins    BYTE PTR es:[rdi],dx
  8a:	74 79                	je     105 <.LC83+0x9>
  8c:	2e 00 00             	add    BYTE PTR cs:[rax],al
  8f:	00 45 72             	add    BYTE PTR [rbp+0x72],al
  92:	72 6f                	jb     103 <.LC83+0x7>
  94:	72 3a                	jb     d0 <.LC87>
  96:	20 76 61             	and    BYTE PTR [rsi+0x61],dh
  99:	6c                   	ins    BYTE PTR es:[rdi],dx
  9a:	69 64 20 69 6f 20 74 	imul   esp,DWORD PTR [rax+riz*1+0x69],0x7974206f
  a1:	79 
  a2:	70 65                	jo     109 <.LC83+0xd>
  a4:	73 20                	jae    c6 <.LC87-0xa>
  a6:	61                   	(bad)  
  a7:	72 65                	jb     10e <.LC83+0x12>
  a9:	20 72 65             	and    BYTE PTR [rdx+0x65],dh
  ac:	61                   	(bad)  
  ad:	64 2c 20             	fs sub al,0x20
  b0:	77 72                	ja     124 <.LC88+0x3>
  b2:	69 74 65 20 61 6e 64 	imul   esi,DWORD PTR [rbp+riz*2+0x20],0x20646e61
  b9:	20 
  ba:	72 65                	jb     121 <.LC88>
  bc:	61                   	(bad)  
  bd:	64 5f                	fs pop rdi
  bf:	77 72                	ja     133 <.LC88+0x12>
  c1:	69 74 65 5f 61 70 70 	imul   esi,DWORD PTR [rbp+riz*2+0x5f],0x65707061
  c8:	65 
  c9:	6e                   	outs   dx,BYTE PTR ds:[rsi]
  ca:	64 69 6e 67 00 00 53 	imul   ebp,DWORD PTR fs:[rsi+0x67],0x43530000
  d1:	43 

00000000000000d0 <.LC87>:
  d0:	53                   	push   rbx
  d1:	43                   	rex.XB
  d2:	41                   	rex.B
  d3:	4c                   	rex.WR
  d4:	41 52                	push   r10
  d6:	53                   	push   rbx
  d7:	20 76 6f             	and    BYTE PTR [rsi+0x6f],dh
  da:	6c                   	ins    BYTE PTR es:[rdi],dx
  db:	75 6d                	jne    14a <.LC88+0x29>
  dd:	65 5f                	gs pop rdi
  df:	73 63                	jae    144 <.LC88+0x23>
  e1:	61                   	(bad)  
  e2:	6c                   	ins    BYTE PTR es:[rdi],dx
  e3:	61                   	(bad)  
  e4:	72 73                	jb     159 <_ZN2io7readIntERi.part.22+0x9>
  e6:	20 66 6c             	and    BYTE PTR [rsi+0x6c],ah
  e9:	6f                   	outs   dx,DWORD PTR ds:[rsi]
  ea:	61                   	(bad)  
  eb:	74 20                	je     10d <.LC83+0x11>
  ed:	31 00                	xor    DWORD PTR [rax],eax

Desensamblado de la sección .rodata.str1.1:

0000000000000000 <.LC19>:
   0:	20 00                	and    BYTE PTR [rax],al

0000000000000002 <.LC25>:
   2:	72 65                	jb     69 <.LC26+0x62>
   4:	61                   	(bad)  
   5:	64 00 77 72          	add    BYTE PTR fs:[rdi+0x72],dh

0000000000000007 <.LC26>:
   7:	77 72                	ja     7b <.LC56+0x6>
   9:	69 74 65 00 77 72 69 	imul   esi,DWORD PTR [rbp+riz*2+0x0],0x74697277
  10:	74 
  11:	65 5f                	gs pop rdi
  13:	61                   	(bad)  
  14:	70 70                	jo     86 <.LC56+0x11>
  16:	65 6e                	outs   dx,BYTE PTR gs:[rsi]
  18:	64 69 6e 67 00 0a 00 	imul   ebp,DWORD PTR fs:[rsi+0x67],0x78000a00
  1f:	78 
  20:	4d 61                	rex.WRB (bad) 
  22:	78 00                	js     24 <.LC26+0x1d>
  24:	79 4d                	jns    73 <.LC26+0x6c>
  26:	61                   	(bad)  
  27:	78 00                	js     29 <.LC26+0x22>
  29:	74 4d                	je     78 <.LC56+0x3>
  2b:	61                   	(bad)  
  2c:	78 00                	js     2e <.LC26+0x27>
  2e:	6e                   	outs   dx,BYTE PTR ds:[rsi]
  2f:	75 00                	jne    31 <.LC26+0x2a>
  31:	72 68                	jb     9b <.LC75+0x13>
  33:	6f                   	outs   dx,DWORD PTR ds:[rsi]
  34:	00 64 78 00          	add    BYTE PTR [rax+rdi*2+0x0],ah
  38:	64 79 00             	fs jns 3b <.LC26+0x34>
  3b:	64 74 00             	fs je  3e <.LC26+0x37>
  3e:	61                   	(bad)  
  3f:	6c                   	ins    BYTE PTR es:[rdi],dx
  40:	00 70 72             	add    BYTE PTR [rax+0x72],dh
  43:	69 6e 74 50 65 72 63 	imul   ebp,DWORD PTR [rsi+0x74],0x63726550
  4a:	65 6e                	outs   dx,BYTE PTR gs:[rsi]
  4c:	74 61                	je     af <.LC76+0xc>
  4e:	67 65 53             	addr32 gs push rbx
  51:	74 65                	je     b8 <.LC77+0x3>
  53:	70 73                	jo     c8 <.LC78+0xd>
  55:	00 70 72             	add    BYTE PTR [rax+0x72],dh
  58:	69 6e 74 50 65 72 63 	imul   ebp,DWORD PTR [rsi+0x74],0x63726550
  5f:	65 6e                	outs   dx,BYTE PTR gs:[rsi]
  61:	74 61                	je     c4 <.LC78+0x9>
  63:	67 65 00 70 65       	add    BYTE PTR gs:[eax+0x65],dh
  68:	72 63                	jb     cd <.LC78+0x12>
  6a:	65 6e                	outs   dx,BYTE PTR gs:[rsi]
  6c:	74 61                	je     cf <.LC78+0x14>
  6e:	67 65 53             	addr32 gs push rbx
  71:	74 6f                	je     e2 <.LC78+0x27>
  73:	70 00                	jo     75 <.LC56>

0000000000000075 <.LC56>:
  75:	70 61                	jo     d8 <.LC78+0x1d>
  77:	72 61                	jb     da <.LC78+0x1f>
  79:	6d                   	ins    DWORD PTR es:[rdi],dx
  7a:	65 74 65             	gs je  e2 <.LC78+0x27>
  7d:	72 73                	jb     f2 <.LC78+0x37>
  7f:	2e 74 78             	cs je  fa <.LC78+0x3f>
  82:	74 00                	je     84 <.LC56+0xf>
  84:	25 20 0a 00 23       	and    eax,0x23000a20

0000000000000088 <.LC75>:
  88:	23 20                	and    esp,DWORD PTR [rax]
  8a:	76 74                	jbe    100 <.LC83+0x4>
  8c:	6b 20 44             	imul   esp,DWORD PTR [rax],0x44
  8f:	61                   	(bad)  
  90:	74 61                	je     f3 <.LC78+0x38>
  92:	46 69 6c 65 20 56 65 	imul   r13d,DWORD PTR [rbp+r12*2+0x20],0x73726556
  99:	72 73 
  9b:	69 6f 6e 20 32 2e 30 	imul   ebp,DWORD PTR [rdi+0x6e],0x302e3220
	...

00000000000000a3 <.LC76>:
  a3:	43 6f                	rex.XB outs dx,DWORD PTR ds:[rsi]
  a5:	6d                   	ins    DWORD PTR es:[rdi],dx
  a6:	6d                   	ins    DWORD PTR es:[rdi],dx
  a7:	65 6e                	outs   dx,BYTE PTR gs:[rsi]
  a9:	74 20                	je     cb <.LC78+0x10>
  ab:	67 6f                	outs   dx,DWORD PTR ds:[esi]
  ad:	65 73 20             	gs jae d0 <.LC78+0x15>
  b0:	68 65 72 65 00       	push   0x657265

00000000000000b5 <.LC77>:
  b5:	41 53                	push   r11
  b7:	43                   	rex.XB
  b8:	49                   	rex.WB
  b9:	49 00 44 41 54       	rex.WB add BYTE PTR [r9+rax*2+0x54],al

00000000000000bb <.LC78>:
  bb:	44                   	rex.R
  bc:	41 54                	push   r12
  be:	41 53                	push   r11
  c0:	45 54                	rex.RB push r12
  c2:	20 53 54             	and    BYTE PTR [rbx+0x54],dl
  c5:	52                   	push   rdx
  c6:	55                   	push   rbp
  c7:	43 54                	rex.XB push r12
  c9:	55                   	push   rbp
  ca:	52                   	push   rdx
  cb:	45                   	rex.RB
  cc:	44 5f                	rex.R pop rdi
  ce:	50                   	push   rax
  cf:	4f                   	rex.WRXB
  d0:	49                   	rex.WB
  d1:	4e 54                	rex.WRX push rsp
  d3:	53                   	push   rbx
  d4:	00 25 64 00 44 49    	add    BYTE PTR [rip+0x49440064],ah        # 4944013e <_ZN9simulator20saveVelocitiesToFileEv+0x4943c6ee>
  da:	4d                   	rex.WRB
  db:	45                   	rex.RB
  dc:	4e 53                	rex.WRX push rbx
  de:	49                   	rex.WB
  df:	4f                   	rex.WRXB
  e0:	4e 53                	rex.WRX push rbx
  e2:	20 00                	and    BYTE PTR [rax],al
  e4:	62 61                	(bad)  
  e6:	73 69                	jae    151 <.LC88+0x30>
  e8:	63 5f 73             	movsxd ebx,DWORD PTR [rdi+0x73]
  eb:	74 72                	je     15f <.LC88+0x3e>
  ed:	69 6e 67 3a 3a 61 70 	imul   ebp,DWORD PTR [rsi+0x67],0x70613a3a
  f4:	70 65                	jo     15b <.LC88+0x3a>
  f6:	6e                   	outs   dx,BYTE PTR ds:[rsi]
  f7:	64 00 20             	add    BYTE PTR fs:[rax],ah
  fa:	31 00                	xor    DWORD PTR [rax],eax

00000000000000fc <.LC83>:
  fc:	4f 52                	rex.WRXB push r10
  fe:	49                   	rex.WB
  ff:	47                   	rex.RXB
 100:	49                   	rex.WB
 101:	4e 20 30             	rex.WRX and BYTE PTR [rax],r14b
 104:	20 30                	and    BYTE PTR [rax],dh
 106:	20 30                	and    BYTE PTR [rax],dh
 108:	00 25 66 00 53 50    	add    BYTE PTR [rip+0x50530066],ah        # 50530174 <_ZN9simulator20saveVelocitiesToFileEv+0x5052c724>
 10e:	41                   	rex.B
 10f:	43                   	rex.XB
 110:	49                   	rex.WB
 111:	4e                   	rex.WRX
 112:	47 20 00             	rex.RXB and BYTE PTR [r8],r8b
 115:	50                   	push   rax
 116:	4f                   	rex.WRXB
 117:	49                   	rex.WB
 118:	4e 54                	rex.WRX push rsp
 11a:	5f                   	pop    rdi
 11b:	44                   	rex.R
 11c:	41 54                	push   r12
 11e:	41 20 00             	and    BYTE PTR [r8],al

0000000000000121 <.LC88>:
 121:	4c                   	rex.WR
 122:	4f                   	rex.WRXB
 123:	4f                   	rex.WRXB
 124:	4b 55                	rex.WXB push r13
 126:	50                   	push   rax
 127:	5f                   	pop    rdi
 128:	54                   	push   rsp
 129:	41                   	rex.B
 12a:	42                   	rex.X
 12b:	4c                   	rex.WR
 12c:	45 20 64 65 66       	and    BYTE PTR [r13+riz*2+0x66],r12b
 131:	61                   	(bad)  
 132:	75 6c                	jne    1a0 <_ZN2io7readIntERi.part.22+0x50>
 134:	74 00                	je     136 <.LC88+0x15>
 136:	2e 2f                	cs (bad) 
 138:	6f                   	outs   dx,DWORD PTR ds:[rsi]
 139:	75 74                	jne    1af <_ZN2io7readIntERi.part.22+0x5f>
 13b:	2f                   	(bad)  
 13c:	6e                   	outs   dx,BYTE PTR ds:[rsi]
 13d:	6f                   	outs   dx,DWORD PTR ds:[rsi]
 13e:	72 6d                	jb     1ad <_ZN2io7readIntERi.part.22+0x5d>
 140:	5f                   	pop    rdi
 141:	00 2e                	add    BYTE PTR [rsi],ch
 143:	76 74                	jbe    1b9 <_ZN2io7readIntERi.part.22+0x69>
 145:	6b 00 2e             	imul   eax,DWORD PTR [rax],0x2e
 148:	2f                   	(bad)  
 149:	6f                   	outs   dx,DWORD PTR ds:[rsi]
 14a:	75 74                	jne    1c0 <_ZN2io7readIntERi.part.22+0x70>
 14c:	2f                   	(bad)  
 14d:	55                   	push   rbp
 14e:	5f                   	pop    rdi
 14f:	00 2e                	add    BYTE PTR [rsi],ch
 151:	2f                   	(bad)  
 152:	6f                   	outs   dx,DWORD PTR ds:[rsi]
 153:	75 74                	jne    1c9 <_ZN2io7readIntERi.part.22+0x79>
 155:	2f                   	(bad)  
 156:	56                   	push   rsi
 157:	5f                   	pop    rdi
 158:	00 2e                	add    BYTE PTR [rsi],ch
 15a:	2f                   	(bad)  
 15b:	6f                   	outs   dx,DWORD PTR ds:[rsi]
 15c:	75 74                	jne    1d2 <_ZN4mat2C1Ev+0x2>
 15e:	2f                   	(bad)  
 15f:	50                   	push   rax
 160:	5f                   	pop    rdi
	...

Desensamblado de la sección .gcc_except_table:

0000000000000000 <.gcc_except_table>:
   0:	ff                   	(bad)  
   1:	ff 01                	inc    DWORD PTR [rcx]
   3:	30 d6                	xor    dh,dl
   5:	01 05 c5 07 00 f5    	add    DWORD PTR [rip+0xfffffffff50007c5],eax        # fffffffff50007d0 <_ZN9simulator20saveVelocitiesToFileEv+0xfffffffff4ffcd80>
   b:	01 05 c3 07 00 80    	add    DWORD PTR [rip+0xffffffff800007c3],eax        # ffffffff800007d4 <_ZN9simulator20saveVelocitiesToFileEv+0xffffffff7fffcd84>
  11:	02 05 90 07 00 a0    	add    al,BYTE PTR [rip+0xffffffffa0000790]        # ffffffffa00007a7 <_ZN9simulator20saveVelocitiesToFileEv+0xffffffff9fffcd57>
  17:	03 05 f8 06 00 c5    	add    eax,DWORD PTR [rip+0xffffffffc50006f8]        # ffffffffc5000715 <_ZN9simulator20saveVelocitiesToFileEv+0xffffffffc4ffccc5>
  1d:	03 05 ca 07 00 d0    	add    eax,DWORD PTR [rip+0xffffffffd00007ca]        # ffffffffd00007ed <_ZN9simulator20saveVelocitiesToFileEv+0xffffffffcfffcd9d>
  23:	03 05 e2 07 00 dd    	add    eax,DWORD PTR [rip+0xffffffffdd0007e2]        # ffffffffdd00080b <_ZN9simulator20saveVelocitiesToFileEv+0xffffffffdcffcdbb>
  29:	03 df                	add    ebx,edi
  2b:	02 bc 06 00 f3 06 05 	add    bh,BYTE PTR [rsi+rax*1+0x506f300]
  32:	00 00                	add    BYTE PTR [rax],al
  34:	ff                   	(bad)  
  35:	ff 01                	inc    DWORD PTR [rcx]
  37:	00 ff                	add    bh,bh
  39:	ff 01                	inc    DWORD PTR [rcx]
  3b:	1a 41 05             	sbb    al,BYTE PTR [rcx+0x5]
  3e:	00 00                	add    BYTE PTR [rax],al
  40:	5d                   	pop    rbp
  41:	05 be 06 00 6f       	add    eax,0x6f0006be
  46:	05 e2 06 00 da       	add    eax,0xda0006e2
  4b:	01 df                	add    edi,ebx
  4d:	04 fa                	add    al,0xfa
  4f:	06                   	(bad)  
  50:	00 d8                	add    al,bl
  52:	06                   	(bad)  
  53:	05 00 00 ff ff       	add    eax,0xffff0000
  58:	01 18                	add    DWORD PTR [rax],ebx
  5a:	d2 02                	rol    BYTE PTR [rdx],cl
  5c:	05 df 08 00 df       	add    eax,0xdf0008df
  61:	02 05 a7 07 00 af    	add    al,BYTE PTR [rip+0xffffffffaf0007a7]        # ffffffffaf00080e <_ZN9simulator20saveVelocitiesToFileEv+0xffffffffaeffcdbe>
  67:	04 a1                	add    al,0xa1
  69:	02 df                	add    bl,bh
  6b:	08 00                	or     BYTE PTR [rax],al
  6d:	da 08                	fimul  DWORD PTR [rax]
  6f:	05 00 00 ff ff       	add    eax,0xffff0000
  74:	01 0c 1e             	add    DWORD PTR [rsi+rbx*1],ecx
  77:	05 00 00 26 05       	add    eax,0x5260000
  7c:	56                   	push   rsi
  7d:	00 64 05 00          	add    BYTE PTR [rbp+rax*1+0x0],ah
  81:	00 ff                	add    bh,bh
  83:	ff 01                	inc    DWORD PTR [rcx]
  85:	8a 02                	mov    al,BYTE PTR [rdx]
  87:	4d 05 00 00 74 05    	rex.WRB add rax,0x5740000
  8d:	ea                   	(bad)  
  8e:	1b 00                	sbb    eax,DWORD PTR [rax]
  90:	91                   	xchg   ecx,eax
  91:	01 05 bb 1d 00 e0    	add    DWORD PTR [rip+0xffffffffe0001dbb],eax        # ffffffffe0001e52 <_ZN9simulator20saveVelocitiesToFileEv+0xffffffffdfffe402>
  97:	01 05 e1 1d 00 f0    	add    DWORD PTR [rip+0xfffffffff0001de1],eax        # fffffffff0001e7e <_ZN9simulator20saveVelocitiesToFileEv+0xffffffffefffe42e>
  9d:	01 05 e9 1d 00 90    	add    DWORD PTR [rip+0xffffffff90001de9],eax        # ffffffff90001e8c <_ZN9simulator20saveVelocitiesToFileEv+0xffffffff8fffe43c>
  a3:	02 23                	add    ah,BYTE PTR [rbx]
  a5:	e1 1d                	loope  c4 <.gcc_except_table+0xc4>
  a7:	00 c0                	add    al,al
  a9:	02 05 83 1e 00 e1    	add    al,BYTE PTR [rip+0xffffffffe1001e83]        # ffffffffe1001f32 <_ZN9simulator20saveVelocitiesToFileEv+0xffffffffe0ffe4e2>
  af:	02 23                	add    ah,BYTE PTR [rbx]
  b1:	e1 1d                	loope  d0 <.gcc_except_table+0xd0>
  b3:	00 91 03 05 9e 1e    	add    BYTE PTR [rcx+0x1e9e0503],dl
  b9:	00 b2 03 23 e1 1d    	add    BYTE PTR [rdx+0x1de12303],dh
  bf:	00 e2                	add    dl,ah
  c1:	03 05 b9 1e 00 83    	add    eax,DWORD PTR [rip+0xffffffff83001eb9]        # ffffffff83001f80 <_ZN9simulator20saveVelocitiesToFileEv+0xffffffff82ffe530>
  c7:	04 27                	add    al,0x27
  c9:	e1 1d                	loope  e8 <.gcc_except_table+0xe8>
  cb:	00 c7                	add    bh,al
  cd:	04 05                	add    al,0x5
  cf:	d4                   	(bad)  
  d0:	1e                   	(bad)  
  d1:	00 e3                	add    bl,ah
  d3:	04 05                	add    al,0x5
  d5:	f5                   	cmc    
  d6:	1e                   	(bad)  
  d7:	00 e1                	add    cl,ah
  d9:	05 05 d7 20 00       	add    eax,0x20d705
  de:	a9 07 05 e4 1f       	test   eax,0x1fe40507
  e3:	00 ab 08 05 ae 20    	add    BYTE PTR [rbx+0x20ae0508],ch
  e9:	00 8f 09 05 dc 20    	add    BYTE PTR [rdi+0x20dc0509],cl
  ef:	00 b8 0a 2c e1 1d    	add    BYTE PTR [rax+0x1de12c0a],bh
  f5:	00 f4                	add    ah,dh
  f7:	0a 05 aa 1a 00 9b    	or     al,BYTE PTR [rip+0xffffffff9b001aaa]        # ffffffff9b001ba7 <_ZN9simulator20saveVelocitiesToFileEv+0xffffffff9affe157>
  fd:	0b 30                	or     esi,DWORD PTR [rax]
  ff:	e1 1d                	loope  11e <.gcc_except_table+0x11e>
 101:	00 f1                	add    cl,dh
 103:	0b 05 94 1f 00 8d    	or     eax,DWORD PTR [rip+0xffffffff8d001f94]        # ffffffff8d00209d <_ZN9simulator20saveVelocitiesToFileEv+0xffffffff8cffe64d>
 109:	0c 05                	or     al,0x5
 10b:	9c                   	pushf  
 10c:	1f                   	(bad)  
 10d:	00 8b 0d 05 ae 1f    	add    BYTE PTR [rbx+0x1fae050d],cl
 113:	00 d3                	add    bl,dl
 115:	0e                   	(bad)  
 116:	05 c0 1f 00 d5       	add    eax,0xd5001fc0
 11b:	0f 05                	syscall 
 11d:	d2 1f                	rcr    BYTE PTR [rdi],cl
 11f:	00 b9 10 05 90 1c    	add    BYTE PTR [rcx+0x1c900510],bh
 125:	00 e2                	add    dl,ah
 127:	11 2c e1             	adc    DWORD PTR [rcx+riz*8],ebp
 12a:	1d 00 a5 12 05       	sbb    eax,0x512a500
 12f:	b3 1d                	mov    bl,0x1d
 131:	00 89 13 05 dc 1a    	add    BYTE PTR [rcx+0x1adc0513],cl
 137:	00 ca                	add    dl,cl
 139:	13 2c e1             	adc    ebp,DWORD PTR [rcx+riz*8]
 13c:	1d 00 86 14 05       	sbb    eax,0x5148600
 141:	90                   	nop
 142:	1b 00                	sbb    eax,DWORD PTR [rax]
 144:	ad                   	lods   eax,DWORD PTR ds:[rsi]
 145:	14 2c                	adc    al,0x2c
 147:	e1 1d                	loope  166 <.gcc_except_table+0x166>
 149:	00 e9                	add    cl,ch
 14b:	14 05                	adc    al,0x5
 14d:	aa                   	stos   BYTE PTR es:[rdi],al
 14e:	1b 00                	sbb    eax,DWORD PTR [rax]
 150:	90                   	nop
 151:	15 70 e1 1d 00       	adc    eax,0x1de170
 156:	90                   	nop
 157:	16                   	(bad)  
 158:	05 c4 1b 00 cd       	add    eax,0xcd001bc4
 15d:	16                   	(bad)  
 15e:	1f                   	(bad)  
 15f:	e1 1d                	loope  17e <.gcc_except_table+0x17e>
 161:	00 ad 17 05 c0 1f    	add    BYTE PTR [rbp+0x1fc00517],ch
 167:	00 bf 17 05 e4 1f    	add    BYTE PTR [rdi+0x1fe40517],bh
 16d:	00 80 18 29 e1 1d    	add    BYTE PTR [rax+0x1de12918],al
 173:	00 d7                	add    bh,dl
 175:	1a 05 00 00 a9 1f    	sbb    al,BYTE PTR [rip+0x1fa90000]        # 1fa9017b <_ZN9simulator20saveVelocitiesToFileEv+0x1fa8c72b>
 17b:	05 ae 1f 00 cd       	add    eax,0xcd001fae
 180:	1f                   	(bad)  
 181:	05 d2 1f 00 a9       	add    eax,0xa9001fd2
 186:	20 05 ae 20 00 d2    	and    BYTE PTR [rip+0xffffffffd20020ae],al        # ffffffffd200223a <_ZN9simulator20saveVelocitiesToFileEv+0xffffffffd1ffe7ea>
 18c:	20 05 d7 20 00 ff    	and    BYTE PTR [rip+0xffffffffff0020d7],al        # ffffffffff002269 <_ZN9simulator20saveVelocitiesToFileEv+0xfffffffffeffe819>
 192:	ff 01                	inc    DWORD PTR [rcx]
 194:	9d                   	popf   
 195:	01 b2 01 05 ef 1f    	add    DWORD PTR [rdx+0x1fef0501],esi
 19b:	00 ff                	add    bh,bh
 19d:	02 05 b1 1f 00 83    	add    al,BYTE PTR [rip+0xffffffff83001fb1]        # ffffffff83002154 <_ZN9simulator20saveVelocitiesToFileEv+0xffffffff82ffe704>
 1a3:	04 05                	add    al,0x5
 1a5:	ac                   	lods   al,BYTE PTR ds:[rsi]
 1a6:	1f                   	(bad)  
 1a7:	00 d0                	add    al,dl
 1a9:	05 05 a7 1e 00       	add    eax,0x1ea705
 1ae:	d4                   	(bad)  
 1af:	06                   	(bad)  
 1b0:	05 a2 1e 00 a1       	add    eax,0xa1001ea2
 1b5:	08 05 ea 1d 00 a5    	or     BYTE PTR [rip+0xffffffffa5001dea],al        # ffffffffa5001fa5 <_ZN9simulator20saveVelocitiesToFileEv+0xffffffffa4ffe555>
 1bb:	09 05 cc 1d 00 f2    	or     DWORD PTR [rip+0xfffffffff2001dcc],eax        # fffffffff2001f8d <_ZN9simulator20saveVelocitiesToFileEv+0xfffffffff1ffe53d>
 1c1:	0a 05 ea 1e 00 8c    	or     al,BYTE PTR [rip+0xffffffff8c001eea]        # ffffffff8c0020b1 <_ZN9simulator20saveVelocitiesToFileEv+0xffffffff8bffe661>
 1c7:	0b 8d 02 e2 1e 00    	or     ecx,DWORD PTR [rbp+0x1ee202]
 1cd:	c7                   	(bad)  
 1ce:	0f 05                	syscall 
 1d0:	f4                   	hlt    
 1d1:	1f                   	(bad)  
 1d2:	00 87 10 05 91 1f    	add    BYTE PTR [rdi+0x1f910510],al
 1d8:	00 fd                	add    ch,bh
 1da:	10 05 f6 1f 00 bd    	adc    BYTE PTR [rip+0xffffffffbd001ff6],al        # ffffffffbd0021d6 <_ZN9simulator20saveVelocitiesToFileEv+0xffffffffbcffe786>
 1e0:	11 05 91 20 00 b3    	adc    DWORD PTR [rip+0xffffffffb3002091],eax        # ffffffffb3002277 <_ZN9simulator20saveVelocitiesToFileEv+0xffffffffb2ffe827>
 1e6:	12 05 93 20 00 f3    	adc    al,BYTE PTR [rip+0xfffffffff3002093]        # fffffffff300227f <_ZN9simulator20saveVelocitiesToFileEv+0xfffffffff2ffe82f>
 1ec:	12 05 ae 20 00 f5    	adc    al,BYTE PTR [rip+0xfffffffff50020ae]        # fffffffff50022a0 <_ZN9simulator20saveVelocitiesToFileEv+0xfffffffff4ffe850>
 1f2:	13 05 b0 20 00 b9    	adc    eax,DWORD PTR [rip+0xffffffffb90020b0]        # ffffffffb90022a8 <_ZN9simulator20saveVelocitiesToFileEv+0xffffffffb8ffe858>
 1f8:	14 05                	adc    al,0x5
 1fa:	e4 1c                	in     al,0x1c
 1fc:	00 be 19 05 f4 1f    	add    BYTE PTR [rsi+0x1ff40519],bh
 202:	00 93 1a 05 f6 1f    	add    BYTE PTR [rbx+0x1ff6051a],dl
 208:	00 e8                	add    al,ch
 20a:	1a 05 b0 20 00 c0    	sbb    al,BYTE PTR [rip+0xffffffffc00020b0]        # ffffffffc00022c0 <_ZN9simulator20saveVelocitiesToFileEv+0xffffffffbfffe870>
 210:	1b 05 93 20 00 86    	sbb    eax,DWORD PTR [rip+0xffffffff86002093]        # ffffffff860022a9 <_ZN9simulator20saveVelocitiesToFileEv+0xffffffff85ffe859>
 216:	1c 05                	sbb    al,0x5
 218:	f6 1f                	neg    BYTE PTR [rdi]
 21a:	00 a1 1c 05 f4 1f    	add    BYTE PTR [rcx+0x1ff4051c],ah
 220:	00 bf 1c 05 b0 20    	add    BYTE PTR [rdi+0x20b0051c],bh
 226:	00 da                	add    dl,bl
 228:	1c 05                	sbb    al,0x5
 22a:	93                   	xchg   ebx,eax
 22b:	20 00                	and    BYTE PTR [rax],al
 22d:	c7                   	(bad)  
 22e:	1d a8 02 00 00       	sbb    eax,0x2a8

Desensamblado de la sección .text._ZN9simulatorD2Ev:

0000000000000000 <_ZN9simulatorD1Ev>:
   0:	53                   	push   rbx
   1:	48 89 fb             	mov    rbx,rdi
   4:	48 8b bf 30 01 00 00 	mov    rdi,QWORD PTR [rdi+0x130]
   b:	48 85 ff             	test   rdi,rdi
   e:	74 05                	je     15 <_ZN9simulatorD1Ev+0x15>
  10:	e8 00 00 00 00       	call   15 <_ZN9simulatorD1Ev+0x15>
  15:	48 8b bb 20 01 00 00 	mov    rdi,QWORD PTR [rbx+0x120]
  1c:	48 85 ff             	test   rdi,rdi
  1f:	0f 84 8b 00 00 00    	je     b0 <_ZN9simulatorD1Ev+0xb0>
  25:	e8 00 00 00 00       	call   2a <_ZN9simulatorD1Ev+0x2a>
  2a:	48 8b bb 10 01 00 00 	mov    rdi,QWORD PTR [rbx+0x110]
  31:	48 85 ff             	test   rdi,rdi
  34:	74 05                	je     3b <_ZN9simulatorD1Ev+0x3b>
  36:	e8 00 00 00 00       	call   3b <_ZN9simulatorD1Ev+0x3b>
  3b:	48 8b bb 00 01 00 00 	mov    rdi,QWORD PTR [rbx+0x100]
  42:	48 85 ff             	test   rdi,rdi
  45:	74 05                	je     4c <_ZN9simulatorD1Ev+0x4c>
  47:	e8 00 00 00 00       	call   4c <_ZN9simulatorD1Ev+0x4c>
  4c:	48 8b bb f0 00 00 00 	mov    rdi,QWORD PTR [rbx+0xf0]
  53:	48 85 ff             	test   rdi,rdi
  56:	74 05                	je     5d <_ZN9simulatorD1Ev+0x5d>
  58:	e8 00 00 00 00       	call   5d <_ZN9simulatorD1Ev+0x5d>
  5d:	48 8b bb e0 00 00 00 	mov    rdi,QWORD PTR [rbx+0xe0]
  64:	48 85 ff             	test   rdi,rdi
  67:	74 05                	je     6e <_ZN9simulatorD1Ev+0x6e>
  69:	e8 00 00 00 00       	call   6e <_ZN9simulatorD1Ev+0x6e>
  6e:	48 8b bb d0 00 00 00 	mov    rdi,QWORD PTR [rbx+0xd0]
  75:	48 85 ff             	test   rdi,rdi
  78:	74 05                	je     7f <_ZN9simulatorD1Ev+0x7f>
  7a:	e8 00 00 00 00       	call   7f <_ZN9simulatorD1Ev+0x7f>
  7f:	48 8b bb c0 00 00 00 	mov    rdi,QWORD PTR [rbx+0xc0]
  86:	48 85 ff             	test   rdi,rdi
  89:	74 05                	je     90 <_ZN9simulatorD1Ev+0x90>
  8b:	e8 00 00 00 00       	call   90 <_ZN9simulatorD1Ev+0x90>
  90:	48 8b bb b0 00 00 00 	mov    rdi,QWORD PTR [rbx+0xb0]
  97:	48 85 ff             	test   rdi,rdi
  9a:	74 0c                	je     a8 <_ZN9simulatorD1Ev+0xa8>
  9c:	5b                   	pop    rbx
  9d:	e9 00 00 00 00       	jmp    a2 <_ZN9simulatorD1Ev+0xa2>
  a2:	66 0f 1f 44 00 00    	nop    WORD PTR [rax+rax*1+0x0]
  a8:	5b                   	pop    rbx
  a9:	c3                   	ret    
  aa:	66 0f 1f 44 00 00    	nop    WORD PTR [rax+rax*1+0x0]
  b0:	48 8b bb 10 01 00 00 	mov    rdi,QWORD PTR [rbx+0x110]
  b7:	48 85 ff             	test   rdi,rdi
  ba:	0f 85 76 ff ff ff    	jne    36 <_ZN9simulatorD1Ev+0x36>
  c0:	e9 76 ff ff ff       	jmp    3b <_ZN9simulatorD1Ev+0x3b>

Desensamblado de la sección .text.startup:

0000000000000000 <main>:
   0:	53                   	push   rbx
   1:	48 81 ec 60 01 00 00 	sub    rsp,0x160
   8:	48 89 e7             	mov    rdi,rsp
   b:	64 48 8b 04 25 28 00 	mov    rax,QWORD PTR fs:0x28
  12:	00 00 
  14:	48 89 84 24 58 01 00 	mov    QWORD PTR [rsp+0x158],rax
  1b:	00 
  1c:	31 c0                	xor    eax,eax
  1e:	e8 00 00 00 00       	call   23 <main+0x23>
  23:	48 89 e7             	mov    rdi,rsp
  26:	e8 00 00 00 00       	call   2b <main+0x2b>
  2b:	48 89 e7             	mov    rdi,rsp
  2e:	e8 00 00 00 00       	call   33 <main+0x33>
  33:	31 c0                	xor    eax,eax
  35:	48 8b 94 24 58 01 00 	mov    rdx,QWORD PTR [rsp+0x158]
  3c:	00 
  3d:	64 48 33 14 25 28 00 	xor    rdx,QWORD PTR fs:0x28
  44:	00 00 
  46:	75 09                	jne    51 <main+0x51>
  48:	48 81 c4 60 01 00 00 	add    rsp,0x160
  4f:	5b                   	pop    rbx
  50:	c3                   	ret    
  51:	e8 00 00 00 00       	call   56 <main+0x56>
  56:	48 89 c3             	mov    rbx,rax
  59:	48 89 e7             	mov    rdi,rsp
  5c:	e8 00 00 00 00       	call   61 <main+0x61>
  61:	48 89 df             	mov    rdi,rbx
  64:	e8 00 00 00 00       	call   69 <main+0x69>
  69:	0f 1f 80 00 00 00 00 	nop    DWORD PTR [rax+0x0]

0000000000000070 <_GLOBAL__sub_I__ZN4mat2C2Ev>:
  70:	48 83 ec 08          	sub    rsp,0x8
  74:	bf 00 00 00 00       	mov    edi,0x0
  79:	e8 00 00 00 00       	call   7e <_GLOBAL__sub_I__ZN4mat2C2Ev+0xe>
  7e:	ba 00 00 00 00       	mov    edx,0x0
  83:	be 00 00 00 00       	mov    esi,0x0
  88:	bf 00 00 00 00       	mov    edi,0x0
  8d:	48 83 c4 08          	add    rsp,0x8
  91:	e9 00 00 00 00       	jmp    96 <.LC75+0xe>

Desensamblado de la sección .text._ZN9__gnu_cxx12__to_xstringINSt7__cxx1112basic_stringIcSt11char_traitsIcESaIcEEEcEET_PFiPT0_mPKS8_P13__va_list_tagEmSB_z:

0000000000000000 <_ZN9__gnu_cxx12__to_xstringINSt7__cxx1112basic_stringIcSt11char_traitsIcESaIcEEEcEET_PFiPT0_mPKS8_P13__va_list_tagEmSB_z>:
   0:	55                   	push   rbp
   1:	49 89 f2             	mov    r10,rsi
   4:	48 89 d6             	mov    rsi,rdx
   7:	48 89 ca             	mov    rdx,rcx
   a:	48 89 e5             	mov    rbp,rsp
   d:	41 54                	push   r12
   f:	53                   	push   rbx
  10:	49 89 fc             	mov    r12,rdi
  13:	48 81 ec d0 00 00 00 	sub    rsp,0xd0
  1a:	84 c0                	test   al,al
  1c:	4c 89 85 60 ff ff ff 	mov    QWORD PTR [rbp-0xa0],r8
  23:	4c 89 8d 68 ff ff ff 	mov    QWORD PTR [rbp-0x98],r9
  2a:	74 23                	je     4f <_ZN9__gnu_cxx12__to_xstringINSt7__cxx1112basic_stringIcSt11char_traitsIcESaIcEEEcEET_PFiPT0_mPKS8_P13__va_list_tagEmSB_z+0x4f>
  2c:	0f 29 85 70 ff ff ff 	movaps XMMWORD PTR [rbp-0x90],xmm0
  33:	0f 29 4d 80          	movaps XMMWORD PTR [rbp-0x80],xmm1
  37:	0f 29 55 90          	movaps XMMWORD PTR [rbp-0x70],xmm2
  3b:	0f 29 5d a0          	movaps XMMWORD PTR [rbp-0x60],xmm3
  3f:	0f 29 65 b0          	movaps XMMWORD PTR [rbp-0x50],xmm4
  43:	0f 29 6d c0          	movaps XMMWORD PTR [rbp-0x40],xmm5
  47:	0f 29 75 d0          	movaps XMMWORD PTR [rbp-0x30],xmm6
  4b:	0f 29 7d e0          	movaps XMMWORD PTR [rbp-0x20],xmm7
  4f:	64 48 8b 04 25 28 00 	mov    rax,QWORD PTR fs:0x28
  56:	00 00 
  58:	48 89 85 38 ff ff ff 	mov    QWORD PTR [rbp-0xc8],rax
  5f:	31 c0                	xor    eax,eax
  61:	48 8d 46 1e          	lea    rax,[rsi+0x1e]
  65:	48 8d 8d 20 ff ff ff 	lea    rcx,[rbp-0xe0]
  6c:	48 83 e0 f0          	and    rax,0xfffffffffffffff0
  70:	c7 85 20 ff ff ff 20 	mov    DWORD PTR [rbp-0xe0],0x20
  77:	00 00 00 
  7a:	c7 85 24 ff ff ff 30 	mov    DWORD PTR [rbp-0xdc],0x30
  81:	00 00 00 
  84:	48 29 c4             	sub    rsp,rax
  87:	48 8d 45 10          	lea    rax,[rbp+0x10]
  8b:	48 8d 5c 24 0f       	lea    rbx,[rsp+0xf]
  90:	48 89 85 28 ff ff ff 	mov    QWORD PTR [rbp-0xd8],rax
  97:	48 8d 85 40 ff ff ff 	lea    rax,[rbp-0xc0]
  9e:	48 83 e3 f0          	and    rbx,0xfffffffffffffff0
  a2:	48 89 df             	mov    rdi,rbx
  a5:	48 89 85 30 ff ff ff 	mov    QWORD PTR [rbp-0xd0],rax
  ac:	41 ff d2             	call   r10
  af:	49 8d 54 24 10       	lea    rdx,[r12+0x10]
  b4:	4c 89 e7             	mov    rdi,r12
  b7:	48 89 de             	mov    rsi,rbx
  ba:	49 89 14 24          	mov    QWORD PTR [r12],rdx
  be:	48 63 d0             	movsxd rdx,eax
  c1:	48 01 da             	add    rdx,rbx
  c4:	e8 00 00 00 00       	call   c9 <_ZN9__gnu_cxx12__to_xstringINSt7__cxx1112basic_stringIcSt11char_traitsIcESaIcEEEcEET_PFiPT0_mPKS8_P13__va_list_tagEmSB_z+0xc9>
  c9:	48 8b bd 38 ff ff ff 	mov    rdi,QWORD PTR [rbp-0xc8]
  d0:	64 48 33 3c 25 28 00 	xor    rdi,QWORD PTR fs:0x28
  d7:	00 00 
  d9:	4c 89 e0             	mov    rax,r12
  dc:	75 09                	jne    e7 <_ZN9__gnu_cxx12__to_xstringINSt7__cxx1112basic_stringIcSt11char_traitsIcESaIcEEEcEET_PFiPT0_mPKS8_P13__va_list_tagEmSB_z+0xe7>
  de:	48 8d 65 f0          	lea    rsp,[rbp-0x10]
  e2:	5b                   	pop    rbx
  e3:	41 5c                	pop    r12
  e5:	5d                   	pop    rbp
  e6:	c3                   	ret    
  e7:	e8 00 00 00 00       	call   ec <_ZN2io10writeFloatEf.part.18+0x1c>

Desensamblado de la sección .text._ZNSt7__cxx1115basic_stringbufIcSt11char_traitsIcESaIcEED2Ev:

0000000000000000 <_ZNSt7__cxx1115basic_stringbufIcSt11char_traitsIcESaIcEED1Ev>:
   0:	53                   	push   rbx
   1:	48 89 fb             	mov    rbx,rdi
   4:	48 c7 07 00 00 00 00 	mov    QWORD PTR [rdi],0x0
   b:	48 8b 7f 48          	mov    rdi,QWORD PTR [rdi+0x48]
   f:	48 8d 43 58          	lea    rax,[rbx+0x58]
  13:	48 39 c7             	cmp    rdi,rax
  16:	74 05                	je     1d <_ZNSt7__cxx1115basic_stringbufIcSt11char_traitsIcESaIcEED1Ev+0x1d>
  18:	e8 00 00 00 00       	call   1d <_ZNSt7__cxx1115basic_stringbufIcSt11char_traitsIcESaIcEED1Ev+0x1d>
  1d:	48 c7 03 00 00 00 00 	mov    QWORD PTR [rbx],0x0
  24:	48 8d 7b 38          	lea    rdi,[rbx+0x38]
  28:	5b                   	pop    rbx
  29:	e9 00 00 00 00       	jmp    2e <.LC69+0x22>

Desensamblado de la sección .text._ZNSt7__cxx1115basic_stringbufIcSt11char_traitsIcESaIcEED0Ev:

0000000000000000 <_ZNSt7__cxx1115basic_stringbufIcSt11char_traitsIcESaIcEED0Ev>:
   0:	53                   	push   rbx
   1:	48 89 fb             	mov    rbx,rdi
   4:	48 c7 07 00 00 00 00 	mov    QWORD PTR [rdi],0x0
   b:	48 8b 7f 48          	mov    rdi,QWORD PTR [rdi+0x48]
   f:	48 8d 43 58          	lea    rax,[rbx+0x58]
  13:	48 39 c7             	cmp    rdi,rax
  16:	74 05                	je     1d <_ZNSt7__cxx1115basic_stringbufIcSt11char_traitsIcESaIcEED0Ev+0x1d>
  18:	e8 00 00 00 00       	call   1d <_ZNSt7__cxx1115basic_stringbufIcSt11char_traitsIcESaIcEED0Ev+0x1d>
  1d:	48 8d 7b 38          	lea    rdi,[rbx+0x38]
  21:	48 c7 03 00 00 00 00 	mov    QWORD PTR [rbx],0x0
  28:	e8 00 00 00 00       	call   2d <_ZNSt7__cxx1115basic_stringbufIcSt11char_traitsIcESaIcEED0Ev+0x2d>
  2d:	48 89 df             	mov    rdi,rbx
  30:	5b                   	pop    rbx
  31:	e9 00 00 00 00       	jmp    36 <.LC69+0x2a>

Desensamblado de la sección .init_array:

0000000000000000 <.init_array>:
	...

Desensamblado de la sección .rodata.cst4:

0000000000000000 <.LC57>:
   0:	00 00                	add    BYTE PTR [rax],al
   2:	80 3f 0a             	cmp    BYTE PTR [rdi],0xa

0000000000000004 <.LC60>:
   4:	0a d7                	or     dl,bh
   6:	23 3c 00             	and    edi,DWORD PTR [rax+rax*1]

0000000000000008 <.LC67>:
   8:	00 00                	add    BYTE PTR [rax],al
   a:	c8 42 00 00          	enter  0x42,0x0

000000000000000c <.LC69>:
   c:	00 00                	add    BYTE PTR [rax],al
   e:	20                   	.byte 0x20
   f:	40                   	rex

Desensamblado de la sección .rodata.cst8:

0000000000000000 <.LC58>:
   0:	7b 14                	jnp    16 <.LC69+0xa>
   2:	ae                   	scas   al,BYTE PTR es:[rdi]
   3:	47 e1 7a             	rex.RXB loope 80 <.LC56+0xb>
   6:	84 3f                	test   BYTE PTR [rdi],bh

0000000000000008 <.LC63>:
   8:	00 00                	add    BYTE PTR [rax],al
   a:	00 00                	add    BYTE PTR [rax],al
   c:	00 00                	add    BYTE PTR [rax],al
   e:	f0 3f                	lock (bad) 

Desensamblado de la sección .comment:

0000000000000000 <.comment>:
   0:	00 47 43             	add    BYTE PTR [rdi+0x43],al
   3:	43 3a 20             	rex.XB cmp spl,BYTE PTR [r8]
   6:	28 55 62             	sub    BYTE PTR [rbp+0x62],dl
   9:	75 6e                	jne    79 <.LC56+0x4>
   b:	74 75                	je     82 <.LC56+0xd>
   d:	20 35 2e 34 2e 30    	and    BYTE PTR [rip+0x302e342e],dh        # 302e3441 <_ZN9simulator20saveVelocitiesToFileEv+0x302df9f1>
  13:	2d 36 75 62 75       	sub    eax,0x75627536
  18:	6e                   	outs   dx,BYTE PTR ds:[rsi]
  19:	74 75                	je     90 <.LC75+0x8>
  1b:	31 7e 31             	xor    DWORD PTR [rsi+0x31],edi
  1e:	36 2e 30 34 2e       	ss xor BYTE PTR cs:[rsi+rbp*1],dh
  23:	39 29                	cmp    DWORD PTR [rcx],ebp
  25:	20 35 2e 34 2e 30    	and    BYTE PTR [rip+0x302e342e],dh        # 302e3459 <_ZN9simulator20saveVelocitiesToFileEv+0x302dfa09>
  2b:	20 32                	and    BYTE PTR [rdx],dh
  2d:	30 31                	xor    BYTE PTR [rcx],dh
  2f:	36 30 36             	xor    BYTE PTR ss:[rsi],dh
  32:	30 39                	xor    BYTE PTR [rcx],bh
	...

Desensamblado de la sección .eh_frame:

0000000000000000 <.eh_frame>:
   0:	14 00                	adc    al,0x0
   2:	00 00                	add    BYTE PTR [rax],al
   4:	00 00                	add    BYTE PTR [rax],al
   6:	00 00                	add    BYTE PTR [rax],al
   8:	01 7a 52             	add    DWORD PTR [rdx+0x52],edi
   b:	00 01                	add    BYTE PTR [rcx],al
   d:	78 10                	js     1f <.eh_frame+0x1f>
   f:	01 1b                	add    DWORD PTR [rbx],ebx
  11:	0c 07                	or     al,0x7
  13:	08 90 01 00 00 10    	or     BYTE PTR [rax+0x10000001],dl
  19:	00 00                	add    BYTE PTR [rax],al
  1b:	00 1c 00             	add    BYTE PTR [rax+rax*1],bl
  1e:	00 00                	add    BYTE PTR [rax],al
  20:	00 00                	add    BYTE PTR [rax],al
  22:	00 00                	add    BYTE PTR [rax],al
  24:	03 00                	add    eax,DWORD PTR [rax]
  26:	00 00                	add    BYTE PTR [rax],al
  28:	00 00                	add    BYTE PTR [rax],al
  2a:	00 00                	add    BYTE PTR [rax],al
  2c:	30 00                	xor    BYTE PTR [rax],al
  2e:	00 00                	add    BYTE PTR [rax],al
  30:	30 00                	xor    BYTE PTR [rax],al
  32:	00 00                	add    BYTE PTR [rax],al
  34:	00 00                	add    BYTE PTR [rax],al
  36:	00 00                	add    BYTE PTR [rax],al
  38:	c2 00 00             	ret    0x0
  3b:	00 00                	add    BYTE PTR [rax],al
  3d:	42 0e                	rex.X (bad) 
  3f:	10 8c 02 41 0e 18 86 	adc    BYTE PTR [rdx+rax*1-0x79e7f1bf],cl
  46:	03 44 0e 20          	add    eax,DWORD PTR [rsi+rcx*1+0x20]
  4a:	83 04 47 0e          	add    DWORD PTR [rdi+rax*2],0xe
  4e:	30 02                	xor    BYTE PTR [rdx],al
  50:	6c                   	ins    BYTE PTR es:[rdi],dx
  51:	0a 0e                	or     cl,BYTE PTR [rsi]
  53:	20 41 0e             	and    BYTE PTR [rcx+0xe],al
  56:	18 41 0e             	sbb    BYTE PTR [rcx+0xe],al
  59:	10 42 0e             	adc    BYTE PTR [rdx+0xe],al
  5c:	08 42 0b             	or     BYTE PTR [rdx+0xb],al
  5f:	00 1c 00             	add    BYTE PTR [rax+rax*1],bl
  62:	00 00                	add    BYTE PTR [rax],al
  64:	64 00 00             	add    BYTE PTR fs:[rax],al
  67:	00 00                	add    BYTE PTR [rax],al
  69:	00 00                	add    BYTE PTR [rax],al
  6b:	00 7b 00             	add    BYTE PTR [rbx+0x0],bh
  6e:	00 00                	add    BYTE PTR [rax],al
  70:	00 41 0e             	add    BYTE PTR [rcx+0xe],al
  73:	10 83 02 02 40 0a    	adc    BYTE PTR [rbx+0xa400202],al
  79:	0e                   	(bad)  
  7a:	08 4f 0b             	or     BYTE PTR [rdi+0xb],cl
  7d:	00 00                	add    BYTE PTR [rax],al
  7f:	00 1c 00             	add    BYTE PTR [rax+rax*1],bl
  82:	00 00                	add    BYTE PTR [rax],al
  84:	84 00                	test   BYTE PTR [rax],al
  86:	00 00                	add    BYTE PTR [rax],al
  88:	00 00                	add    BYTE PTR [rax],al
  8a:	00 00                	add    BYTE PTR [rax],al
  8c:	7b 00                	jnp    8e <.eh_frame+0x8e>
  8e:	00 00                	add    BYTE PTR [rax],al
  90:	00 41 0e             	add    BYTE PTR [rcx+0xe],al
  93:	10 83 02 02 4a 0a    	adc    BYTE PTR [rbx+0xa4a0202],al
  99:	0e                   	(bad)  
  9a:	08 45 0b             	or     BYTE PTR [rbp+0xb],al
  9d:	00 00                	add    BYTE PTR [rax],al
  9f:	00 10                	add    BYTE PTR [rax],dl
  a1:	00 00                	add    BYTE PTR [rax],al
  a3:	00 a4 00 00 00 00 00 	add    BYTE PTR [rax+rax*1+0x0],ah
  aa:	00 00                	add    BYTE PTR [rax],al
  ac:	16                   	(bad)  
  ad:	00 00                	add    BYTE PTR [rax],al
  af:	00 00                	add    BYTE PTR [rax],al
  b1:	00 00                	add    BYTE PTR [rax],al
  b3:	00 28                	add    BYTE PTR [rax],ch
  b5:	00 00                	add    BYTE PTR [rax],al
  b7:	00 b8 00 00 00 00    	add    BYTE PTR [rax+0x0],bh
  bd:	00 00                	add    BYTE PTR [rax],al
  bf:	00 69 00             	add    BYTE PTR [rcx+0x0],ch
  c2:	00 00                	add    BYTE PTR [rax],al
  c4:	00 41 0e             	add    BYTE PTR [rcx+0xe],al
  c7:	10 86 02 41 0e 18    	adc    BYTE PTR [rsi+0x180e4102],al
  cd:	83 03 51             	add    DWORD PTR [rbx],0x51
  d0:	0e                   	(bad)  
  d1:	30 02                	xor    BYTE PTR [rdx],al
  d3:	4e 0a 0e             	rex.WRX or r9b,BYTE PTR [rsi]
  d6:	18 41 0e             	sbb    BYTE PTR [rcx+0xe],al
  d9:	10 41 0e             	adc    BYTE PTR [rcx+0xe],al
  dc:	08 41 0b             	or     BYTE PTR [rcx+0xb],al
  df:	00 10                	add    BYTE PTR [rax],dl
  e1:	00 00                	add    BYTE PTR [rax],al
  e3:	00 e4                	add    ah,ah
  e5:	00 00                	add    BYTE PTR [rax],al
  e7:	00 00                	add    BYTE PTR [rax],al
  e9:	00 00                	add    BYTE PTR [rax],al
  eb:	00 0c 00             	add    BYTE PTR [rax+rax*1],cl
  ee:	00 00                	add    BYTE PTR [rax],al
  f0:	00 00                	add    BYTE PTR [rax],al
  f2:	00 00                	add    BYTE PTR [rax],al
  f4:	10 00                	adc    BYTE PTR [rax],al
  f6:	00 00                	add    BYTE PTR [rax],al
  f8:	f8                   	clc    
  f9:	00 00                	add    BYTE PTR [rax],al
  fb:	00 00                	add    BYTE PTR [rax],al
  fd:	00 00                	add    BYTE PTR [rax],al
  ff:	00 0b                	add    BYTE PTR [rbx],cl
 101:	00 00                	add    BYTE PTR [rax],al
 103:	00 00                	add    BYTE PTR [rax],al
 105:	00 00                	add    BYTE PTR [rax],al
 107:	00 10                	add    BYTE PTR [rax],dl
 109:	00 00                	add    BYTE PTR [rax],al
 10b:	00 0c 01             	add    BYTE PTR [rcx+rax*1],cl
 10e:	00 00                	add    BYTE PTR [rax],al
 110:	00 00                	add    BYTE PTR [rax],al
 112:	00 00                	add    BYTE PTR [rax],al
 114:	2f                   	(bad)  
 115:	00 00                	add    BYTE PTR [rax],al
 117:	00 00                	add    BYTE PTR [rax],al
 119:	00 00                	add    BYTE PTR [rax],al
 11b:	00 10                	add    BYTE PTR [rax],dl
 11d:	00 00                	add    BYTE PTR [rax],al
 11f:	00 20                	add    BYTE PTR [rax],ah
 121:	01 00                	add    DWORD PTR [rax],eax
 123:	00 00                	add    BYTE PTR [rax],al
 125:	00 00                	add    BYTE PTR [rax],al
 127:	00 12                	add    BYTE PTR [rdx],dl
 129:	00 00                	add    BYTE PTR [rax],al
 12b:	00 00                	add    BYTE PTR [rax],al
 12d:	00 00                	add    BYTE PTR [rax],al
 12f:	00 10                	add    BYTE PTR [rax],dl
 131:	00 00                	add    BYTE PTR [rax],al
 133:	00 34 01             	add    BYTE PTR [rcx+rax*1],dh
 136:	00 00                	add    BYTE PTR [rax],al
 138:	00 00                	add    BYTE PTR [rax],al
 13a:	00 00                	add    BYTE PTR [rax],al
 13c:	88 00                	mov    BYTE PTR [rax],al
 13e:	00 00                	add    BYTE PTR [rax],al
 140:	00 00                	add    BYTE PTR [rax],al
 142:	00 00                	add    BYTE PTR [rax],al
 144:	10 00                	adc    BYTE PTR [rax],al
 146:	00 00                	add    BYTE PTR [rax],al
 148:	48 01 00             	add    QWORD PTR [rax],rax
 14b:	00 00                	add    BYTE PTR [rax],al
 14d:	00 00                	add    BYTE PTR [rax],al
 14f:	00 19                	add    BYTE PTR [rcx],bl
 151:	00 00                	add    BYTE PTR [rax],al
 153:	00 00                	add    BYTE PTR [rax],al
 155:	00 00                	add    BYTE PTR [rax],al
 157:	00 10                	add    BYTE PTR [rax],dl
 159:	00 00                	add    BYTE PTR [rax],al
 15b:	00 5c 01 00          	add    BYTE PTR [rcx+rax*1+0x0],bl
 15f:	00 00                	add    BYTE PTR [rax],al
 161:	00 00                	add    BYTE PTR [rax],al
 163:	00 12                	add    BYTE PTR [rdx],dl
 165:	00 00                	add    BYTE PTR [rax],al
 167:	00 00                	add    BYTE PTR [rax],al
 169:	00 00                	add    BYTE PTR [rax],al
 16b:	00 10                	add    BYTE PTR [rax],dl
 16d:	00 00                	add    BYTE PTR [rax],al
 16f:	00 70 01             	add    BYTE PTR [rax+0x1],dh
 172:	00 00                	add    BYTE PTR [rax],al
 174:	00 00                	add    BYTE PTR [rax],al
 176:	00 00                	add    BYTE PTR [rax],al
 178:	0a 00                	or     al,BYTE PTR [rax]
 17a:	00 00                	add    BYTE PTR [rax],al
 17c:	00 00                	add    BYTE PTR [rax],al
 17e:	00 00                	add    BYTE PTR [rax],al
 180:	10 00                	adc    BYTE PTR [rax],al
 182:	00 00                	add    BYTE PTR [rax],al
 184:	84 01                	test   BYTE PTR [rcx],al
 186:	00 00                	add    BYTE PTR [rax],al
 188:	00 00                	add    BYTE PTR [rax],al
 18a:	00 00                	add    BYTE PTR [rax],al
 18c:	0a 00                	or     al,BYTE PTR [rax]
 18e:	00 00                	add    BYTE PTR [rax],al
 190:	00 00                	add    BYTE PTR [rax],al
 192:	00 00                	add    BYTE PTR [rax],al
 194:	2c 00                	sub    al,0x0
 196:	00 00                	add    BYTE PTR [rax],al
 198:	98                   	cwde   
 199:	01 00                	add    DWORD PTR [rax],eax
 19b:	00 00                	add    BYTE PTR [rax],al
 19d:	00 00                	add    BYTE PTR [rax],al
 19f:	00 af 01 00 00 00    	add    BYTE PTR [rdi+0x1],ch
 1a5:	42 0e                	rex.X (bad) 
 1a7:	10 8c 02 41 0e 18 86 	adc    BYTE PTR [rdx+rax*1-0x79e7f1bf],cl
 1ae:	03 43 0e             	add    eax,DWORD PTR [rbx+0xe]
 1b1:	20 83 04 03 0e 01    	and    BYTE PTR [rbx+0x10e0304],al
 1b7:	0a 0e                	or     cl,BYTE PTR [rsi]
 1b9:	18 41 0e             	sbb    BYTE PTR [rcx+0xe],al
 1bc:	10 42 0e             	adc    BYTE PTR [rdx+0xe],al
 1bf:	08 49 0b             	or     BYTE PTR [rcx+0xb],cl
 1c2:	00 00                	add    BYTE PTR [rax],al
 1c4:	10 00                	adc    BYTE PTR [rax],al
 1c6:	00 00                	add    BYTE PTR [rax],al
 1c8:	c8 01 00 00          	enter  0x1,0x0
 1cc:	00 00                	add    BYTE PTR [rax],al
 1ce:	00 00                	add    BYTE PTR [rax],al
 1d0:	12 00                	adc    al,BYTE PTR [rax]
 1d2:	00 00                	add    BYTE PTR [rax],al
 1d4:	00 00                	add    BYTE PTR [rax],al
 1d6:	00 00                	add    BYTE PTR [rax],al
 1d8:	14 00                	adc    al,0x0
 1da:	00 00                	add    BYTE PTR [rax],al
 1dc:	dc 01                	fadd   QWORD PTR [rcx]
 1de:	00 00                	add    BYTE PTR [rax],al
 1e0:	00 00                	add    BYTE PTR [rax],al
 1e2:	00 00                	add    BYTE PTR [rax],al
 1e4:	dd 00                	fld    QWORD PTR [rax]
 1e6:	00 00                	add    BYTE PTR [rax],al
 1e8:	00 02                	add    BYTE PTR [rdx],al
 1ea:	d3 0e                	ror    DWORD PTR [rsi],cl
 1ec:	10 49 0e             	adc    BYTE PTR [rcx+0xe],cl
 1ef:	08 10                	or     BYTE PTR [rax],dl
 1f1:	00 00                	add    BYTE PTR [rax],al
 1f3:	00 f4                	add    ah,dh
 1f5:	01 00                	add    DWORD PTR [rax],eax
 1f7:	00 00                	add    BYTE PTR [rax],al
 1f9:	00 00                	add    BYTE PTR [rax],al
 1fb:	00 0b                	add    BYTE PTR [rbx],cl
 1fd:	00 00                	add    BYTE PTR [rax],al
 1ff:	00 00                	add    BYTE PTR [rax],al
 201:	00 00                	add    BYTE PTR [rax],al
 203:	00 10                	add    BYTE PTR [rax],dl
 205:	00 00                	add    BYTE PTR [rax],al
 207:	00 08                	add    BYTE PTR [rax],cl
 209:	02 00                	add    al,BYTE PTR [rax]
 20b:	00 00                	add    BYTE PTR [rax],al
 20d:	00 00                	add    BYTE PTR [rax],al
 20f:	00 09                	add    BYTE PTR [rcx],cl
 211:	00 00                	add    BYTE PTR [rax],al
 213:	00 00                	add    BYTE PTR [rax],al
 215:	00 00                	add    BYTE PTR [rax],al
 217:	00 1c 00             	add    BYTE PTR [rax+rax*1],bl
 21a:	00 00                	add    BYTE PTR [rax],al
 21c:	00 00                	add    BYTE PTR [rax],al
 21e:	00 00                	add    BYTE PTR [rax],al
 220:	01 7a 50             	add    DWORD PTR [rdx+0x50],edi
 223:	4c 52                	rex.WR push rdx
 225:	00 01                	add    BYTE PTR [rcx],al
 227:	78 10                	js     239 <.eh_frame+0x239>
 229:	07                   	(bad)  
 22a:	03 00                	add    eax,DWORD PTR [rax]
 22c:	00 00                	add    BYTE PTR [rax],al
 22e:	00 03                	add    BYTE PTR [rbx],al
 230:	1b 0c 07             	sbb    ecx,DWORD PTR [rdi+rax*1]
 233:	08 90 01 00 00 68    	or     BYTE PTR [rax+0x68000001],dl
 239:	00 00                	add    BYTE PTR [rax],al
 23b:	00 24 00             	add    BYTE PTR [rax+rax*1],ah
 23e:	00 00                	add    BYTE PTR [rax],al
 240:	00 00                	add    BYTE PTR [rax],al
 242:	00 00                	add    BYTE PTR [rax],al
 244:	f2 03 00             	repnz add eax,DWORD PTR [rax]
 247:	00 04 00             	add    BYTE PTR [rax+rax*1],al
 24a:	00 00                	add    BYTE PTR [rax],al
 24c:	00 42 0e             	add    BYTE PTR [rdx+0xe],al
 24f:	10 8f 02 42 0e 18    	adc    BYTE PTR [rdi+0x180e4202],cl
 255:	8e 03                	mov    es,WORD PTR [rbx]
 257:	46 0e                	rex.RX (bad) 
 259:	20 8d 04 42 0e 28    	and    BYTE PTR [rbp+0x280e4204],cl
 25f:	8c 05 41 0e 30 86    	mov    WORD PTR [rip+0xffffffff86300e41],es        # ffffffff863010a6 <_ZN9simulator20saveVelocitiesToFileEv+0xffffffff862fd656>
 265:	06                   	(bad)  
 266:	41 0e                	rex.B (bad) 
 268:	38 83 07 4e 0e 70    	cmp    BYTE PTR [rbx+0x700e4e07],al
 26e:	03 14 02             	add    edx,DWORD PTR [rdx+rax*1]
 271:	0a 0e                	or     cl,BYTE PTR [rsi]
 273:	38 41 0e             	cmp    BYTE PTR [rcx+0xe],al
 276:	30 41 0e             	xor    BYTE PTR [rcx+0xe],al
 279:	28 42 0e             	sub    BYTE PTR [rdx+0xe],al
 27c:	20 42 0e             	and    BYTE PTR [rdx+0xe],al
 27f:	18 42 0e             	sbb    BYTE PTR [rdx+0xe],al
 282:	10 42 0e             	adc    BYTE PTR [rdx+0xe],al
 285:	08 46 0b             	or     BYTE PTR [rsi+0xb],al
 288:	02 a6 0a 0e 38 41    	add    ah,BYTE PTR [rsi+0x41380e0a]
 28e:	0e                   	(bad)  
 28f:	30 41 0e             	xor    BYTE PTR [rcx+0xe],al
 292:	28 42 0e             	sub    BYTE PTR [rdx+0xe],al
 295:	20 42 0e             	and    BYTE PTR [rdx+0xe],al
 298:	18 42 0e             	sbb    BYTE PTR [rdx+0xe],al
 29b:	10 42 0e             	adc    BYTE PTR [rdx+0xe],al
 29e:	08 48 0b             	or     BYTE PTR [rax+0xb],cl
 2a1:	00 00                	add    BYTE PTR [rax],al
 2a3:	00 3c 00             	add    BYTE PTR [rax+rax*1],bh
 2a6:	00 00                	add    BYTE PTR [rax],al
 2a8:	90                   	nop
 2a9:	00 00                	add    BYTE PTR [rax],al
 2ab:	00 00                	add    BYTE PTR [rax],al
 2ad:	00 00                	add    BYTE PTR [rax],al
 2af:	00 63 01             	add    BYTE PTR [rbx+0x1],ah
 2b2:	00 00                	add    BYTE PTR [rax],al
 2b4:	04 00                	add    al,0x0
 2b6:	00 00                	add    BYTE PTR [rax],al
 2b8:	00 42 0e             	add    BYTE PTR [rdx+0xe],al
 2bb:	10 8c 02 41 0e 18 86 	adc    BYTE PTR [rdx+rax*1-0x79e7f1bf],cl
 2c2:	03 45 0e             	add    eax,DWORD PTR [rbp+0xe]
 2c5:	20 83 04 03 29 01    	and    BYTE PTR [rbx+0x1290304],al
 2cb:	0a 0e                	or     cl,BYTE PTR [rsi]
 2cd:	18 41 0e             	sbb    BYTE PTR [rcx+0xe],al
 2d0:	10 42 0e             	adc    BYTE PTR [rdx+0xe],al
 2d3:	08 4c 0b 41          	or     BYTE PTR [rbx+rcx*1+0x41],cl
 2d7:	0a 0e                	or     cl,BYTE PTR [rsi]
 2d9:	18 41 0e             	sbb    BYTE PTR [rcx+0xe],al
 2dc:	10 42 0e             	adc    BYTE PTR [rdx+0xe],al
 2df:	08 44 0b 00          	or     BYTE PTR [rbx+rcx*1+0x0],al
 2e3:	00 30                	add    BYTE PTR [rax],dh
 2e5:	00 00                	add    BYTE PTR [rax],al
 2e7:	00 e8                	add    al,ch
 2e9:	02 00                	add    al,BYTE PTR [rax]
 2eb:	00 00                	add    BYTE PTR [rax],al
 2ed:	00 00                	add    BYTE PTR [rax],al
 2ef:	00 43 00             	add    BYTE PTR [rbx+0x0],al
 2f2:	00 00                	add    BYTE PTR [rax],al
 2f4:	00 41 0e             	add    BYTE PTR [rcx+0xe],al
 2f7:	10 86 02 41 0e 18    	adc    BYTE PTR [rsi+0x180e4102],al
 2fd:	83 03 4f             	add    DWORD PTR [rbx],0x4f
 300:	0e                   	(bad)  
 301:	20 55 0a             	and    BYTE PTR [rbp+0xa],dl
 304:	0e                   	(bad)  
 305:	18 45 0e             	sbb    BYTE PTR [rbp+0xe],al
 308:	10 41 0e             	adc    BYTE PTR [rcx+0xe],al
 30b:	08 4c 0b 44          	or     BYTE PTR [rbx+rcx*1+0x44],cl
 30f:	0e                   	(bad)  
 310:	18 41 0e             	sbb    BYTE PTR [rcx+0xe],al
 313:	10 41 0e             	adc    BYTE PTR [rcx+0xe],al
 316:	08 00                	or     BYTE PTR [rax],al
 318:	24 00                	and    al,0x0
 31a:	00 00                	add    BYTE PTR [rax],al
 31c:	1c 03                	sbb    al,0x3
 31e:	00 00                	add    BYTE PTR [rax],al
 320:	00 00                	add    BYTE PTR [rax],al
 322:	00 00                	add    BYTE PTR [rax],al
 324:	42 00 00             	rex.X add BYTE PTR [rax],al
 327:	00 00                	add    BYTE PTR [rax],al
 329:	41 0e                	rex.B (bad) 
 32b:	10 83 02 4c 0e 20    	adc    BYTE PTR [rbx+0x200e4c02],al
 331:	61                   	(bad)  
 332:	0a 0e                	or     cl,BYTE PTR [rsi]
 334:	10 41 0e             	adc    BYTE PTR [rcx+0xe],al
 337:	08 49 0b             	or     BYTE PTR [rcx+0xb],cl
 33a:	44 0e                	rex.R (bad) 
 33c:	10 41 0e             	adc    BYTE PTR [rcx+0xe],al
 33f:	08 34 00             	or     BYTE PTR [rax+rax*1],dh
 342:	00 00                	add    BYTE PTR [rax],al
 344:	44 03 00             	add    r8d,DWORD PTR [rax]
 347:	00 00                	add    BYTE PTR [rax],al
 349:	00 00                	add    BYTE PTR [rax],al
 34b:	00 ab 00 00 00 00    	add    BYTE PTR [rbx+0x0],ch
 351:	41 0e                	rex.B (bad) 
 353:	10 86 02 41 0e 18    	adc    BYTE PTR [rsi+0x180e4102],al
 359:	83 03 4e             	add    DWORD PTR [rbx],0x4e
 35c:	0e                   	(bad)  
 35d:	20 4d 0a             	and    BYTE PTR [rbp+0xa],cl
 360:	0e                   	(bad)  
 361:	18 47 0e             	sbb    BYTE PTR [rdi+0xe],al
 364:	10 41 0e             	adc    BYTE PTR [rcx+0xe],al
 367:	08 4b 0b             	or     BYTE PTR [rbx+0xb],cl
 36a:	02 43 0a             	add    al,BYTE PTR [rbx+0xa]
 36d:	0e                   	(bad)  
 36e:	18 44 0e 10          	sbb    BYTE PTR [rsi+rcx*1+0x10],al
 372:	41 0e                	rex.B (bad) 
 374:	08 48 0b             	or     BYTE PTR [rax+0xb],cl
 377:	00 1c 00             	add    BYTE PTR [rax+rax*1],bl
 37a:	00 00                	add    BYTE PTR [rax],al
 37c:	7c 03                	jl     381 <.eh_frame+0x381>
 37e:	00 00                	add    BYTE PTR [rax],al
 380:	00 00                	add    BYTE PTR [rax],al
 382:	00 00                	add    BYTE PTR [rax],al
 384:	36 00 00             	add    BYTE PTR ss:[rax],al
 387:	00 00                	add    BYTE PTR [rax],al
 389:	41 0e                	rex.B (bad) 
 38b:	10 83 02 60 0a 0e    	adc    BYTE PTR [rbx+0xe0a6002],al
 391:	08 4f 0b             	or     BYTE PTR [rdi+0xb],cl
 394:	41 0e                	rex.B (bad) 
 396:	08 00                	or     BYTE PTR [rax],al
 398:	38 00                	cmp    BYTE PTR [rax],al
 39a:	00 00                	add    BYTE PTR [rax],al
 39c:	9c                   	pushf  
 39d:	03 00                	add    eax,DWORD PTR [rax]
 39f:	00 00                	add    BYTE PTR [rax],al
 3a1:	00 00                	add    BYTE PTR [rax],al
 3a3:	00 1b                	add    BYTE PTR [rbx],bl
 3a5:	01 00                	add    DWORD PTR [rax],eax
 3a7:	00 00                	add    BYTE PTR [rax],al
 3a9:	42 0e                	rex.X (bad) 
 3ab:	10 8c 02 41 0e 18 86 	adc    BYTE PTR [rdx+rax*1-0x79e7f1bf],cl
 3b2:	03 44 0e 20          	add    eax,DWORD PTR [rsi+rcx*1+0x20]
 3b6:	83 04 02 51          	add    DWORD PTR [rdx+rax*1],0x51
 3ba:	0a 0e                	or     cl,BYTE PTR [rsi]
 3bc:	18 41 0e             	sbb    BYTE PTR [rcx+0xe],al
 3bf:	10 46 0e             	adc    BYTE PTR [rsi+0xe],al
 3c2:	08 51 0b             	or     BYTE PTR [rcx+0xb],dl
 3c5:	02 78 0a             	add    bh,BYTE PTR [rax+0xa]
 3c8:	0e                   	(bad)  
 3c9:	18 43 0e             	sbb    BYTE PTR [rbx+0xe],al
 3cc:	10 42 0e             	adc    BYTE PTR [rdx+0xe],al
 3cf:	08 43 0b             	or     BYTE PTR [rbx+0xb],al
 3d2:	00 00                	add    BYTE PTR [rax],al
 3d4:	30 00                	xor    BYTE PTR [rax],al
 3d6:	00 00                	add    BYTE PTR [rax],al
 3d8:	d8 03                	fadd   DWORD PTR [rbx]
 3da:	00 00                	add    BYTE PTR [rax],al
 3dc:	00 00                	add    BYTE PTR [rax],al
 3de:	00 00                	add    BYTE PTR [rax],al
 3e0:	4b 00 00             	rex.WXB add BYTE PTR [r8],al
 3e3:	00 00                	add    BYTE PTR [rax],al
 3e5:	41 0e                	rex.B (bad) 
 3e7:	10 86 02 41 0e 18    	adc    BYTE PTR [rsi+0x180e4102],al
 3ed:	83 03 4f             	add    DWORD PTR [rbx],0x4f
 3f0:	0e                   	(bad)  
 3f1:	20 6b 0a             	and    BYTE PTR [rbx+0xa],ch
 3f4:	0e                   	(bad)  
 3f5:	18 41 0e             	sbb    BYTE PTR [rcx+0xe],al
 3f8:	10 41 0e             	adc    BYTE PTR [rcx+0xe],al
 3fb:	08 42 0b             	or     BYTE PTR [rdx+0xb],al
 3fe:	44 0e                	rex.R (bad) 
 400:	18 41 0e             	sbb    BYTE PTR [rcx+0xe],al
 403:	10 41 0e             	adc    BYTE PTR [rcx+0xe],al
 406:	08 00                	or     BYTE PTR [rax],al
 408:	30 00                	xor    BYTE PTR [rax],al
 40a:	00 00                	add    BYTE PTR [rax],al
 40c:	0c 04                	or     al,0x4
 40e:	00 00                	add    BYTE PTR [rax],al
 410:	00 00                	add    BYTE PTR [rax],al
 412:	00 00                	add    BYTE PTR [rax],al
 414:	4b 00 00             	rex.WXB add BYTE PTR [r8],al
 417:	00 00                	add    BYTE PTR [rax],al
 419:	41 0e                	rex.B (bad) 
 41b:	10 86 02 41 0e 18    	adc    BYTE PTR [rsi+0x180e4102],al
 421:	83 03 4f             	add    DWORD PTR [rbx],0x4f
 424:	0e                   	(bad)  
 425:	20 6b 0a             	and    BYTE PTR [rbx+0xa],ch
 428:	0e                   	(bad)  
 429:	18 41 0e             	sbb    BYTE PTR [rcx+0xe],al
 42c:	10 41 0e             	adc    BYTE PTR [rcx+0xe],al
 42f:	08 42 0b             	or     BYTE PTR [rdx+0xb],al
 432:	44 0e                	rex.R (bad) 
 434:	18 41 0e             	sbb    BYTE PTR [rcx+0xe],al
 437:	10 41 0e             	adc    BYTE PTR [rcx+0xe],al
 43a:	08 00                	or     BYTE PTR [rax],al
 43c:	30 00                	xor    BYTE PTR [rax],al
 43e:	00 00                	add    BYTE PTR [rax],al
 440:	40 04 00             	add    al,0x0
 443:	00 00                	add    BYTE PTR [rax],al
 445:	00 00                	add    BYTE PTR [rax],al
 447:	00 4b 00             	add    BYTE PTR [rbx+0x0],cl
 44a:	00 00                	add    BYTE PTR [rax],al
 44c:	00 41 0e             	add    BYTE PTR [rcx+0xe],al
 44f:	10 86 02 41 0e 18    	adc    BYTE PTR [rsi+0x180e4102],al
 455:	83 03 4f             	add    DWORD PTR [rbx],0x4f
 458:	0e                   	(bad)  
 459:	20 6b 0a             	and    BYTE PTR [rbx+0xa],ch
 45c:	0e                   	(bad)  
 45d:	18 41 0e             	sbb    BYTE PTR [rcx+0xe],al
 460:	10 41 0e             	adc    BYTE PTR [rcx+0xe],al
 463:	08 42 0b             	or     BYTE PTR [rdx+0xb],al
 466:	44 0e                	rex.R (bad) 
 468:	18 41 0e             	sbb    BYTE PTR [rcx+0xe],al
 46b:	10 41 0e             	adc    BYTE PTR [rcx+0xe],al
 46e:	08 00                	or     BYTE PTR [rax],al
 470:	30 00                	xor    BYTE PTR [rax],al
 472:	00 00                	add    BYTE PTR [rax],al
 474:	74 04                	je     47a <.eh_frame+0x47a>
 476:	00 00                	add    BYTE PTR [rax],al
 478:	00 00                	add    BYTE PTR [rax],al
 47a:	00 00                	add    BYTE PTR [rax],al
 47c:	4b 00 00             	rex.WXB add BYTE PTR [r8],al
 47f:	00 00                	add    BYTE PTR [rax],al
 481:	41 0e                	rex.B (bad) 
 483:	10 86 02 41 0e 18    	adc    BYTE PTR [rsi+0x180e4102],al
 489:	83 03 4f             	add    DWORD PTR [rbx],0x4f
 48c:	0e                   	(bad)  
 48d:	20 6b 0a             	and    BYTE PTR [rbx+0xa],ch
 490:	0e                   	(bad)  
 491:	18 41 0e             	sbb    BYTE PTR [rcx+0xe],al
 494:	10 41 0e             	adc    BYTE PTR [rcx+0xe],al
 497:	08 42 0b             	or     BYTE PTR [rdx+0xb],al
 49a:	44 0e                	rex.R (bad) 
 49c:	18 41 0e             	sbb    BYTE PTR [rcx+0xe],al
 49f:	10 41 0e             	adc    BYTE PTR [rcx+0xe],al
 4a2:	08 00                	or     BYTE PTR [rax],al
 4a4:	30 00                	xor    BYTE PTR [rax],al
 4a6:	00 00                	add    BYTE PTR [rax],al
 4a8:	a8 04                	test   al,0x4
 4aa:	00 00                	add    BYTE PTR [rax],al
 4ac:	00 00                	add    BYTE PTR [rax],al
 4ae:	00 00                	add    BYTE PTR [rax],al
 4b0:	7c 00                	jl     4b2 <.eh_frame+0x4b2>
 4b2:	00 00                	add    BYTE PTR [rax],al
 4b4:	00 41 0e             	add    BYTE PTR [rcx+0xe],al
 4b7:	10 86 02 41 0e 18    	adc    BYTE PTR [rsi+0x180e4102],al
 4bd:	83 03 55             	add    DWORD PTR [rbx],0x55
 4c0:	0e                   	(bad)  
 4c1:	20 60 0a             	and    BYTE PTR [rax+0xa],ah
 4c4:	0e                   	(bad)  
 4c5:	18 41 0e             	sbb    BYTE PTR [rcx+0xe],al
 4c8:	10 41 0e             	adc    BYTE PTR [rcx+0xe],al
 4cb:	08 47 0b             	or     BYTE PTR [rdi+0xb],al
 4ce:	72 0e                	jb     4de <.eh_frame+0x4de>
 4d0:	18 41 0e             	sbb    BYTE PTR [rcx+0xe],al
 4d3:	10 41 0e             	adc    BYTE PTR [rcx+0xe],al
 4d6:	08 00                	or     BYTE PTR [rax],al
 4d8:	48 00 00             	rex.W add BYTE PTR [rax],al
 4db:	00 c4                	add    ah,al
 4dd:	02 00                	add    al,BYTE PTR [rax]
 4df:	00 00                	add    BYTE PTR [rax],al
 4e1:	00 00                	add    BYTE PTR [rax],al
 4e3:	00 9d 03 00 00 04    	add    BYTE PTR [rbp+0x4000003],bl
 4e9:	00 00                	add    BYTE PTR [rax],al
 4eb:	00 00                	add    BYTE PTR [rax],al
 4ed:	42 0e                	rex.X (bad) 
 4ef:	10 8e 02 42 0e 18    	adc    BYTE PTR [rsi+0x180e4202],cl
 4f5:	8d 03                	lea    eax,[rbx]
 4f7:	47 0e                	rex.RXB (bad) 
 4f9:	20 8c 04 41 0e 28 86 	and    BYTE PTR [rsp+rax*1-0x79d7f1bf],cl
 500:	05 44 0e 30 83       	add    eax,0x83300e44
 505:	06                   	(bad)  
 506:	4f 0e                	rex.WRXB (bad) 
 508:	c0 09 03             	ror    BYTE PTR [rcx],0x3
 50b:	af                   	scas   eax,DWORD PTR es:[rdi]
 50c:	02 0a                	add    cl,BYTE PTR [rdx]
 50e:	0e                   	(bad)  
 50f:	30 41 0e             	xor    BYTE PTR [rcx+0xe],al
 512:	28 41 0e             	sub    BYTE PTR [rcx+0xe],al
 515:	20 42 0e             	and    BYTE PTR [rdx+0xe],al
 518:	18 42 0e             	sbb    BYTE PTR [rdx+0xe],al
 51b:	10 42 0e             	adc    BYTE PTR [rdx+0xe],al
 51e:	08 4a 0b             	or     BYTE PTR [rdx+0xb],cl
 521:	00 00                	add    BYTE PTR [rax],al
 523:	00 34 00             	add    BYTE PTR [rax+rax*1],dh
 526:	00 00                	add    BYTE PTR [rax],al
 528:	10 03                	adc    BYTE PTR [rbx],al
 52a:	00 00                	add    BYTE PTR [rax],al
 52c:	00 00                	add    BYTE PTR [rax],al
 52e:	00 00                	add    BYTE PTR [rax],al
 530:	67 04 00             	addr32 add al,0x0
 533:	00 04 00             	add    BYTE PTR [rax+rax*1],al
 536:	00 00                	add    BYTE PTR [rax],al
 538:	00 42 0e             	add    BYTE PTR [rdx+0xe],al
 53b:	10 8c 02 41 0e 18 86 	adc    BYTE PTR [rdx+rax*1-0x79e7f1bf],cl
 542:	03 46 0e             	add    eax,DWORD PTR [rsi+0xe]
 545:	20 83 04 4c 0e 60    	and    BYTE PTR [rbx+0x600e4c04],al
 54b:	03 88 03 0a 0e 20    	add    ecx,DWORD PTR [rax+0x200e0a03]
 551:	41 0e                	rex.B (bad) 
 553:	18 41 0e             	sbb    BYTE PTR [rcx+0xe],al
 556:	10 42 0e             	adc    BYTE PTR [rdx+0xe],al
 559:	08 41 0b             	or     BYTE PTR [rcx+0xb],al
 55c:	10 00                	adc    BYTE PTR [rax],al
 55e:	00 00                	add    BYTE PTR [rax],al
 560:	60                   	(bad)  
 561:	05 00 00 00 00       	add    eax,0x0
 566:	00 00                	add    BYTE PTR [rax],al
 568:	7d 00                	jge    56a <.eh_frame+0x56a>
 56a:	00 00                	add    BYTE PTR [rax],al
 56c:	00 00                	add    BYTE PTR [rax],al
 56e:	00 00                	add    BYTE PTR [rax],al
 570:	38 00                	cmp    BYTE PTR [rax],al
 572:	00 00                	add    BYTE PTR [rax],al
 574:	74 05                	je     57b <.eh_frame+0x57b>
 576:	00 00                	add    BYTE PTR [rax],al
 578:	00 00                	add    BYTE PTR [rax],al
 57a:	00 00                	add    BYTE PTR [rax],al
 57c:	9e                   	sahf   
 57d:	01 00                	add    DWORD PTR [rax],eax
 57f:	00 00                	add    BYTE PTR [rax],al
 581:	42 0e                	rex.X (bad) 
 583:	10 8e 02 42 0e 18    	adc    BYTE PTR [rsi+0x180e4202],cl
 589:	8d 03                	lea    eax,[rbx]
 58b:	42 0e                	rex.X (bad) 
 58d:	20 8c 04 41 0e 28 86 	and    BYTE PTR [rsp+rax*1-0x79d7f1bf],cl
 594:	05 41 0e 30 83       	add    eax,0x83300e41
 599:	06                   	(bad)  
 59a:	03 8e 01 0e 28 41    	add    ecx,DWORD PTR [rsi+0x41280e01]
 5a0:	0e                   	(bad)  
 5a1:	20 42 0e             	and    BYTE PTR [rdx+0xe],al
 5a4:	18 42 0e             	sbb    BYTE PTR [rdx+0xe],al
 5a7:	10 42 0e             	adc    BYTE PTR [rdx+0xe],al
 5aa:	08 00                	or     BYTE PTR [rax],al
 5ac:	40 00 00             	add    BYTE PTR [rax],al
 5af:	00 b0 05 00 00 00    	add    BYTE PTR [rax+0x5],dh
 5b5:	00 00                	add    BYTE PTR [rax],al
 5b7:	00 1c 04             	add    BYTE PTR [rsp+rax*1],bl
 5ba:	00 00                	add    BYTE PTR [rax],al
 5bc:	00 48 0e             	add    BYTE PTR [rax+0xe],cl
 5bf:	10 8f 02 42 0e 18    	adc    BYTE PTR [rdi+0x180e4202],cl
 5c5:	8e 03                	mov    es,WORD PTR [rbx]
 5c7:	42 0e                	rex.X (bad) 
 5c9:	20 8d 04 42 0e 28    	and    BYTE PTR [rbp+0x280e4204],cl
 5cf:	8c 05 41 0e 30 86    	mov    WORD PTR [rip+0xffffffff86300e41],es        # ffffffff86301416 <_ZN9simulator20saveVelocitiesToFileEv+0xffffffff862fd9c6>
 5d5:	06                   	(bad)  
 5d6:	4b 0e                	rex.WXB (bad) 
 5d8:	38 83 07 03 f8 03    	cmp    BYTE PTR [rbx+0x3f80307],al
 5de:	0e                   	(bad)  
 5df:	30 41 0e             	xor    BYTE PTR [rcx+0xe],al
 5e2:	28 42 0e             	sub    BYTE PTR [rdx+0xe],al
 5e5:	20 42 0e             	and    BYTE PTR [rdx+0xe],al
 5e8:	18 42 0e             	sbb    BYTE PTR [rdx+0xe],al
 5eb:	10 42 0e             	adc    BYTE PTR [rdx+0xe],al
 5ee:	08 00                	or     BYTE PTR [rax],al
 5f0:	40 00 00             	add    BYTE PTR [rax],al
 5f3:	00 f4                	add    ah,dh
 5f5:	05 00 00 00 00       	add    eax,0x0
 5fa:	00 00                	add    BYTE PTR [rax],al
 5fc:	af                   	scas   eax,DWORD PTR es:[rdi]
 5fd:	06                   	(bad)  
 5fe:	00 00                	add    BYTE PTR [rax],al
 600:	00 55 0e             	add    BYTE PTR [rbp+0xe],dl
 603:	10 8f 02 42 0e 18    	adc    BYTE PTR [rdi+0x180e4202],cl
 609:	8e 03                	mov    es,WORD PTR [rbx]
 60b:	42 0e                	rex.X (bad) 
 60d:	20 8d 04 42 0e 28    	and    BYTE PTR [rbp+0x280e4204],cl
 613:	8c 05 49 0e 30 86    	mov    WORD PTR [rip+0xffffffff86300e49],es        # ffffffff86301462 <_ZN9simulator20saveVelocitiesToFileEv+0xffffffff862fda12>
 619:	06                   	(bad)  
 61a:	41 0e                	rex.B (bad) 
 61c:	38 83 07 03 5b 06    	cmp    BYTE PTR [rbx+0x65b0307],al
 622:	0e                   	(bad)  
 623:	30 41 0e             	xor    BYTE PTR [rcx+0xe],al
 626:	28 42 0e             	sub    BYTE PTR [rdx+0xe],al
 629:	20 67 0e             	and    BYTE PTR [rdi+0xe],ah
 62c:	18 42 0e             	sbb    BYTE PTR [rdx+0xe],al
 62f:	10 42 0e             	adc    BYTE PTR [rdx+0xe],al
 632:	08 00                	or     BYTE PTR [rax],al
 634:	60                   	(bad)  
 635:	00 00                	add    BYTE PTR [rax],al
 637:	00 38                	add    BYTE PTR [rax],bh
 639:	06                   	(bad)  
 63a:	00 00                	add    BYTE PTR [rax],al
 63c:	00 00                	add    BYTE PTR [rax],al
 63e:	00 00                	add    BYTE PTR [rax],al
 640:	cd 01                	int    0x1
 642:	00 00                	add    BYTE PTR [rax],al
 644:	00 42 0e             	add    BYTE PTR [rdx+0xe],al
 647:	10 8f 02 42 0e 18    	adc    BYTE PTR [rdi+0x180e4202],cl
 64d:	8e 03                	mov    es,WORD PTR [rbx]
 64f:	42 0e                	rex.X (bad) 
 651:	20 8d 04 42 0e 28    	and    BYTE PTR [rbp+0x280e4204],cl
 657:	8c 05 41 0e 30 86    	mov    WORD PTR [rip+0xffffffff86300e41],es        # ffffffff8630149e <_ZN9simulator20saveVelocitiesToFileEv+0xffffffff862fda4e>
 65d:	06                   	(bad)  
 65e:	41 0e                	rex.B (bad) 
 660:	38 83 07 48 0e 70    	cmp    BYTE PTR [rbx+0x700e4807],al
 666:	03 81 01 0a 0e 38    	add    eax,DWORD PTR [rcx+0x380e0a01]
 66c:	41 0e                	rex.B (bad) 
 66e:	30 41 0e             	xor    BYTE PTR [rcx+0xe],al
 671:	28 42 0e             	sub    BYTE PTR [rdx+0xe],al
 674:	20 42 0e             	and    BYTE PTR [rdx+0xe],al
 677:	18 42 0e             	sbb    BYTE PTR [rdx+0xe],al
 67a:	10 42 0e             	adc    BYTE PTR [rdx+0xe],al
 67d:	08 41 0b             	or     BYTE PTR [rcx+0xb],al
 680:	53                   	push   rbx
 681:	0e                   	(bad)  
 682:	38 4b 0e             	cmp    BYTE PTR [rbx+0xe],cl
 685:	30 41 0e             	xor    BYTE PTR [rcx+0xe],al
 688:	28 42 0e             	sub    BYTE PTR [rdx+0xe],al
 68b:	20 42 0e             	and    BYTE PTR [rdx+0xe],al
 68e:	18 42 0e             	sbb    BYTE PTR [rdx+0xe],al
 691:	10 42 0e             	adc    BYTE PTR [rdx+0xe],al
 694:	08 00                	or     BYTE PTR [rax],al
 696:	00 00                	add    BYTE PTR [rax],al
 698:	3c 00                	cmp    al,0x0
 69a:	00 00                	add    BYTE PTR [rax],al
 69c:	9c                   	pushf  
 69d:	06                   	(bad)  
 69e:	00 00                	add    BYTE PTR [rax],al
 6a0:	00 00                	add    BYTE PTR [rax],al
 6a2:	00 00                	add    BYTE PTR [rax],al
 6a4:	a3 01 00 00 00 5d 0e 	movabs ds:0x8c100e5d00000001,eax
 6ab:	10 8c 
 6ad:	02 41 0e             	add    al,BYTE PTR [rcx+0xe]
 6b0:	18 86 03 44 0e 20    	sbb    BYTE PTR [rsi+0x200e4403],al
 6b6:	83 04 47 0e          	add    DWORD PTR [rdi+rax*2],0xe
 6ba:	30 03                	xor    BYTE PTR [rbx],al
 6bc:	39 01                	cmp    DWORD PTR [rcx],eax
 6be:	0e                   	(bad)  
 6bf:	20 41 c3             	and    BYTE PTR [rcx-0x3d],al
 6c2:	0e                   	(bad)  
 6c3:	18 41 c6             	sbb    BYTE PTR [rcx-0x3a],al
 6c6:	0e                   	(bad)  
 6c7:	10 42 cc             	adc    BYTE PTR [rdx-0x34],al
 6ca:	0e                   	(bad)  
 6cb:	08 42 0e             	or     BYTE PTR [rdx+0xe],al
 6ce:	30 83 04 86 03 8c    	xor    BYTE PTR [rbx-0x73fc79fc],al
 6d4:	02 00                	add    al,BYTE PTR [rax]
 6d6:	00 00                	add    BYTE PTR [rax],al
 6d8:	14 00                	adc    al,0x0
 6da:	00 00                	add    BYTE PTR [rax],al
 6dc:	dc 06                	fadd   QWORD PTR [rsi]
 6de:	00 00                	add    BYTE PTR [rax],al
 6e0:	00 00                	add    BYTE PTR [rax],al
 6e2:	00 00                	add    BYTE PTR [rax],al
 6e4:	dd 00                	fld    QWORD PTR [rax]
 6e6:	00 00                	add    BYTE PTR [rax],al
 6e8:	00 02                	add    BYTE PTR [rdx],al
 6ea:	d3 0e                	ror    DWORD PTR [rsi],cl
 6ec:	10 49 0e             	adc    BYTE PTR [rcx+0xe],cl
 6ef:	08 20                	or     BYTE PTR [rax],ah
 6f1:	00 00                	add    BYTE PTR [rax],al
 6f3:	00 f4                	add    ah,dh
 6f5:	06                   	(bad)  
 6f6:	00 00                	add    BYTE PTR [rax],al
 6f8:	00 00                	add    BYTE PTR [rax],al
 6fa:	00 00                	add    BYTE PTR [rax],al
 6fc:	c5 00 00             	(bad)  
 6ff:	00 00                	add    BYTE PTR [rax],al
 701:	41 0e                	rex.B (bad) 
 703:	10 83 02 02 9c 0a    	adc    BYTE PTR [rbx+0xa9c0202],al
 709:	0e                   	(bad)  
 70a:	08 4b 0b             	or     BYTE PTR [rbx+0xb],cl
 70d:	41 0a 0e             	or     cl,BYTE PTR [r14]
 710:	08 47 0b             	or     BYTE PTR [rdi+0xb],al
 713:	00 24 00             	add    BYTE PTR [rax+rax*1],ah
 716:	00 00                	add    BYTE PTR [rax],al
 718:	00 05 00 00 00 00    	add    BYTE PTR [rip+0x0],al        # 71e <.eh_frame+0x71e>
 71e:	00 00                	add    BYTE PTR [rax],al
 720:	69 00 00 00 04 00    	imul   eax,DWORD PTR [rax],0x40000
 726:	00 00                	add    BYTE PTR [rax],al
 728:	00 41 0e             	add    BYTE PTR [rcx+0xe],al
 72b:	10 83 02 47 0e f0    	adc    BYTE PTR [rbx-0xff1b8fe],al
 731:	02 02                	add    al,BYTE PTR [rdx]
 733:	47 0a 0e             	rex.RXB or r9b,BYTE PTR [r14]
 736:	10 41 0e             	adc    BYTE PTR [rcx+0xe],al
 739:	08 41 0b             	or     BYTE PTR [rcx+0xb],al
 73c:	24 00                	and    al,0x0
 73e:	00 00                	add    BYTE PTR [rax],al
 740:	40 07                	rex (bad) 
 742:	00 00                	add    BYTE PTR [rax],al
 744:	00 00                	add    BYTE PTR [rax],al
 746:	00 00                	add    BYTE PTR [rax],al
 748:	ec                   	in     al,dx
 749:	00 00                	add    BYTE PTR [rax],al
 74b:	00 00                	add    BYTE PTR [rax],al
 74d:	41 0e                	rex.B (bad) 
 74f:	10 86 02 4c 0d 06    	adc    BYTE PTR [rsi+0x60d4c02],al
 755:	43 8c 03             	rex.XB mov WORD PTR [r11],es
 758:	83 04 02 d6          	add    DWORD PTR [rdx+rax*1],0xffffffd6
 75c:	0a 0c 07             	or     cl,BYTE PTR [rdi+rax*1]
 75f:	08 41 0b             	or     BYTE PTR [rcx+0xb],al
 762:	00 00                	add    BYTE PTR [rax],al
 764:	48 00 00             	rex.W add BYTE PTR [rax],al
 767:	00 50 05             	add    BYTE PTR [rax+0x5],dl
 76a:	00 00                	add    BYTE PTR [rax],al
 76c:	00 00                	add    BYTE PTR [rax],al
 76e:	00 00                	add    BYTE PTR [rax],al
 770:	7b 10                	jnp    782 <.eh_frame+0x782>
 772:	00 00                	add    BYTE PTR [rax],al
 774:	04 00                	add    al,0x0
 776:	00 00                	add    BYTE PTR [rax],al
 778:	00 42 0e             	add    BYTE PTR [rdx+0xe],al
 77b:	10 8e 02 42 0e 18    	adc    BYTE PTR [rsi+0x180e4202],cl
 781:	8d 03                	lea    eax,[rbx]
 783:	45 0e                	rex.RB (bad) 
 785:	20 8c 04 41 0e 28 86 	and    BYTE PTR [rsp+rax*1-0x79d7f1bf],cl
 78c:	05 44 0e 30 83       	add    eax,0x83300e44
 791:	06                   	(bad)  
 792:	54                   	push   rsp
 793:	0e                   	(bad)  
 794:	a0 0c 03 7a 0b 0a 0e 	movabs al,ds:0x41300e0a0b7a030c
 79b:	30 41 
 79d:	0e                   	(bad)  
 79e:	28 41 0e             	sub    BYTE PTR [rcx+0xe],al
 7a1:	20 42 0e             	and    BYTE PTR [rdx+0xe],al
 7a4:	18 42 0e             	sbb    BYTE PTR [rdx+0xe],al
 7a7:	10 42 0e             	adc    BYTE PTR [rdx+0xe],al
 7aa:	08 41 0b             	or     BYTE PTR [rcx+0xb],al
 7ad:	00 00                	add    BYTE PTR [rax],al
 7af:	00 18                	add    BYTE PTR [rax],bl
 7b1:	00 00                	add    BYTE PTR [rax],al
 7b3:	00 b4 07 00 00 00 00 	add    BYTE PTR [rdi+rax*1+0x0],dh
 7ba:	00 00                	add    BYTE PTR [rax],al
 7bc:	2e 00 00             	add    BYTE PTR cs:[rax],al
 7bf:	00 00                	add    BYTE PTR [rax],al
 7c1:	41 0e                	rex.B (bad) 
 7c3:	10 83 02 68 0e 08    	adc    BYTE PTR [rbx+0x80e6802],al
 7c9:	00 00                	add    BYTE PTR [rax],al
 7cb:	00 48 00             	add    BYTE PTR [rax+0x0],cl
 7ce:	00 00                	add    BYTE PTR [rax],al
 7d0:	b8 05 00 00 00       	mov    eax,0x5
 7d5:	00 00                	add    BYTE PTR [rax],al
 7d7:	00 35 10 00 00 04    	add    BYTE PTR [rip+0x4000010],dh        # 40007ed <_ZN9simulator20saveVelocitiesToFileEv+0x3ffcd9d>
 7dd:	00 00                	add    BYTE PTR [rax],al
 7df:	00 00                	add    BYTE PTR [rax],al
 7e1:	42 0e                	rex.X (bad) 
 7e3:	10 8e 02 42 0e 18    	adc    BYTE PTR [rsi+0x180e4202],cl
 7e9:	8d 03                	lea    eax,[rbx]
 7eb:	42 0e                	rex.X (bad) 
 7ed:	20 8c 04 41 0e 28 86 	and    BYTE PTR [rsp+rax*1-0x79d7f1bf],cl
 7f4:	05 44 0e 30 83       	add    eax,0x83300e44
 7f9:	06                   	(bad)  
 7fa:	47 0e                	rex.RXB (bad) 
 7fc:	d0 0f                	ror    BYTE PTR [rdi],1
 7fe:	03 67 0c             	add    esp,DWORD PTR [rdi+0xc]
 801:	0a 0e                	or     cl,BYTE PTR [rsi]
 803:	30 41 0e             	xor    BYTE PTR [rcx+0xe],al
 806:	28 41 0e             	sub    BYTE PTR [rcx+0xe],al
 809:	20 42 0e             	and    BYTE PTR [rdx+0xe],al
 80c:	18 42 0e             	sbb    BYTE PTR [rdx+0xe],al
 80f:	10 42 0e             	adc    BYTE PTR [rdx+0xe],al
 812:	08 41 0b             	or     BYTE PTR [rcx+0xb],al
 815:	00 00                	add    BYTE PTR [rax],al
 817:	00 18                	add    BYTE PTR [rax],bl
 819:	00 00                	add    BYTE PTR [rax],al
 81b:	00 1c 08             	add    BYTE PTR [rax+rcx*1],bl
 81e:	00 00                	add    BYTE PTR [rax],al
 820:	00 00                	add    BYTE PTR [rax],al
 822:	00 00                	add    BYTE PTR [rax],al
 824:	36 00 00             	add    BYTE PTR ss:[rax],al
 827:	00 00                	add    BYTE PTR [rax],al
 829:	41 0e                	rex.B (bad) 
 82b:	10 83 02 70 0e 08    	adc    BYTE PTR [rbx+0x80e7002],al
 831:	00 00                	add    BYTE PTR [rax],al
 833:	00 18                	add    BYTE PTR [rax],bl
 835:	00 00                	add    BYTE PTR [rax],al
 837:	00 38                	add    BYTE PTR [rax],bh
 839:	08 00                	or     BYTE PTR [rax],al
 83b:	00 00                	add    BYTE PTR [rax],al
 83d:	00 00                	add    BYTE PTR [rax],al
 83f:	00 26                	add    BYTE PTR [rsi],ah
 841:	00 00                	add    BYTE PTR [rax],al
 843:	00 00                	add    BYTE PTR [rax],al
 845:	44 0e                	rex.R (bad) 
 847:	10 5d 0e             	adc    BYTE PTR [rbp+0xe],bl
 84a:	08 00                	or     BYTE PTR [rax],al
 84c:	00 00                	add    BYTE PTR [rax],al
	...
